LIBRARY Krt.dll
EXPORTS
??0IConfigDllLoader@kcc@krt@@QAE@$$QAU012@@Z
??0IConfigDllLoader@kcc@krt@@QAE@ABU012@@Z
??0IConfigDllLoader@kcc@krt@@QAE@XZ
??0IConfigHandler@kcc@krt@@QAE@ABU012@@Z
??0IConfigHandler@kcc@krt@@QAE@XZ
??0IConfigService@kcc@krt@@QAE@$$QAU012@@Z
??0IConfigService@kcc@krt@@QAE@ABU012@@Z
??0IConfigService@kcc@krt@@QAE@XZ
??0IKAuthorizationHandler@@QAE@$$QAV0@@Z
??0IKAuthorizationHandler@@QAE@ABV0@@Z
??0IKAuthorizationHandler@@QAE@XZ
??0KABTestSettings@abtest@krt@@QAE@XZ
??0KAppArguments@krt@@QAE@PB_W@Z
??0KAppTranslators@krt@@QAE@PAVQObject@kso_qt@@@Z
??0KCCBaseSettings@kcc@krt@@QAE@ABV012@@Z
??0KCCBaseSettings@kcc@krt@@QAE@XZ
??0KCacheMuiSource@@QAE@$$QAV0@@Z
??0KCacheMuiSource@@QAE@ABV0@@Z
??0KCacheMuiSource@@QAE@ABVQString@kso_qt@@@Z
??0KCacheSource@@QAE@$$QAV0@@Z
??0KCacheSource@@QAE@ABV0@@Z
??0KCacheSource@@QAE@XZ
??0KConfigCenterSdkProxy@kcc@krt@@QAE@ABV012@@Z
??0KConfigCenterSdkProxy@kcc@krt@@QAE@XZ
??0KConfigsReader@krt@@QAE@ABV01@@Z
??0KConfigsReader@krt@@QAE@ABVQString@kso_qt@@0@Z
??0KCryptConfigsReader@krt@@QAE@ABV01@@Z
??0KCryptConfigsReader@krt@@QAE@ABVQString@kso_qt@@0@Z
??0KEnvState@PerfProxy@@QAE@PBD0@Z
??0KLocale@locale@krt@@QAE@ABV012@@Z
??0KLocale@locale@krt@@QAE@ABVQString@kso_qt@@@Z
??0KMuiSettings@krt@@QAE@ABVQString@kso_qt@@0PAVQObject@3@0@Z
??0KProductConfigsReader@krt@@QAE@ABVQString@kso_qt@@0@Z
??0KRTRegInfo@product@krt@@QAE@$$QAU012@@Z
??0KRTRegInfo@product@krt@@QAE@ABU012@@Z
??0KRTRegInfo@product@krt@@QAE@XZ
??0KTranslator@krt@@QAE@PAVQObject@kso_qt@@@Z
??0KUWPCommonSettings@krt@@QAE@XZ
??0KUWPSettings@krt@@QAE@XZ
??0ReadOptions@kcc@krt@@QAE@$$QAU012@@Z
??0ReadOptions@kcc@krt@@QAE@ABU012@@Z
??0ReadOptions@kcc@krt@@QAE@W4FileScope@12@@Z
??0ReadOptions@kcc@krt@@QAE@W4FileScope@12@ABVQString@kso_qt@@@Z
??0ReadOptions@kcc@krt@@QAE@XZ
??0WriteOptions@kcc@krt@@QAE@$$QAU012@@Z
??0WriteOptions@kcc@krt@@QAE@ABU012@@Z
??0WriteOptions@kcc@krt@@QAE@W4FileScope@12@@Z
??0WriteOptions@kcc@krt@@QAE@W4FileScope@12@ABVQString@kso_qt@@@Z
??0WriteOptions@kcc@krt@@QAE@XZ
??1IConfigHandler@kcc@krt@@UAE@XZ
??1KABTestSettings@abtest@krt@@UAE@XZ
??1KAppArguments@krt@@QAE@XZ
??1KAppTranslators@krt@@UAE@XZ
??1KCCBaseSettings@kcc@krt@@UAE@XZ
??1KCacheMuiSource@@QAE@XZ
??1KConfigCenterSdkProxy@kcc@krt@@UAE@XZ
??1KConfigsReader@krt@@UAE@XZ
??1KCryptConfigsReader@krt@@UAE@XZ
??1KLocale@locale@krt@@UAE@XZ
??1KMuiSettings@krt@@UAE@XZ
??1KProductConfigsReader@krt@@QAE@XZ
??1KRTRegInfo@product@krt@@QAE@XZ
??1KTranslator@krt@@UAE@XZ
??1KUWPCommonSettings@krt@@UAE@XZ
??1KUWPSettings@krt@@UAE@XZ
??1ReadOptions@kcc@krt@@QAE@XZ
??1WriteOptions@kcc@krt@@QAE@XZ
??4IConfigDllLoader@kcc@krt@@QAEAAU012@$$QAU012@@Z
??4IConfigDllLoader@kcc@krt@@QAEAAU012@ABU012@@Z
??4IConfigHandler@kcc@krt@@QAEAAU012@ABU012@@Z
??4IConfigService@kcc@krt@@QAEAAU012@$$QAU012@@Z
??4IConfigService@kcc@krt@@QAEAAU012@ABU012@@Z
??4IKAuthorizationHandler@@QAEAAV0@$$QAV0@@Z
??4IKAuthorizationHandler@@QAEAAV0@ABV0@@Z
??4KAppArguments@krt@@QAEAAV01@ABV01@@Z
??4KCCBaseSettings@kcc@krt@@QAEAAV012@ABV012@@Z
??4KCacheMuiSource@@QAEAAV0@$$QAV0@@Z
??4KCacheMuiSource@@QAEAAV0@ABV0@@Z
??4KCacheSource@@QAEAAV0@$$QAV0@@Z
??4KCacheSource@@QAEAAV0@ABV0@@Z
??4KConfigCenterSdkProxy@kcc@krt@@QAEAAV012@ABV012@@Z
??4KConfigsReader@krt@@QAEAAV01@ABV01@@Z
??4KCryptConfigsReader@krt@@QAEAAV01@ABV01@@Z
??4KDES@krt@@QAEAAV01@$$QAV01@@Z
??4KDES@krt@@QAEAAV01@ABV01@@Z
??4KEnvState@PerfProxy@@QAEAAV01@$$QAV01@@Z
??4KEnvState@PerfProxy@@QAEAAV01@ABV01@@Z
??4KLocale@locale@krt@@QAEAAV012@ABV012@@Z
??4KProductConfigsReader@krt@@QAEAAV01@ABV01@@Z
??4KRTRegInfo@product@krt@@QAEAAU012@$$QAU012@@Z
??4KRTRegInfo@product@krt@@QAEAAU012@ABU012@@Z
??4ReadOptions@kcc@krt@@QAEAAU012@$$QAU012@@Z
??4ReadOptions@kcc@krt@@QAEAAU012@ABU012@@Z
??4WriteOptions@kcc@krt@@QAEAAU012@$$QAU012@@Z
??4WriteOptions@kcc@krt@@QAEAAU012@ABU012@@Z
??_7IConfigDllLoader@kcc@krt@@6B@
??_7IConfigHandler@kcc@krt@@6B@
??_7IConfigService@kcc@krt@@6B@
??_7IKAuthorizationHandler@@6B@
??_7KABTestSettings@abtest@krt@@6B@
??_7KAppTranslators@krt@@6B@
??_7KCCBaseSettings@kcc@krt@@6B@
??_7KCacheMuiSource@@6B@
??_7KCacheSource@@6B@
??_7KConfigCenterSdkProxy@kcc@krt@@6B@
??_7KConfigsReader@krt@@6B@
??_7KCryptConfigsReader@krt@@6B@
??_7KLocale@locale@krt@@6B@
??_7KMuiSettings@krt@@6B@
??_7KTranslator@krt@@6B@
??_7KUWPCommonSettings@krt@@6B@
??_7KUWPSettings@krt@@6B@
??_FKTranslator@krt@@QAEXXZ
?BasicXORInstance@krt@@YAPBVKBasicXOR@1@XZ
?C@locale@krt@@YAPAVKLocale@12@XZ
?Decode@gpcrypt@krt@@YA_NABVQString@kso_qt@@AAVQByteArray@4@@Z
?Encode@gpcrypt@krt@@YA_NABVQString@kso_qt@@AAVQByteArray@4@@Z
?GetCpuInfo@sysinfo@krt@@YA_NAAHAAK@Z
?GetDiskInfo@sysinfo@krt@@YA_NAA_N@Z
?GetMemoryInfo@sysinfo@krt@@YA_NAAK@Z
?GetPerformLevel@sysinfo@krt@@YA_NAAH@Z
?IO@locale@krt@@YAPAVKLocale@12@XZ
?IsLoaded@gpcrypt@krt@@YA_NXZ
?IsPDFStandAloneVersion@product@krt@@YA_NXZ
?KRSAGenerateRSAKey@krsa_utils@krt@@YA_NAAV?$basic_string@DU?$char_traits@D@std@@V?$allocator@D@2@@std@@0@Z
?KRSASignFile@krsa_utils@krt@@YA_NABV?$basic_string@DU?$char_traits@D@std@@V?$allocator@D@2@@std@@0AAV34@@Z
?KRSAVerifyFile@krsa_utils@krt@@YA_NABV?$basic_string@DU?$char_traits@D@std@@V?$allocator@D@2@@std@@00@Z
?KXORInstance@krt@@YAPBVKXOR@1@XZ
?PDFData@dirs@krt@@YA?AVQString@kso_qt@@_N@Z
?PerfEnvGetLogFilePath@PerfProxy@@YAHPA_WH@Z
?PerfEnvInitImpl@PerfProxy@@YAXABV?$basic_string@_WU?$char_traits@_W@std@@V?$allocator@_W@2@@std@@@Z
?PerfEnvTermForce@PerfProxy@@YAXXZ
?PerfEnvTermImpl@PerfProxy@@YAXXZ
?PerfLogBegin2@PerfProxy@@YAXGPBD0PAG1@Z
?PerfLogBegin@PerfProxy@@YAXGGG@Z
?PerfLogEnd2@PerfProxy@@YAXGPBD0PAG1@Z
?PerfLogEnd@PerfProxy@@YAXGGG@Z
?PerfStubBegin@PerfProxy@@YAXPBDG@Z
?PerfStubEnd@PerfProxy@@YAXPBDG@Z
?PerfToolGetBeginPerfCount@PerfProxy@@YA_JXZ
?PerfToolSetUIStable@PerfProxy@@YAXXZ
?VerifyPasswd@gpcrypt@krt@@YA_NABVQString@kso_qt@@AAVQByteArray@4@@Z
?amazonSvr@serverinfo@krt@@YA?AVQString@kso_qt@@XZ
?app@dirs@krt@@YA?AVQString@kso_qt@@XZ
?appData@dirs@krt@@YA?AVQString@kso_qt@@_N@Z
?appDataPath@uwp@krt@@YA?AVQString@kso_qt@@_N@Z
?appName@krt@@YA?AVQString@kso_qt@@XZ
?appUniqueName@uwp@krt@@YA?AVQString@kso_qt@@XZ
?appendSubTrans@KTranslator@krt@@AAEXPAVQTranslator@kso_qt@@@Z
?appendTrans@KTranslator@krt@@QAEXABVQString@kso_qt@@ABVQStringList@4@@Z
?argc@KAppArguments@krt@@QAEAAHXZ
?argv@KAppArguments@krt@@QAEPAPADXZ
?array@KConfigsReader@krt@@UAE?AV?$QList@VQVariant@kso_qt@@@kso_qt@@ABVQString@4@0@Z
?array@KCryptConfigsReader@krt@@UAE?AV?$QList@VQVariant@kso_qt@@@kso_qt@@ABVQString@4@0@Z
?array@KProductConfigsReader@krt@@QAE?AV?$QList@VQVariant@kso_qt@@@kso_qt@@ABVQString@4@I@Z
?autoNomInfoSvr@serverinfo@krt@@YA?AVQString@kso_qt@@XZ
?backgroundHostExePath@dirs@krt@@YA?AVQString@kso_qt@@XZ
?backgroundHostName@dirs@krt@@YA?AVQString@kso_qt@@XZ
?backup@dirs@krt@@YA?AVQString@kso_qt@@XZ
?beginGroup@KCCBaseSettings@kcc@krt@@QAEXABVQString@kso_qt@@@Z
?buildCpuArch@info@krt@@YA?AVQString@kso_qt@@XZ
?buildId@info@krt@@YA?AVQString@kso_qt@@XZ
?cache@dirs@krt@@YA?AVQString@kso_qt@@XZ
?cibaSvr@serverinfo@krt@@YA?AVQString@kso_qt@@XZ
?clear@KAppArguments@krt@@QAEXXZ
?clear@cache@krt@@YAXXZ
?clear@krt@@YAXXZ
?clear@locale@krt@@YAXXZ
?clearService@kcc@krt@@YAXXZ
?collectDynEvent@infocollect@krt@@YAXW4DynType@12@ABVQString@kso_qt@@@Z
?collectEvent@infocollect@krt@@YAXABVQString@kso_qt@@00H0@Z
?collectEventEx@infocollect@krt@@YAXABVQString@kso_qt@@000ABV?$QHash@VQString@kso_qt@@V12@@4@H@Z
?collectExpEvent@infocollect@krt@@YAXABVQString@kso_qt@@0000H0@Z
?collectExpView@infocollect@krt@@YAXABVQString@kso_qt@@000@Z
?collectView@infocollect@krt@@YAXABVQString@kso_qt@@0@Z
?commonPerfix@kcc@krt@@YA?AVQString@kso_qt@@XZ
?compactLaunchExePath@dirs@krt@@YA?AVQString@kso_qt@@XZ
?companyVersionId@product@krt@@YAHXZ
?contains@KCCBaseSettings@kcc@krt@@QBE_NABVQString@kso_qt@@@Z
?copyFileTo@i18n@krt@@YA_NABVQString@kso_qt@@0@Z
?createDlg@auth@krt@@YAXXZ
?createLocale@locale@krt@@YAPAVKLocale@12@ABVQString@kso_qt@@@Z
?current@locale@krt@@YAPAVKLocale@12@XZ
?currentGroupPerfix@KCCBaseSettings@kcc@krt@@QBEABVQString@kso_qt@@XZ
?currentLCID@locale@krt@@YAIXZ
?currentLocale@locale@krt@@YA?AVQString@kso_qt@@XZ
?customAutoNomInfoSvr@serverinfo@krt@@YA?AVQString@kso_qt@@XZ
?customUpdateSvr@serverinfo@krt@@YA?AVQString@kso_qt@@XZ
?decimalPoint@KLocale@locale@krt@@QBE?AVQString@kso_qt@@XZ
?decimalPoint@locale@krt@@YA?AVQChar@kso_qt@@ABVQString@4@@Z
?decrypt@KDES@krt@@QAE_NABVQString@kso_qt@@AAVQByteArray@4@@Z
?defaultAuthTypeId@auth@krt@@YA?AW4AuthorizationType@@XZ
?defaultLCID@locale@krt@@YAIXZ
?defaultLangName@i18n@krt@@YA?AVQString@kso_qt@@XZ
?defaultLocale@locale@krt@@YA?AVQString@kso_qt@@XZ
?defautLanguage@i18n@krt@@YA?AVQString@kso_qt@@XZ
?dicts@dirs@krt@@YA?AVQString@kso_qt@@XZ
?displayLCID@i18n@krt@@YAI_N@Z
?distribNumber@product@krt@@YA?AVQString@kso_qt@@XZ
?dllPathName@KConfigCenterSdkProxy@kcc@krt@@MAE?AVQString@kso_qt@@XZ
?documents@dirs@krt@@YA?AVQString@kso_qt@@_N@Z
?downloadTemplates@dirs@krt@@YA?AVQString@kso_qt@@XZ
?dynamicSvr@serverinfo@krt@@YA?AVQString@kso_qt@@XZ
?encrypt@KDES@krt@@QAE_NABVQString@kso_qt@@AAVQByteArray@4@@Z
?endGroup@KCCBaseSettings@kcc@krt@@QAEXXZ
?extraDistSrc@info@krt@@YA?AVQString@kso_qt@@XZ
?fallbackKeys@KProductConfigsReader@krt@@AAE?AV?$QList@U?$QPair@VQString@kso_qt@@V12@@kso_qt@@@kso_qt@@ABVQString@4@I@Z
?flushRead@kcc@krt@@YA?AVQVariant@kso_qt@@ABVQString@4@ABV34@ABUReadOptions@12@@Z
?flushRemove@kcc@krt@@YA_NABVQString@kso_qt@@P6GX_N0ABVQVariant@4@ABV?$QMap@VQString@kso_qt@@VQVariant@2@@4@@Z3ABUWriteOptions@12@@Z
?flushWrite@kcc@krt@@YA_NABVQString@kso_qt@@ABVQVariant@4@P6GX_N01ABV?$QMap@VQString@kso_qt@@VQVariant@2@@4@@Z3ABUWriteOptions@12@@Z
?frameworks@dirs@krt@@YA?AVQString@kso_qt@@XZ
?g_perfToolEnabled@PerfProxy@@3_NC
?getAllMuiFilePaths@i18n@krt@@YA?AVQStringList@kso_qt@@ABVQString@4@@Z
?getAppEnv@krt@@YA?AVQVariant@kso_qt@@ABVQString@3@@Z
?getArray@configs@krt@@YA?AV?$QList@VQVariant@kso_qt@@@kso_qt@@ABVQString@4@I@Z
?getArray@l10n@krt@@YA?AV?$QList@VQVariant@kso_qt@@@kso_qt@@ABVQString@4@00@Z
?getBool@configs@krt@@YA_NABVQString@kso_qt@@I@Z
?getBool@l10n@krt@@YA_NABVQString@kso_qt@@00@Z
?getBool@product@krt@@YA_NABVQString@kso_qt@@@Z
?getBoolInfo@auth@krt@@YA_NABVQString@kso_qt@@@Z
?getCacertFilePath@configs@krt@@YA?AVQString@kso_qt@@XZ
?getDateTimeString@i18n@krt@@YA?AVQString@kso_qt@@ABVQDateTime@4@W4DateTimeFormat@12@@Z
?getDateTimeString@i18n@krt@@YA?AVQString@kso_qt@@_KW4DateTimeFormat@12@@Z
?getExtPluginPath@krt@@YA?AVQString@kso_qt@@ABV23@@Z
?getFallbackLangList@i18n@krt@@YA?AVQStringList@kso_qt@@ABV34@@Z
?getFilePath@i18n@krt@@YA?AVQString@kso_qt@@ABV34@0@Z
?getFilePaths@i18n@krt@@YA?AVQStringList@kso_qt@@ABVQString@4@00@Z
?getFilePaths@i18n@krt@@YA?AVQStringList@kso_qt@@ABVQString@4@0@Z
?getFuncRegSwitchState@product@krt@@YA_NABVQString@kso_qt@@_NABUKRTRegInfo@12@@Z
?getFuncSwitchState@product@krt@@YA_NABVQString@kso_qt@@_NABUKRTRegInfo@12@@Z
?getInfo@auth@krt@@YA?AVQVariant@kso_qt@@ABVQString@4@@Z
?getInstalledDays@product@krt@@YAHXZ
?getInt@configs@krt@@YAHABVQString@kso_qt@@I@Z
?getInt@l10n@krt@@YAHABVQString@kso_qt@@00@Z
?getInt@product@krt@@YAHABVQString@kso_qt@@@Z
?getIntInfo@auth@krt@@YAHABVQString@kso_qt@@@Z
?getIsPromeMode@krt@@YA_NXZ
?getKeyboard@locale@krt@@YA_NI@Z
?getLCID@KLocale@locale@krt@@UBEIW4KLocaleCategory@23@@Z
?getLibFileName@krt@@YA?AVQString@kso_qt@@ABV23@@Z
?getLocale@KLocale@locale@krt@@UBE?AVQString@kso_qt@@W4KLocaleCategory@23@@Z
?getLocale@locale@krt@@YA?AVQString@kso_qt@@W4KLocaleCategory@12@@Z
?getLongFilePath@i18n@krt@@YA?AVQString@kso_qt@@ABV34@0@Z
?getMuiFile@i18n@krt@@YA?AVQString@kso_qt@@ABV34@00@Z
?getMuiFiles@i18n@krt@@YA?AVQStringList@kso_qt@@ABVQString@4@00@Z
?getOfficeRootPath@PerfHelper@@YA?BV?$basic_string@_WU?$char_traits@_W@std@@V?$allocator@_W@2@@std@@XZ
?getParam@onlineparams@krt@@YA_NABVQString@kso_qt@@AAV34@@Z
?getParam_extra@onlineparams@krt@@YA_NABVQString@kso_qt@@0AAVQVariant@4@@Z
?getPlan@abtest@krt@@YAXABVQString@kso_qt@@AAVQVariant@4@@Z
?getPluginFrameworkPath@krt@@YA?AVQString@kso_qt@@ABV23@@Z
?getPluginPath2@krt@@YA?AVQString@kso_qt@@ABV23@@Z
?getPluginPath3@krt@@YA?AVQString@kso_qt@@ABV23@@Z
?getPluginPath4@krt@@YA?AVQString@kso_qt@@ABV23@@Z
?getPluginPath@krt@@YA?AVQString@kso_qt@@ABV23@@Z
?getPluginResourcePath@krt@@YA?AVQString@kso_qt@@ABV23@@Z
?getRawConfig@configs@krt@@YA?AVQString@kso_qt@@ABV34@@Z
?getString@configs@krt@@YA?AVQString@kso_qt@@ABV34@I@Z
?getString@l10n@krt@@YA?AVQString@kso_qt@@ABV34@00@Z
?getString@product@krt@@YA?AVQString@kso_qt@@ABV34@I@Z
?getStringInfo@auth@krt@@YA?AVQString@kso_qt@@ABV34@@Z
?getStringList@configs@krt@@YA?AVQStringList@kso_qt@@ABVQString@4@I@Z
?getStringList@product@krt@@YA?AVQStringList@kso_qt@@ABVQString@4@I@Z
?getStringListInfo@auth@krt@@YA?AVQStringList@kso_qt@@ABVQString@4@@Z
?getUInt@l10n@krt@@YAIABVQString@kso_qt@@00@Z
?getValue@configs@krt@@YA?AVQVariant@kso_qt@@ABVQString@4@I@Z
?getValue@l10n@krt@@YA?AVQVariant@kso_qt@@ABVQString@4@00@Z
?getWPSDriveDisplayName@product@krt@@YA?AVQString@kso_qt@@XZ
?getWPSDriveShortName@product@krt@@YA?AVQString@kso_qt@@XZ
?getWPSEnterpriseDriveDisplayName@product@krt@@YA?AVQString@kso_qt@@XZ
?getdcinfo@abtest@krt@@YA_NAAVQString@kso_qt@@@Z
?grouping@KLocale@locale@krt@@QBE?AVQString@kso_qt@@XZ
?guidSyncSvr@serverinfo@krt@@YA?AVQString@kso_qt@@XZ
?hasLibrary@krt@@YA_NABVQString@kso_qt@@@Z
?hasPlugin@krt@@YA_NABVQString@kso_qt@@AAV23@@Z
?hasUseSystemCa@product@krt@@YA_NXZ
?id@KCacheMuiSource@@UAEIXZ
?industryNumber@product@krt@@YA?AVQString@kso_qt@@XZ
?infoCollectSvr@serverinfo@krt@@YA?AVQString@kso_qt@@XZ
?infoCollectSvr_IC@serverinfo@krt@@YA?AVQString@kso_qt@@XZ
?infoCollectSvr_QING@serverinfo@krt@@YA?AVQString@kso_qt@@XZ
?init@KAppArguments@krt@@AAEXPB_W@Z
?init@KConfigCenterSdkProxy@kcc@krt@@QAEXABV?$QMap@VQString@kso_qt@@VQVariant@2@@kso_qt@@@Z
?init@krt@@YA_NABVQString@kso_qt@@000@Z
?init@locale@krt@@YA_NXZ
?initMuiResource@i18n@krt@@YA_NXZ
?initUwpEnvPath@uwp@krt@@YAXXZ
?installRoot@uwp@krt@@YA?AVQString@kso_qt@@XZ
?installTranslation@KAppTranslators@krt@@QAEXABVQString@kso_qt@@ABVQStringList@4@@Z
?installedLanguages@i18n@krt@@YA?AVQStringList@kso_qt@@XZ
?isAppStore@product@krt@@YA_NXZ
?isBetaVersion@product@krt@@YA_NXZ
?isCainfoVerifyPeer@product@krt@@YA_NXZ
?isChanged@KCacheMuiSource@@UAE_NXZ
?isClassicUI@product@krt@@YA_N_N@Z
?isCommunity@product@krt@@YA_NXZ
?isDisableGlobalInfocollect@product@krt@@YA_N_N@Z
?isDomestic@product@krt@@YA_NXZ
?isEducationVersion@product@krt@@YA_NXZ
?isEmpty@KTranslator@krt@@UBE_NXZ
?isEnabled@infocollect@krt@@YA_NW4EngineType@12@@Z
?isEnterprise@product@krt@@YA_NXZ
?isForeignUsers@product@krt@@YA_NXZ
?isHttpsSecurityBypass@product@krt@@YA_NXZ
?isIndependentMode@product@krt@@YA_N_N@Z
?isIndependentModeEx@product@krt@@YA_NXZ
?isInited@krt@@YA_NXZ
?isInstallPerUser@info@krt@@YA_NXZ
?isInstalled@KAppTranslators@krt@@QAE_NXZ
?isLinuxOverseasVersion@product@krt@@YA_NXZ
?isMacAutoTest@product@krt@@YA_NXZ
?isOverseasFullFeaturedProVersion@product@krt@@YA_NXZ
?isOverseasProductKeyPaidCheck@product@krt@@YA_NXZ
?isOverseasVersion@product@krt@@YA_NXZ
?isPatentGranted@product@krt@@YA_NABVQString@kso_qt@@@Z
?isPersonal@product@krt@@YA_NXZ
?isPluginConfiged@krt@@YA_NABVQString@kso_qt@@@Z
?isPluginLocalExist@krt@@YA_NABVQString@kso_qt@@@Z
?isPluginValid@krt@@YA_NABVQString@kso_qt@@@Z
?isPromeShelllessMode@product@krt@@YA_N_N@Z
?isReadonlyMode@product@krt@@YA_NXZ
?isReportAllInfoToDataWarehouse@product@krt@@YA_NXZ
?isShieldMode@product@krt@@YA_N_N@Z
?isSupportGDPRVersion@product@krt@@YA_NXZ
?isSupportRibbonScale@product@krt@@YA_NXZ
?isSupported@locale@krt@@YA_NABVQString@kso_qt@@@Z
?isSupported@product@krt@@YA_NABVQString@kso_qt@@@Z
?isThaiFeatureOpen@product@krt@@YA_NXZ
?isUseCJKScript@lang@krt@@YA_NI@Z
?isUwpProcess@uwp@krt@@YA_NXZ
?isUwpVersion@uwp@krt@@YA_NXZ
?isValid@KMuiSettings@krt@@QBE_NXZ
?isValid@KRTRegInfo@product@krt@@QBE_NXZ
?isValidLocale@locale@krt@@YA_NABVQString@kso_qt@@@Z
?isValidMeasurementUnit@KLocale@locale@krt@@IAE_NW4KMeasurementUnit@23@@Z
?isVldTurnedOn@krt@@YA_NXZ
?isWin10WpsDriveModeOn@product@krt@@YA_NPAVQString@kso_qt@@@Z
?isWpsCloudDiskExists@product@krt@@YA_NXZ
?kCachedTr@krt@@YAPB_WPBD00H@Z
?kCachedTrId@krt@@YAPB_WPBD@Z
?kCachedTrUtf8@krt@@YAPB_WPBD00H@Z
?keyboardLCID@locale@krt@@YAIXZ
?kingsoftData@dirs@krt@@YA?AVQString@kso_qt@@_N@Z
?kingsoftHome@dirs@krt@@YA?AVQString@kso_qt@@XZ
?ksoName@product@krt@@YA?AVQString@kso_qt@@XZ
?language@dirs@krt@@YA?AVQString@kso_qt@@ABV34@0@Z
?language@dirs@krt@@YA?AVQString@kso_qt@@ABV34@@Z
?language@i18n@krt@@YA?AVQString@kso_qt@@W4LangFormat@12@_N@Z
?languagePacksBuildNumber@i18n@krt@@YAIXZ
?languages@i18n@krt@@YA?AVQStringList@kso_qt@@W4LangFormat@12@_N@Z
?launchExePath@dirs@krt@@YA?AVQString@kso_qt@@XZ
?launchName@dirs@krt@@YA?AVQString@kso_qt@@XZ
?launchPath@dirs@krt@@YA?AVQString@kso_qt@@XZ
?lib@KConfigCenterSdkProxy@kcc@krt@@QAEAAVQLibrary@kso_qt@@XZ
?libraryPath@auth@krt@@YA?AVQString@kso_qt@@XZ
?loadDll@KConfigCenterSdkProxy@kcc@krt@@AAE_NXZ
?localKingsoftHome@dirs@krt@@YA?AVQString@kso_qt@@XZ
?localParamPath@onlineparams@krt@@YA?AVQString@kso_qt@@XZ
?localeMeasurementUnit2String@KLocale@locale@krt@@IAE?AVQStringView@kso_qt@@W4KMeasurementUnit@23@@Z
?longPath@dirs@krt@@YA?AVQString@kso_qt@@ABV34@@Z
?lowerVersion@info@krt@@YA?AVQString@kso_qt@@XZ
?measurementUnit@KLocale@locale@krt@@QAE?AW4KMeasurementUnit@23@XZ
?measurementUnit@locale@krt@@YA?AW4KMeasurementUnit@12@XZ
?mui@dirs@krt@@YA?AVQStringList@kso_qt@@XZ
?nameSeparator@lang@krt@@YADXZ
?nameSeparator@locale@krt@@YADXZ
?normalizedUnfoldKey@KCCBaseSettings@kcc@krt@@IBE?AVQString@kso_qt@@ABV45@@Z
?notifySvr@serverinfo@krt@@YA?AVQString@kso_qt@@XZ
?oemConfigFilePath@configs@krt@@YA?AVQString@kso_qt@@XZ
?oemLangName@i18n@krt@@YA?AVQString@kso_qt@@XZ
?officeConfigs@dirs@krt@@YA?AVQString@kso_qt@@XZ
?officeData@dirs@krt@@YA?AVQString@kso_qt@@_N@Z
?officeDataInDocuments@dirs@krt@@YA?AVQString@kso_qt@@_N@Z
?officeDataInKingsoftData@dirs@krt@@YA?AVQString@kso_qt@@_N@Z
?officeHome@dirs@krt@@YA?AVQString@kso_qt@@XZ
?officeInstallRoot@dirs@krt@@YA?AVQString@kso_qt@@XZ
?officeOemInfo@dirs@krt@@YA?AVQString@kso_qt@@XZ
?onlineLanguageMui@dirs@krt@@YA?AVQString@kso_qt@@XZ
?onlineParamPath@onlineparams@krt@@YA?AVQString@kso_qt@@XZ
?onlinePatent@onlineparams@krt@@YA_NABVQString@kso_qt@@AA_N@Z
?onlineSupport@onlineparams@krt@@YA_NABVQString@kso_qt@@AA_N@Z
?organization@krt@@YA?AVQString@kso_qt@@XZ
?osArch@info@krt@@YA?AVQString@kso_qt@@XZ
?osLocale@info@krt@@YA?AVQString@kso_qt@@XZ
?osName@info@krt@@YA?AVQString@kso_qt@@XZ
?osNameTemporary@info@krt@@YA?AVQString@kso_qt@@XZ
?osVersion@info@krt@@YA?AVQString@kso_qt@@XZ
?packageFullName@uwp@krt@@YA?AVQString@kso_qt@@XZ
?pid@krt@@YAHXZ
?platform@info@krt@@YA?AVQString@kso_qt@@XZ
?pluginPerfix@kcc@krt@@YA?AVQString@kso_qt@@XZ
?prehook@auth@krt@@YA_NABVQString@kso_qt@@ABVQVariant@4@AAV54@@Z
?prehook@auth@krt@@YA_NABVQString@kso_qt@@PAX1@Z
?prehook@auth@krt@@YA_NABVQString@kso_qt@@_NPAX@Z
?prependSubTrans@KTranslator@krt@@AAEXPAVQTranslator@kso_qt@@@Z
?productConfigFilePath@configs@krt@@YA?AVQString@kso_qt@@XZ
?productIdentifier@product@krt@@YA?AVQString@kso_qt@@XZ
?productName@krt@@YA?AVQString@kso_qt@@XZ
?productVersion@krt@@YA?AVQString@kso_qt@@XZ
?queryCommonRegValue@settings@krt@@YA?AVQVariant@kso_qt@@W4Scope@QSettings@4@ABVQString@4@ABV34@@Z
?queryString@settings@krt@@YA?AVQString@kso_qt@@ABV34@0_N@Z
?queryString@settings@krt@@YA?AVQString@kso_qt@@W4Scope@QSettings@4@ABV34@11@Z
?queryStringList@settings@krt@@YA?AVQStringList@kso_qt@@ABVQString@4@@Z
?queryValue@settings@krt@@YA?AVQVariant@kso_qt@@W4Scope@QSettings@4@ABVQString@4@1ABV34@@Z
?reInit@onlineparams@krt@@YAXXZ
?regKeyEscape@KCCBaseSettings@kcc@krt@@ABE?AVQString@kso_qt@@ABV45@@Z
?regionID@product@krt@@YAHXZ
?reinstallSvr@serverinfo@krt@@YA?AVQString@kso_qt@@XZ
?remove@KCCBaseSettings@kcc@krt@@UAEXABVQString@kso_qt@@_N@Z
?remove@kcc@krt@@YA_NABVQString@kso_qt@@ABUWriteOptions@12@@Z
?removeTrans@KTranslator@krt@@QAEXABVQString@kso_qt@@@Z
?reset@KAppTranslators@krt@@QAEXXZ
?resources@dirs@krt@@YA?AVQString@kso_qt@@XZ
?script@lang@krt@@YA?AVQString@kso_qt@@IABV34@@Z
?separator@dirs@krt@@YA?AVQChar@kso_qt@@XZ
?serverUrl@product@krt@@YA?AVQString@kso_qt@@ABV34@@Z
?service@kcc@krt@@YAPAUIConfigService@12@XZ
?sessionId@info@krt@@YA?AVQString@kso_qt@@XZ
?setAppEnv@krt@@YA_NABVQString@kso_qt@@ABVQVariant@3@@Z
?setAppName@krt@@YAXABVQString@kso_qt@@@Z
?setCurrent@locale@krt@@YA_NPAVKLocale@12@@Z
?setCurrentGroupPerfix@KCCBaseSettings@kcc@krt@@QAEXABVQString@kso_qt@@@Z
?setDecimalPoint@KLocale@locale@krt@@UAEXABVQString@kso_qt@@@Z
?setEnableRegKeyEscape@KCCBaseSettings@kcc@krt@@QAEX_N@Z
?setEnabled@infocollect@krt@@YAX_NW4EngineType@12@@Z
?setGrouping@KLocale@locale@krt@@UAEXABVQString@kso_qt@@@Z
?setIsPromeMode@krt@@YAX_N@Z
?setLocale@KLocale@locale@krt@@UAE_NW4KLocaleCategory@23@ABVQString@kso_qt@@@Z
?setLocale@locale@krt@@YA_NW4KLocaleCategory@12@ABVQString@kso_qt@@@Z
?setLocale@locale@krt@@YA_NW4KLocaleCategory@12@I@Z
?setMeasurementUnit@KLocale@locale@krt@@QAEXW4KMeasurementUnit@23@@Z
?setMeasurementUnit@locale@krt@@YAXW4KMeasurementUnit@12@@Z
?setPid@krt@@YAXH@Z
?setThousandsSeparator@KLocale@locale@krt@@UAEXABVQString@kso_qt@@@Z
?setValue@KCCBaseSettings@kcc@krt@@UAEXABVQString@kso_qt@@ABVQVariant@5@_N@Z
?setValue@cache@krt@@YA_NPAVKCacheSource@@ABVQString@kso_qt@@ABVQVariant@5@@Z
?setValue@kcc@krt@@YA_NABVQString@kso_qt@@ABVQVariant@4@ABUWriteOptions@12@@Z
?setValue@settings@krt@@YAXABVQString@kso_qt@@0_N@Z
?setValue@settings@krt@@YAXABVQString@kso_qt@@ABVQStringList@4@_N@Z
?setValue@settings@krt@@YAXW4Scope@QSettings@kso_qt@@ABVQString@5@1ABVQVariant@5@@Z
?setup@KAppTranslators@krt@@QAE_NABVQStringList@kso_qt@@@Z
?setupConfig@info@krt@@YA?AVQVariant@kso_qt@@VQString@4@@Z
?string2LocaleMeasurementUnit@KLocale@locale@krt@@IAE?AW4KMeasurementUnit@23@ABVQString@kso_qt@@@Z
?subVersionID@product@krt@@YAHXZ
?subVersionName@product@krt@@YA?AVQString@kso_qt@@XZ
?supportSecSvr@serverinfo@krt@@YA?AVQString@kso_qt@@XZ
?supportSvr@serverinfo@krt@@YA?AVQString@kso_qt@@XZ
?system@locale@krt@@YA?AVQString@kso_qt@@XZ
?systemDefault@locale@krt@@YA?AVQString@kso_qt@@XZ
?systemDefaultLCID@locale@krt@@YAIXZ
?systemLCID@locale@krt@@YAIXZ
?systemUiLanguages@i18n@krt@@YA?AVQStringList@kso_qt@@XZ
?templates@dirs@krt@@YA?AVQString@kso_qt@@ABV34@@Z
?templates@dirs@krt@@YA?AVQString@kso_qt@@XZ
?thousandsSeparator@KLocale@locale@krt@@QBE?AVQString@kso_qt@@XZ
?toDouble@locale@krt@@YANPBDPAPAD0@Z
?toDouble@locale@krt@@YANPB_WPAPA_W0@Z
?toLCID@lang@krt@@YAIABVQString@kso_qt@@I@Z
?toLCID@locale@krt@@YAIABVQString@kso_qt@@I@Z
?toLocaleName@locale@krt@@YA?AVQString@kso_qt@@IABV34@@Z
?toName@lang@krt@@YA?AVQString@kso_qt@@IABV34@@Z
?toNativeName@locale@krt@@YA?AVQString@kso_qt@@IABV34@@Z
?trId@i18n@krt@@YA?BVQString@kso_qt@@PBD@Z
?tranlator@KAppTranslators@krt@@QBEPAVKTranslator@2@ABVQString@kso_qt@@@Z
?translate@KTranslator@krt@@QBE?AVQString@kso_qt@@ABV34@@Z
?translate@KTranslator@krt@@UBE?AVQString@kso_qt@@PBD00H@Z
?translateHotKey@l10n@krt@@YA?AVQString@kso_qt@@ABV34@@Z
?translateShortcut@l10n@krt@@YA?AVQString@kso_qt@@ABV34@@Z
?uiLanguage@i18n@krt@@YA?AVQString@kso_qt@@_N@Z
?uiLanguages@i18n@krt@@YA?AVQStringList@kso_qt@@_N@Z
?uninstallTranslation@KAppTranslators@krt@@QAEXABVQString@kso_qt@@@Z
?updateMemoryParam@onlineparams@krt@@YAXXZ
?updatePluginPlg@krt@@YA_NXZ
?updateSecSvr@serverinfo@krt@@YA?AVQString@kso_qt@@XZ
?updateSvr@serverinfo@krt@@YA?AVQString@kso_qt@@XZ
?userDefault@locale@krt@@YA?AVQString@kso_qt@@XZ
?userDefaultLCID@locale@krt@@YAIXZ
?userLanguages@i18n@krt@@YA?AVQStringList@kso_qt@@_N@Z
?userSettingLanguage@i18n@krt@@YA?AVQString@kso_qt@@XZ
?userSettingLanguages@i18n@krt@@YA?AVQStringList@kso_qt@@XZ
?utility@dirs@krt@@YA?AVQString@kso_qt@@XZ
?uwpAppdata@uwp@krt@@YA?AVQString@kso_qt@@XZ
?uwpLocalAppdata@uwp@krt@@YA?AVQString@kso_qt@@XZ
?uwpimpPath@uwp@krt@@YA?AVQString@kso_qt@@XZ
?value@KCCBaseSettings@kcc@krt@@UBE?AVQVariant@kso_qt@@ABVQString@5@ABV45@_N@Z
?value@KConfigsReader@krt@@UAE?AVQVariant@kso_qt@@ABVQString@4@0@Z
?value@KCryptConfigsReader@krt@@UAE?AVQVariant@kso_qt@@ABVQString@4@0@Z
?value@KMuiSettings@krt@@QBE?AVQVariant@kso_qt@@ABVQString@4@ABV34@@Z
?value@KProductConfigsReader@krt@@QAE?AVQVariant@kso_qt@@ABVQString@4@I@Z
?value@cache@krt@@YA?AVQVariant@kso_qt@@PAVKCacheSource@@ABVQString@4@ABV34@@Z
?value@kcc@krt@@YA?AVQVariant@kso_qt@@ABVQString@4@ABV34@ABUReadOptions@12@@Z
?values@KMuiSettings@krt@@QBE?AV?$QList@VQVariant@kso_qt@@@kso_qt@@ABVQString@4@@Z
?version@info@krt@@YA?AVQString@kso_qt@@XZ
?versionID@product@krt@@YAHXZ
?versionName@product@krt@@YA?AVQString@kso_qt@@XZ
?winBuildVersion@info@krt@@YAIXZ
?winMajorVersion@info@krt@@YAIXZ
?winMinorVersion@info@krt@@YAIXZ
?wpsCloudPerfix@kcc@krt@@YA?AVQString@kso_qt@@XZ
?wtoolex@dirs@krt@@YA?AVQString@kso_qt@@XZ
