LIBRARY Krt.dll
EXPORTS
??0IKAuthorizationHandler@@QEAA@$$QEAV0@@Z
??0IKAuthorizationHandler@@QEAA@AEBV0@@Z
??0IKAuthorizationHandler@@QEAA@XZ
??0IKPaintCompSettings@kptenv@krt@@QEAA@$$QEAU012@@Z
??0IKPaintCompSettings@kptenv@krt@@QEAA@AEBU012@@Z
??0IKPaintCompSettings@kptenv@krt@@QEAA@XZ
??0IKPaintDeviceResetWatcher@kptenv@krt@@QEAA@$$QEAU012@@Z
??0IKPaintDeviceResetWatcher@kptenv@krt@@QEAA@AEBU012@@Z
??0IKPaintDeviceResetWatcher@kptenv@krt@@QEAA@XZ
??0IKPaintEnv@kptenv@krt@@QEAA@$$QEAU012@@Z
??0IKPaintEnv@kptenv@krt@@QEAA@AEBU012@@Z
??0IKPaintEnv@kptenv@krt@@QEAA@XZ
??0IPaintDeviceSettings@kptenv@krt@@QEAA@$$QEAU012@@Z
??0IPaintDeviceSettings@kptenv@krt@@QEAA@AEBU012@@Z
??0IPaintDeviceSettings@kptenv@krt@@QEAA@XZ
??0KABTestSettings@abtest@krt@@QEAA@XZ
??0KAPIINVOKEDSettings@krt@@QEAA@AEBVQString@kso_qt@@@Z
??0KAppArguments@krt@@QEAA@PEB_W@Z
??0KAppTranslators@krt@@QEAA@PEAVQObject@kso_qt@@@Z
??0KAppUserSettings@krt@@QEAA@W4Scope@QSettings@kso_qt@@@Z
??0KApplicationSettingsSettings@krt@@QEAA@W4Scope@QSettings@kso_qt@@@Z
??0KAtExit@krt@@QEAA@XZ
??0KBaseSettings@krt@@QEAA@W4Scope@QSettings@kso_qt@@@Z
??0KCCBaseSettings@kcc@krt@@QEAA@AEBV012@@Z
??0KCCBaseSettings@kcc@krt@@QEAA@_N@Z
??0KCacheSource@@QEAA@AEBV0@@Z
??0KCacheSource@@QEAA@XZ
??0KCommonSettings@krt@@QEAA@W4Scope@QSettings@kso_qt@@@Z
??0KConfigCenterSdkProxy@kcc@krt@@QEAA@AEBV012@@Z
??0KConfigCenterSdkProxy@kcc@krt@@QEAA@XZ
??0KConfigsReader@krt@@QEAA@AEBV01@@Z
??0KConfigsReader@krt@@QEAA@AEBVQString@kso_qt@@0@Z
??0KCryptConfigsReader@krt@@QEAA@AEBV01@@Z
??0KCryptConfigsReader@krt@@QEAA@AEBVQString@kso_qt@@0@Z
??0KEnvState@PerfProxy@@QEAA@PEBD0@Z
??0KHKSoftwareSettings@krt@@QEAA@W4HKEY@01@AEBVQString@kso_qt@@@Z
??0KLibrary@ksafe@krt@@QEAA@AEBVQString@kso_qt@@@Z
??0KLibrary@ksafe@krt@@QEAA@XZ
??0KLocale@locale@krt@@QEAA@AEBV012@@Z
??0KLocale@locale@krt@@QEAA@AEBVQString@kso_qt@@@Z
??0KMuiSettings@krt@@QEAA@AEBVQString@kso_qt@@0PEAVQObject@3@0@Z
??0KOfficeAppSettings@krt@@QEAA@W4Scope@QSettings@kso_qt@@@Z
??0KOfficePdfSettings@krt@@QEAA@W4Scope@QSettings@kso_qt@@@Z
??0KOfficeSettings@krt@@QEAA@XZ
??0KOfficeWpsSettings@krt@@QEAA@W4Scope@QSettings@kso_qt@@@Z
??0KPDFCommonSettings@krt@@QEAA@W4Scope@QSettings@kso_qt@@@Z
??0KPDFPluginsSettings@krt@@QEAA@W4Scope@QSettings@kso_qt@@@Z
??0KPDFSettings@krt@@QEAA@W4Scope@QSettings@kso_qt@@@Z
??0KPluginsSettings@krt@@QEAA@W4Scope@QSettings@kso_qt@@@Z
??0KQingSettings@krt@@QEAA@W4Scope@QSettings@kso_qt@@@Z
??0KRTRegInfo@product@krt@@QEAA@$$QEAU012@@Z
??0KRTRegInfo@product@krt@@QEAA@AEBU012@@Z
??0KRTRegInfo@product@krt@@QEAA@XZ
??0KSecdocSettings@krt@@QEAA@W4Scope@QSettings@kso_qt@@@Z
??0KTranslator@krt@@QEAA@PEAVQObject@kso_qt@@@Z
??0KUWPCommonSettings@krt@@QEAA@XZ
??0KUWPSettings@krt@@QEAA@XZ
??0KVersionSettings@krt@@QEAA@W4Scope@QSettings@kso_qt@@@Z
??0KWPSCloudSettings@krt@@QEAA@W4Scope@QSettings@kso_qt@@@Z
??0KWpsCloudSvrSettings@krt@@QEAA@W4Scope@QSettings@kso_qt@@@Z
??0SandboxScope@sandbox@krt@@QEAA@$$QEAV012@@Z
??0SandboxScope@sandbox@krt@@QEAA@W4Type@012@@Z
??0SandboxScope@sandbox@krt@@QEAA@XZ
??1KABTestSettings@abtest@krt@@UEAA@XZ
??1KAPIINVOKEDSettings@krt@@UEAA@XZ
??1KAppArguments@krt@@QEAA@XZ
??1KAppTranslators@krt@@UEAA@XZ
??1KAppUserSettings@krt@@UEAA@XZ
??1KApplicationSettingsSettings@krt@@UEAA@XZ
??1KAtExit@krt@@QEAA@XZ
??1KBaseSettings@krt@@UEAA@XZ
??1KCCBaseSettings@kcc@krt@@UEAA@XZ
??1KCacheSource@@UEAA@XZ
??1KCommonSettings@krt@@UEAA@XZ
??1KConfigCenterSdkProxy@kcc@krt@@UEAA@XZ
??1KConfigsReader@krt@@UEAA@XZ
??1KCryptConfigsReader@krt@@UEAA@XZ
??1KHKSoftwareSettings@krt@@UEAA@XZ
??1KLibrary@ksafe@krt@@QEAA@XZ
??1KLocale@locale@krt@@UEAA@XZ
??1KMuiSettings@krt@@UEAA@XZ
??1KOfficeAppSettings@krt@@UEAA@XZ
??1KOfficePdfSettings@krt@@UEAA@XZ
??1KOfficeSettings@krt@@UEAA@XZ
??1KOfficeWpsSettings@krt@@UEAA@XZ
??1KPDFCommonSettings@krt@@UEAA@XZ
??1KPDFPluginsSettings@krt@@UEAA@XZ
??1KPDFSettings@krt@@UEAA@XZ
??1KPluginsSettings@krt@@UEAA@XZ
??1KQingSettings@krt@@UEAA@XZ
??1KRTRegInfo@product@krt@@QEAA@XZ
??1KSecdocSettings@krt@@UEAA@XZ
??1KTranslator@krt@@UEAA@XZ
??1KUWPCommonSettings@krt@@UEAA@XZ
??1KUWPSettings@krt@@UEAA@XZ
??1KVersionSettings@krt@@UEAA@XZ
??1KWPSCloudSettings@krt@@UEAA@XZ
??1KWpsCloudSvrSettings@krt@@UEAA@XZ
??1SandboxScope@sandbox@krt@@QEAA@XZ
??4IKAuthorizationHandler@@QEAAAEAV0@$$QEAV0@@Z
??4IKAuthorizationHandler@@QEAAAEAV0@AEBV0@@Z
??4IKPaintCompSettings@kptenv@krt@@QEAAAEAU012@$$QEAU012@@Z
??4IKPaintCompSettings@kptenv@krt@@QEAAAEAU012@AEBU012@@Z
??4IKPaintDeviceResetWatcher@kptenv@krt@@QEAAAEAU012@$$QEAU012@@Z
??4IKPaintDeviceResetWatcher@kptenv@krt@@QEAAAEAU012@AEBU012@@Z
??4IKPaintEnv@kptenv@krt@@QEAAAEAU012@$$QEAU012@@Z
??4IKPaintEnv@kptenv@krt@@QEAAAEAU012@AEBU012@@Z
??4IPaintDeviceSettings@kptenv@krt@@QEAAAEAU012@$$QEAU012@@Z
??4IPaintDeviceSettings@kptenv@krt@@QEAAAEAU012@AEBU012@@Z
??4KAppArguments@krt@@QEAAAEAV01@AEBV01@@Z
??4KCCBaseSettings@kcc@krt@@QEAAAEAV012@AEBV012@@Z
??4KCacheSource@@QEAAAEAV0@AEBV0@@Z
??4KConfigCenterSdkProxy@kcc@krt@@QEAAAEAV012@AEBV012@@Z
??4KConfigsReader@krt@@QEAAAEAV01@AEBV01@@Z
??4KCryptConfigsReader@krt@@QEAAAEAV01@AEBV01@@Z
??4KDES@krt@@QEAAAEAV01@$$QEAV01@@Z
??4KDES@krt@@QEAAAEAV01@AEBV01@@Z
??4KEnvState@PerfProxy@@QEAAAEAV01@$$QEAV01@@Z
??4KEnvState@PerfProxy@@QEAAAEAV01@AEBV01@@Z
??4KLocale@locale@krt@@QEAAAEAV012@AEBV012@@Z
??4KRTRegInfo@product@krt@@QEAAAEAU012@$$QEAU012@@Z
??4KRTRegInfo@product@krt@@QEAAAEAU012@AEBU012@@Z
??4SandboxScope@sandbox@krt@@QEAAAEAV012@$$QEAV012@@Z
??_7IKAuthorizationHandler@@6B@
??_7IKPaintCompSettings@kptenv@krt@@6B@
??_7IKPaintDeviceResetWatcher@kptenv@krt@@6B@
??_7IKPaintEnv@kptenv@krt@@6B@
??_7IPaintDeviceSettings@kptenv@krt@@6B@
??_7KABTestSettings@abtest@krt@@6B@
??_7KAPIINVOKEDSettings@krt@@6B@
??_7KAppTranslators@krt@@6B@
??_7KAppUserSettings@krt@@6B@
??_7KApplicationSettingsSettings@krt@@6B@
??_7KBaseSettings@krt@@6B@
??_7KCCBaseSettings@kcc@krt@@6B@
??_7KCacheSource@@6B@
??_7KCommonSettings@krt@@6B@
??_7KConfigCenterSdkProxy@kcc@krt@@6B@
??_7KConfigsReader@krt@@6B@
??_7KCryptConfigsReader@krt@@6B@
??_7KHKSoftwareSettings@krt@@6B@
??_7KLocale@locale@krt@@6B@
??_7KMuiSettings@krt@@6B@
??_7KOfficeAppSettings@krt@@6B@
??_7KOfficePdfSettings@krt@@6B@
??_7KOfficeSettings@krt@@6B@
??_7KOfficeWpsSettings@krt@@6B@
??_7KPDFCommonSettings@krt@@6B@
??_7KPDFPluginsSettings@krt@@6B@
??_7KPDFSettings@krt@@6B@
??_7KPluginsSettings@krt@@6B@
??_7KQingSettings@krt@@6B@
??_7KSecdocSettings@krt@@6B@
??_7KTranslator@krt@@6B@
??_7KUWPCommonSettings@krt@@6B@
??_7KUWPSettings@krt@@6B@
??_7KVersionSettings@krt@@6B@
??_7KWPSCloudSettings@krt@@6B@
??_7KWpsCloudSvrSettings@krt@@6B@
??_FKAppUserSettings@krt@@QEAAXXZ
??_FKApplicationSettingsSettings@krt@@QEAAXXZ
??_FKBaseSettings@krt@@QEAAXXZ
??_FKCCBaseSettings@kcc@krt@@QEAAXXZ
??_FKCommonSettings@krt@@QEAAXXZ
??_FKOfficeAppSettings@krt@@QEAAXXZ
??_FKOfficePdfSettings@krt@@QEAAXXZ
??_FKOfficeWpsSettings@krt@@QEAAXXZ
??_FKPDFCommonSettings@krt@@QEAAXXZ
??_FKPDFPluginsSettings@krt@@QEAAXXZ
??_FKPDFSettings@krt@@QEAAXXZ
??_FKPluginsSettings@krt@@QEAAXXZ
??_FKQingSettings@krt@@QEAAXXZ
??_FKSecdocSettings@krt@@QEAAXXZ
??_FKTranslator@krt@@QEAAXXZ
??_FKVersionSettings@krt@@QEAAXXZ
??_FKWPSCloudSettings@krt@@QEAAXXZ
??_FKWpsCloudSvrSettings@krt@@QEAAXXZ
?Aes128Decrypt@kcodec@krt@@YA_NQEAEPEAX1I@Z
?Aes128EcbPkcs5paddingDecrypt@kcodec@krt@@YA_NQEAEPEAX1IPEAI@Z
?Aes128EcbPkcs5paddingEncrypt@kcodec@krt@@YA_NQEAEPEAX1I@Z
?Aes128Encrypt@kcodec@krt@@YA_NQEAEPEAX1I@Z
?Aes256Decrypt@kcodec@krt@@YA_NQEAEPEAX1I@Z
?Aes256EcbPkcs5paddingDecrypt@kcodec@krt@@YA_NQEAEPEAX1IPEAI@Z
?Aes256EcbPkcs5paddingEncrypt@kcodec@krt@@YA_NQEAEPEAX1I@Z
?Aes256Encrypt@kcodec@krt@@YA_NQEAEPEAX1I@Z
?BASE64Decode@kcodec@krt@@YAIPEBDIPEAE@Z
?BASE64DecodeWString@kcodec@krt@@YA?AV?$basic_string@_WU?$char_traits@_W@std@@V?$allocator@_W@2@@std@@PEB_W@Z
?BASE64DecodeWStringUTF8@kcodec@krt@@YA?AV?$basic_string@_WU?$char_traits@_W@std@@V?$allocator@_W@2@@std@@AEBV34@@Z
?BASE64Encode@kcodec@krt@@YAIPEBEIPEAD@Z
?BASE64EncodeString@kcodec@krt@@YA?AV?$basic_string@DU?$char_traits@D@std@@V?$allocator@D@2@@std@@AEBV34@@Z
?BASE64EncodeStringW@kcodec@krt@@YA?AV?$basic_string@_WU?$char_traits@_W@std@@V?$allocator@_W@2@@std@@PEBD@Z
?BASE64EncodeWString@kcodec@krt@@YA?AV?$basic_string@_WU?$char_traits@_W@std@@V?$allocator@_W@2@@std@@PEB_W@Z
?BASE64EncodeWStringUTF8@kcodec@krt@@YA?AV?$basic_string@_WU?$char_traits@_W@std@@V?$allocator@_W@2@@std@@AEBV34@@Z
?BASE64GetDecodedSize@kcodec@krt@@YAII@Z
?BASE64GetEncodedSize@kcodec@krt@@YAII@Z
?C@locale@krt@@YAPEAVKLocale@12@XZ
?CryptFileHash@kcodec@krt@@YA?AV?$basic_string@DU?$char_traits@D@std@@V?$allocator@D@2@@std@@AEBV?$basic_string@_WU?$char_traits@_W@std@@V?$allocator@_W@2@@4@I@Z
?Decode@gpcrypt@krt@@YA_NAEBVQString@kso_qt@@AEAVQByteArray@4@@Z
?Encode@gpcrypt@krt@@YA_NAEBVQString@kso_qt@@AEAVQByteArray@4@@Z
?Execute@KProcess@ksafe@krt@@YA_NAEBVQString@kso_qt@@AEBVQStringList@5@@Z
?ExecuteAndGetRes@KProcess@ksafe@krt@@YA_NAEBVQString@kso_qt@@AEBVQStringList@5@AEAH@Z
?GetAesEncryptResultLen@kcodec@krt@@YAII@Z
?GetAllVerifiedFile@KProcess@ksafe@krt@@YA_NAEAV?$map@VQString@kso_qt@@V12@U?$less@VQString@kso_qt@@@std@@V?$allocator@U?$pair@$$CBVQString@kso_qt@@V12@@std@@@4@@std@@AEAVQString@kso_qt@@@Z
?GetCpuInfo@sysinfo@krt@@YA_NAEAHAEAK@Z
?GetDiskInfo@sysinfo@krt@@YA_NAEA_N@Z
?GetMemoryInfo@sysinfo@krt@@YA_NAEAK@Z
?GetPerformLevel@sysinfo@krt@@YA_NAEAH@Z
?GetVBELaunchLanguageId@kde@krt@@YAJXZ
?Hash128@ks_spooky_hash@@YAXPEBX_KPEA_K2@Z
?Hash128@spooky_hash@kcodec@krt@@YAXPEBX_KPEA_K2@Z
?IO@locale@krt@@YAPEAVKLocale@12@XZ
?IsLoaded@gpcrypt@krt@@YA_NXZ
?IsPdfIntranetAuth@product@krt@@YA_NXZ
?IsProcessElevated@KProcess@ksafe@krt@@YA_NXZ
?KCreateProcessAsUserW@kunsafe@krt@@YAHPEAXPEB_WPEA_WPEAU_SECURITY_ATTRIBUTES@@3HK01PEAU_STARTUPINFOW@@PEAU_PROCESS_INFORMATION@@@Z
?KCreateProcessW@kunsafe@krt@@YAHPEB_WPEA_WPEAU_SECURITY_ATTRIBUTES@@2HKPEAX0PEAU_STARTUPINFOW@@PEAU_PROCESS_INFORMATION@@@Z
?KRSAGenerateRSAKey@kcodec@krt@@YA_NAEAV?$basic_string@DU?$char_traits@D@std@@V?$allocator@D@2@@std@@0@Z
?KRSASignFile@kcodec@krt@@YA_NAEBV?$basic_string@DU?$char_traits@D@std@@V?$allocator@D@2@@std@@0AEAV34@@Z
?KRSAVerifyFile@kcodec@krt@@YA_NAEBV?$basic_string@DU?$char_traits@D@std@@V?$allocator@D@2@@std@@00@Z
?KShellExecuteExW@kunsafe@krt@@YAHPEAU_SHELLEXECUTEINFOW@@@Z
?KShellExecuteW@kunsafe@krt@@YAPEAUHINSTANCE__@@PEAUHWND__@@PEB_W111H@Z
?KXORInstance@krt@@YAPEBVKXOR@1@XZ
?MD5Calc@kcodec@krt@@YA_NPEBXPEBDH@Z
?MD5CalcFileRetWchar@kcodec@krt@@YA_NPEB_WPEA_W@Z
?MD5CalcRetWchar@kcodec@krt@@YA_NPEBDPEA_WH@Z
?MD5Destory@kcodec@krt@@YAXAEAPEAX@Z
?MD5GetResult@kcodec@krt@@YA_NPEBXPEAE@Z
?MD5Init@kcodec@krt@@YAXAEAPEAX@Z
?MD5Total@kcodec@krt@@YA_NPEBDHPEAE@Z
?OpenKsoCmdUri@KProcess@ksafe@krt@@YA_NAEBVQString@kso_qt@@@Z
?PDFData@dirs@krt@@YA?AVQString@kso_qt@@_N@Z
?PerfAddToStrTable@PerfProxy@@YAGPEBD@Z
?PerfEnvGetLogFilePath@PerfProxy@@YAHPEA_WH@Z
?PerfEnvInitImpl@PerfProxy@@YAXAEBV?$basic_string@_WU?$char_traits@_W@std@@V?$allocator@_W@2@@std@@@Z
?PerfEnvTermForce@PerfProxy@@YAXXZ
?PerfEnvTermImpl@PerfProxy@@YAXXZ
?PerfLogBegin2@PerfProxy@@YAXGPEBD0PEAG1@Z
?PerfLogBegin@PerfProxy@@YAXGGG@Z
?PerfLogEnd2@PerfProxy@@YAXGPEBD0PEAG1@Z
?PerfLogEnd@PerfProxy@@YAXGGG@Z
?PerfStubBegin@PerfProxy@@YAXPEBDG@Z
?PerfStubEnd@PerfProxy@@YAXPEBDG@Z
?PerfToolGetBeginPerfCount@PerfProxy@@YA_JXZ
?PerfToolSetUIStable@PerfProxy@@YAXXZ
?SHA1Hex@kcodec@krt@@YA_NPEBXIPEAD@Z
?SHA1Total@kcodec@krt@@YA_NPEBXIPEAE@Z
?StartDetach@KProcess@ksafe@krt@@YA_NAEBVQString@kso_qt@@@Z
?StartDetach@KProcess@ksafe@krt@@YA_NAEBVQString@kso_qt@@AEBVQStringList@5@0PEA_J@Z
?StartDetachedUacPrompt@KProcess@ksafe@krt@@YA_NAEBVQString@kso_qt@@AEBVQStringList@5@00PEA_J@Z
?VBE6Installed@kde@krt@@YA_NPEA_W_K01@Z
?VBE71Installed@kde@krt@@YA_NPEA_W_K@Z
?VBEInstalled@kde@krt@@YA_NXZ
?VBEInstalledCrossArch@kde@krt@@YA_NXZ
?VerifyPasswd@gpcrypt@krt@@YA_NAEBVQString@kso_qt@@AEAVQByteArray@4@@Z
?_ClsidInFilterList@krt@@YA_NU_GUID@@_N@Z
?_MHT_ExtInFilterList@krt@@YA_NAEBVQString@kso_qt@@_N1@Z
?_OLE_ClsidInFilterList@krt@@YA_NU_GUID@@_N11@Z
?_OLE_ExtInFilterList@krt@@YA_NAEBV?$basic_string@_WU?$char_traits@_W@std@@V?$allocator@_W@2@@std@@_N1@Z
?_OLE_NeedToQuery@krt@@YA_NXZ
?_XCreateKProcessLockInstance@@YAPEAUIKProcessLockInstance@@PEBD@Z
?_format@KBaseSettings@krt@@IEBA?AW4Format@QSettings@kso_qt@@XZ
?_organizationName@KBaseSettings@krt@@IEBA?AVQString@kso_qt@@XZ
?_productName@KBaseSettings@krt@@IEBA?AVQString@kso_qt@@XZ
?_productVersion@KBaseSettings@krt@@IEBA?AVQString@kso_qt@@XZ
?_root@KHKSoftwareSettings@krt@@AEAA?AVQString@kso_qt@@W4HKEY@12@@Z
?addWatch@kbizconfigcenter@krt@@YA_NAEBUEntWatchInfo@kentcloudconfig@2@@Z
?addWatch@kentcloudconfig@krt@@YA_NAEBUEntWatchInfo@12@@Z
?addWatch@kentrycontrol@krt@@YA_NAEBUEntryControlInfo@@_N@Z
?amazonSvr@serverinfo@krt@@YA?AVQString@kso_qt@@XZ
?app@dirs@krt@@YA?AVQString@kso_qt@@XZ
?appData@dirs@krt@@YA?AVQString@kso_qt@@_N@Z
?appDataPath@uwp@krt@@YA?AVQString@kso_qt@@_N@Z
?appName@krt@@YAAEBVQString@kso_qt@@XZ
?appUniqueName@uwp@krt@@YA?AVQString@kso_qt@@XZ
?appendTrans@KTranslator@krt@@QEAAXAEBVQString@kso_qt@@AEBVQStringList@4@@Z
?argc@KAppArguments@krt@@QEAAAEAHXZ
?argv@KAppArguments@krt@@QEAAPEAPEADXZ
?array@KConfigsReader@krt@@UEAA?AV?$QList@VQVariant@kso_qt@@@kso_qt@@AEBVQString@4@0@Z
?array@KCryptConfigsReader@krt@@UEAA?AV?$QList@VQVariant@kso_qt@@@kso_qt@@AEBVQString@4@0@Z
?authorize@priv@krt@@YA_NAEBUAuthParam@12@$$QEAV?$BindObjectCallback@AEBUAuthorizeResult@priv@krt@@@kbinding@@@Z
?autoNomInfoSvr@serverinfo@krt@@YA?AVQString@kso_qt@@XZ
?backgroundHostExePath@dirs@krt@@YA?AVQString@kso_qt@@XZ
?backgroundHostName@dirs@krt@@YA?AVQString@kso_qt@@XZ
?backup@dirs@krt@@YA?AVQString@kso_qt@@XZ
?backupPath@KBackupCenterHelper@@YA?AVQString@kso_qt@@XZ
?beginGroup@KCCBaseSettings@kcc@krt@@QEAAXAEBVQString@kso_qt@@@Z
?boolValue@kcmc@krt@@YA_NAEBVQString@kso_qt@@0PEA_N@Z
?boolValue@kcmc@krt@@YA_NPEBD0PEA_N@Z
?brandLogoString@product@krt@@YA?AVQString@kso_qt@@AEBV34@@Z
?buildCpuArch@info@krt@@YA?AVQString@kso_qt@@XZ
?buildId@info@krt@@YA?AVQString@kso_qt@@XZ
?bundlePath@dirs@krt@@YA?AVQString@kso_qt@@XZ
?cache@dirs@krt@@YA?AVQString@kso_qt@@XZ
?checkApplicationSafe@KProcess@ksafe@krt@@YA_NAEBVQString@kso_qt@@@Z
?checkIsHeiMaPlugin@product@krt@@YA_NXZ
?checkLocalFileSafe@KProcess@ksafe@krt@@YA_NAEBVQString@kso_qt@@@Z
?checkPEFile@ksafe@krt@@YA_NAEBVQString@kso_qt@@@Z
?checkPEFile@ksafe@krt@@YA_NPEBX_K@Z
?checkUrl@KProcess@ksafe@krt@@YA_NAEBVQString@kso_qt@@@Z
?checksum32_safe@checksum@krt@@YAIPEBE_K@Z
?cibaSvr@serverinfo@krt@@YA?AVQString@kso_qt@@XZ
?clear@KAppArguments@krt@@QEAAXXZ
?clear@cache@krt@@YAXXZ
?clear@krt@@YAXXZ
?clear@locale@krt@@YAXXZ
?clearService@kcc@krt@@YAXXZ
?clearTranslationCache@i18n@krt@@YAXXZ
?collectDynEvent@infocollect@krt@@YAXW4DynType@12@AEBVQString@kso_qt@@@Z
?collectEvent@infocollect@krt@@YAXAEBVQString@kso_qt@@00H0@Z
?collectEventEx@infocollect@krt@@YAXAEBVQString@kso_qt@@000AEBV?$QHash@VQString@kso_qt@@V12@@4@H@Z
?collectExpEvent@infocollect@krt@@YAXAEBVQString@kso_qt@@0000H0@Z
?collectExpView@infocollect@krt@@YAXAEBVQString@kso_qt@@000@Z
?collectView@infocollect@krt@@YAXAEBVQString@kso_qt@@0@Z
?commonPerfix@kcc@krt@@YA?AVQString@kso_qt@@XZ
?compactLaunchExePath@dirs@krt@@YA?AVQString@kso_qt@@XZ
?companyVersionId@product@krt@@YAHXZ
?componentType@krt@@YA?AW4KComponentType@1@XZ
?contains@KCCBaseSettings@kcc@krt@@QEBA_NAEBVQString@kso_qt@@@Z
?copyFileTo@i18n@krt@@YA_NAEBVQString@kso_qt@@0@Z
?crashState@krt@@YAAEBV?$map@V?$basic_string@DU?$char_traits@D@std@@V?$allocator@D@2@@std@@V12@U?$less@V?$basic_string@DU?$char_traits@D@std@@V?$allocator@D@2@@std@@@2@V?$allocator@U?$pair@$$CBV?$basic_string@DU?$char_traits@D@std@@V?$allocator@D@2@@std@@V12@@std@@@2@@std@@XZ
?createDlg@auth@krt@@YAXXZ
?createLocale@locale@krt@@YAPEAVKLocale@12@AEBVQString@kso_qt@@@Z
?createWidget@promotion@krt@@YA_NAEBUCampaignParam@12@$$QEAV?$BindObjectCallback@AEBUCreateWidgetResult@promotion@krt@@@kbinding@@@Z
?current@locale@krt@@YAPEAVKLocale@12@XZ
?currentGroupPerfix@KCCBaseSettings@kcc@krt@@QEBAAEBVQString@kso_qt@@XZ
?currentLCID@locale@krt@@YAIXZ
?currentLocale@locale@krt@@YA?AVQString@kso_qt@@XZ
?customAutoNomInfoSvr@serverinfo@krt@@YA?AVQString@kso_qt@@XZ
?customUpdateSvr@serverinfo@krt@@YA?AVQString@kso_qt@@XZ
?decimalPoint@KLocale@locale@krt@@QEBA?AVQString@kso_qt@@XZ
?decimalPoint@locale@krt@@YA?AVQChar@kso_qt@@AEBVQString@4@@Z
?decodeBackupFileName@KBackupCenterHelper@@YA_NAEBVQString@kso_qt@@AEAUBKFileInfo_tag@1@@Z
?decrypt@KDES@krt@@QEAA_NAEBVQString@kso_qt@@AEAVQByteArray@4@@Z
?defaultAuthTypeId@auth@krt@@YA?AW4AuthorizationType@@XZ
?defaultBackupPath@KBackupCenterHelper@@YA?AVQString@kso_qt@@XZ
?defaultLCID@locale@krt@@YAIXZ
?defaultLangName@i18n@krt@@YA?AVQString@kso_qt@@XZ
?defaultLocale@locale@krt@@YA?AVQString@kso_qt@@XZ
?defautLanguage@i18n@krt@@YA?AVQString@kso_qt@@XZ
?devicePixelRatio@krt@@YANXZ
?dicts@dirs@krt@@YA?AVQString@kso_qt@@XZ
?displayLCID@i18n@krt@@YAI_N@Z
?distribNumber@product@krt@@YA?AVQString@kso_qt@@XZ
?dllPathName@KConfigCenterSdkProxy@kcc@krt@@MEAA?AVQString@kso_qt@@XZ
?docsDefaultPath@dirs@krt@@YA?AVQString@kso_qt@@XZ
?documents@dirs@krt@@YA?AVQString@kso_qt@@_N@Z
?downloadTemplates@dirs@krt@@YA?AVQString@kso_qt@@XZ
?dpiScaled@krt@@YANXZ
?dpiScaledValue@krt@@YANN@Z
?dynamicSvr@serverinfo@krt@@YA?AVQString@kso_qt@@XZ
?enable@kcmc@krt@@YA_NAEBVQString@kso_qt@@@Z
?enable@kcmc@krt@@YA_NAEBVQStringView@kso_qt@@@Z
?enable@kcmc@krt@@YA_NPEBD@Z
?enableBackup@KBackupCenterHelper@@YA_NXZ
?enableFileSecurityCheck@KProcess@ksafe@krt@@YA_NXZ
?enableTimeBackup@KBackupCenterHelper@@YA_NXZ
?encrypt@KDES@krt@@QEAA_NAEBVQString@kso_qt@@AEAVQByteArray@4@@Z
?endGroup@KCCBaseSettings@kcc@krt@@QEAAXXZ
?exploreTo@ksafe@krt@@YA_NAEBVQString@kso_qt@@_N@Z
?extraDistSrc@info@krt@@YA?AVQString@kso_qt@@XZ
?fileName@KLibrary@ksafe@krt@@QEBA?AVQString@kso_qt@@XZ
?filter@kcmc@krt@@YA_NPEBD@Z
?flushRead@kcc@krt@@YA?AVQVariant@kso_qt@@AEBVQString@4@AEBV34@AEBUReadOptions@12@@Z
?flushRemove@kcc@krt@@YA_NAEBVQString@kso_qt@@P6AX_N0AEBVQVariant@4@AEBV?$QMap@VQString@kso_qt@@VQVariant@2@@4@@Z3AEBUWriteOptions@12@@Z
?flushWrite@kcc@krt@@YA_NAEBVQString@kso_qt@@AEBVQVariant@4@P6AX_N01AEBV?$QMap@VQString@kso_qt@@VQVariant@2@@4@@Z3AEBUWriteOptions@12@@Z
?frameworks@dirs@krt@@YA?AVQString@kso_qt@@AEBV34@PEAX@Z
?fromNSHomePath@path@krt@@YA?AVQString@kso_qt@@AEBV34@@Z
?g_perfToolEnabled@PerfProxy@@3_NC
?getAllMuiFilePaths@i18n@krt@@YA?AVQStringList@kso_qt@@AEBVQString@4@@Z
?getAppEnv@krt@@YA?AVQVariant@kso_qt@@AEBVQString@3@@Z
?getArray@configs@krt@@YA?AV?$QList@VQVariant@kso_qt@@@kso_qt@@AEBVQString@4@I@Z
?getArray@l10n@krt@@YA?AV?$QList@VQVariant@kso_qt@@@kso_qt@@AEBVQString@4@00@Z
?getAutoBackupSaveSuffix@KBackupCenterHelper@@YA?AVQString@kso_qt@@AEBV23@@Z
?getBackupMode@KBackupCenterHelper@@YA?AW4BackupMode@1@XZ
?getBool@configs@krt@@YA_NAEBVQString@kso_qt@@I@Z
?getBool@l10n@krt@@YA_NAEBVQString@kso_qt@@00@Z
?getBool@product@krt@@YA_NAEBVQString@kso_qt@@@Z
?getBoolInfo@auth@krt@@YA_NAEBVQString@kso_qt@@@Z
?getBoolValue@kbizconfigcenter@krt@@YA_NAEBVQString@kso_qt@@_N@Z
?getCacertFilePath@configs@krt@@YA?AVQString@kso_qt@@XZ
?getConfigValid@kcmc@krt@@YAXPEA_N00PEADH@Z
?getConfigValue@product@krt@@YA?AVQVariant@kso_qt@@AEBVQString@4@@Z
?getDateTimeString@i18n@krt@@YA?AVQString@kso_qt@@AEBVQDateTime@4@W4DateTimeFormat@12@@Z
?getDateTimeString@i18n@krt@@YA?AVQString@kso_qt@@_KW4DateTimeFormat@12@@Z
?getExeFileName@dirs@krt@@YA?AVQString@kso_qt@@AEBV34@@Z
?getExtPluginPath@krt@@YA?AVQString@kso_qt@@AEBV23@@Z
?getFallbackLangList@i18n@krt@@YA?AVQStringList@kso_qt@@AEBV34@@Z
?getFilePath@i18n@krt@@YA?AVQString@kso_qt@@AEBV34@0@Z
?getFilePaths@i18n@krt@@YA?AVQStringList@kso_qt@@AEBVQString@4@00@Z
?getFilePaths@i18n@krt@@YA?AVQStringList@kso_qt@@AEBVQString@4@0@Z
?getFuncRegSwitchState@product@krt@@YA_NAEBVQString@kso_qt@@_NAEBUKRTRegInfo@12@@Z
?getFuncSwitchState@product@krt@@YA_NAEBVQString@kso_qt@@_NAEBUKRTRegInfo@12@@Z
?getInfo@auth@krt@@YA?AVQVariant@kso_qt@@AEBVQString@4@@Z
?getInstalledDays@product@krt@@YAHXZ
?getInt@configs@krt@@YAHAEBVQString@kso_qt@@I@Z
?getInt@l10n@krt@@YAHAEBVQString@kso_qt@@00@Z
?getInt@product@krt@@YAHAEBVQString@kso_qt@@@Z
?getIntInfo@auth@krt@@YAHAEBVQString@kso_qt@@@Z
?getIntValue@kbizconfigcenter@krt@@YAHAEBVQString@kso_qt@@H@Z
?getIsPromeMode@krt@@YA_NXZ
?getKeyboard@locale@krt@@YA_NI@Z
?getLCID@KLocale@locale@krt@@UEBAIW4KLocaleCategory@23@@Z
?getLibFileName@krt@@YA?AVQString@kso_qt@@AEBV23@@Z
?getLibRelativePath@dirs@krt@@YA?AVQString@kso_qt@@AEBV34@0@Z
?getLocalDomainHost@kdms@krt@@YA?AVQString@kso_qt@@AEBV34@0@Z
?getLocalDomainUrl@kdms@krt@@YA?AVQString@kso_qt@@AEBV34@0@Z
?getLocale@KLocale@locale@krt@@UEBA?AVQString@kso_qt@@W4KLocaleCategory@23@@Z
?getLocale@locale@krt@@YA?AVQString@kso_qt@@W4KLocaleCategory@12@@Z
?getLongFilePath@i18n@krt@@YA?AVQString@kso_qt@@AEBV34@0@Z
?getModuleName@dirs@krt@@YA?AVQString@kso_qt@@PEAX@Z
?getMuiFile@i18n@krt@@YA?AVQString@kso_qt@@AEBV34@00@Z
?getMuiFiles@i18n@krt@@YA?AVQStringList@kso_qt@@AEBVQString@4@00@Z
?getOemIniValid@configs@krt@@YAXAEA_N0AEAV?$QMap@VQString@kso_qt@@V12@@kso_qt@@@Z
?getOfficeRootPath@PerfHelper@@YA?BV?$basic_string@_WU?$char_traits@_W@std@@V?$allocator@_W@2@@std@@XZ
?getParam@onlineparams@krt@@YA_NAEBVQString@kso_qt@@AEAV34@@Z
?getParam_extra@onlineparams@krt@@YA_NAEBVQString@kso_qt@@0AEAVQVariant@4@@Z
?getPathFlattening@dirs@krt@@YA?AVQString@kso_qt@@AEBV34@@Z
?getPlan@abtest@krt@@YAXAEBVQString@kso_qt@@AEAVQVariant@4@@Z
?getPluginFrameworkPath@krt@@YA?AVQString@kso_qt@@AEBV23@@Z
?getPluginPath2@krt@@YA?AVQString@kso_qt@@AEBV23@@Z
?getPluginPath3@krt@@YA?AVQString@kso_qt@@AEBV23@@Z
?getPluginPath4@krt@@YA?AVQString@kso_qt@@AEBV23@@Z
?getPluginPath@krt@@YA?AVQString@kso_qt@@AEBV23@@Z
?getPluginPath@pluginconfig@krt@@YA?AVQString@kso_qt@@AEBV34@0@Z
?getPluginResinOnlineLangMui@pluginconfig@krt@@YA?AVQString@kso_qt@@AEBV34@@Z
?getPluginResourcePath@krt@@YA?AVQString@kso_qt@@AEBV23@@Z
?getPluginResourcePath@pluginconfig@krt@@YA?AVQString@kso_qt@@AEBV34@0@Z
?getPrivateUsage@krt@@YA_KXZ
?getProductDatValid@configs@krt@@YA_NXZ
?getRawConfig@configs@krt@@YA?AVQString@kso_qt@@AEBV34@@Z
?getSecretFolderBackupMarkStr@KBackupCenterHelper@@YA?AVQString@kso_qt@@XZ
?getString@configs@krt@@YA?AVQString@kso_qt@@AEBV34@I@Z
?getString@l10n@krt@@YA?AVQString@kso_qt@@AEBV34@00@Z
?getString@product@krt@@YA?AVQString@kso_qt@@AEBV34@I@Z
?getStringInfo@auth@krt@@YA?AVQString@kso_qt@@AEBV34@@Z
?getStringList@configs@krt@@YA?AVQStringList@kso_qt@@AEBVQString@4@I@Z
?getStringList@product@krt@@YA?AVQStringList@kso_qt@@AEBVQString@4@I@Z
?getStringListInfo@auth@krt@@YA?AVQStringList@kso_qt@@AEBVQString@4@@Z
?getStringValue@kbizconfigcenter@krt@@YA?AVQString@kso_qt@@AEBV34@0@Z
?getSupportInternationalLanguages@i18n@krt@@YA?AVQStringList@kso_qt@@XZ
?getUInt@l10n@krt@@YAIAEBVQString@kso_qt@@00@Z
?getUrlFromOemConfig@kdms@krt@@YA?AVQString@kso_qt@@AEBV34@@Z
?getValue@configs@krt@@YA?AVQVariant@kso_qt@@AEBVQString@4@I@Z
?getValue@kbizconfigcenter@krt@@YA?AVQVariant@kso_qt@@AEBVQString@4@@Z
?getValue@kentcloudconfig@krt@@YA?AVQVariant@kso_qt@@AEBVQString@4@@Z
?getValue@l10n@krt@@YA?AVQVariant@kso_qt@@AEBVQString@4@00@Z
?getWPSDriveDisplayName@product@krt@@YA?AVQString@kso_qt@@XZ
?getWPSDriveShortName@product@krt@@YA?AVQString@kso_qt@@XZ
?getWPSEnterpriseDriveDisplayName@product@krt@@YA?AVQString@kso_qt@@XZ
?get_cur_kpaint_env@kptenv@krt@@YAPEAUIKPaintEnv@12@XZ
?getdcinfo@abtest@krt@@YA_NAEAVQString@kso_qt@@@Z
?grouping@KLocale@locale@krt@@QEBA?AVQString@kso_qt@@XZ
?guidSyncSvr@serverinfo@krt@@YA?AVQString@kso_qt@@XZ
?handle@KLibrary@ksafe@krt@@QEBAPEAXXZ
?hasLibrary@krt@@YA_NAEBVQString@kso_qt@@@Z
?hasPlugin@krt@@YA_NAEBVQString@kso_qt@@AEAV23@@Z
?hasPlugin@pluginconfig@krt@@YA_NAEBVQString@kso_qt@@AEAV34@0@Z
?hasUseSystemCa@product@krt@@YA_NXZ
?inBlackDownloadDir@dirs@krt@@YA_NAEBVQString@kso_qt@@@Z
?inJsAddonsDir@dirs@krt@@YA_NAEBVQString@kso_qt@@@Z
?inPluginDownloadDir@dirs@krt@@YA_NAEBVQString@kso_qt@@@Z
?industryNumber@product@krt@@YA?AVQString@kso_qt@@XZ
?infoCollectSvr@serverinfo@krt@@YA?AVQString@kso_qt@@XZ
?infoCollectSvr_IC@serverinfo@krt@@YA?AVQString@kso_qt@@XZ
?init@KAppArguments@krt@@AEAAXPEB_W@Z
?init@KConfigCenterSdkProxy@kcc@krt@@QEAAXAEBV?$QMap@VQString@kso_qt@@VQVariant@2@@kso_qt@@@Z
?init@kentcloudconfig@krt@@YAXAEBVQString@kso_qt@@@Z
?init@kentrycontrol@krt@@YA_NAEBVQString@kso_qt@@@Z
?init@krt@@YA_NAEBVQString@kso_qt@@000@Z
?init@locale@krt@@YA_N_N@Z
?initMuiResource@i18n@krt@@YA_NXZ
?initUwpEnvPath@uwp@krt@@YAXXZ
?installOnly@KTranslator@krt@@QEAAXAEBVQString@kso_qt@@@Z
?installPluginTranslation@KAppTranslators@krt@@QEAAXAEBVQString@kso_qt@@AEBVQStringList@4@PEAX@Z
?installRoot@uwp@krt@@YA?AVQString@kso_qt@@XZ
?installTranslation@KAppTranslators@krt@@QEAAXAEBVQString@kso_qt@@AEBVQStringList@4@0@Z
?installedLanguages@i18n@krt@@YA?AVQStringList@kso_qt@@_N@Z
?intValue@kcmc@krt@@YAHAEBVQString@kso_qt@@0PEA_N@Z
?intValue@kcmc@krt@@YAHPEBD0PEA_N@Z
?internationalUi@i18n@krt@@YA_N_N@Z
?isAppStore@product@krt@@YA_NXZ
?isBackupFileName@KBackupCenterHelper@@YA_NAEBVQString@kso_qt@@@Z
?isCainfoVerifyPeer@product@krt@@YA_NXZ
?isCefSandboxEnable@sandbox@krt@@YA_NXZ
?isClassicUI@product@krt@@YA_N_N@Z
?isDeveloperChannel@product@krt@@YA_NXZ
?isDisableGlobalInfocollect@product@krt@@YA_N_N@Z
?isDisableJSIDE@product@krt@@YA_NXZ
?isEnableMultiLang@product@krt@@YA_NXZ
?isEnabled@infocollect@krt@@YA_NW4EngineType@12@@Z
?isEntryNeedHide@kentrycontrol@krt@@YA_NAEBVQString@kso_qt@@@Z
?isFileFormatSafe@dirs@krt@@YA_NAEBVQString@kso_qt@@@Z
?isForeignUsers@product@krt@@YA_NXZ
?isGBOfficial@product@krt@@YA_NXZ
?isGJBOfficial@product@krt@@YA_NXZ
?isHttpsSecurityBypass@product@krt@@YA_NXZ
?isIndependentMode@product@krt@@YA_N_N@Z
?isIndependentModeEx@product@krt@@YA_NXZ
?isInited@krt@@YA_NXZ
?isInstallPerUser@info@krt@@YA_NXZ
?isInstalled@KAppTranslators@krt@@QEBA_NXZ
?isLinuxOverseasVersion@product@krt@@YA_NXZ
?isLoaded@KLibrary@ksafe@krt@@QEBA_NXZ
?isMacAutoTest@product@krt@@YA_NXZ
?isMobileMode@krt@@YA_NXZ
?isNeedAdjustLayout@KMultiLang@krt@@YA_NXZ
?isOfficialVersion@product@krt@@YA_NXZ
?isOhosAutoTest@product@krt@@YA_NXZ
?isOverseasFullFeaturedProVersion@product@krt@@YA_NXZ
?isPatentGranted@product@krt@@YA_NAEBVQString@kso_qt@@@Z
?isPcModeOnPhone@krt@@YA_NXZ
?isPluginConfiged@krt@@YA_NAEBVQString@kso_qt@@@Z
?isPluginConfiged@pluginconfig@krt@@YA_NAEBVQString@kso_qt@@0@Z
?isPluginLocalExist@krt@@YA_NAEBVQString@kso_qt@@@Z
?isPromeShelllessMode@product@krt@@YA_N_N@Z
?isReportAllInfoToDataWarehouse@product@krt@@YA_NXZ
?isSandboxEnable@sandbox@krt@@YA_NXZ
?isSecretFolderBackupFile@KBackupCenterHelper@@YA_NAEBVQString@kso_qt@@@Z
?isShieldMode@product@krt@@YA_N_N@Z
?isSupportGDPRVersion@product@krt@@YA_NXZ
?isSupportInnerMailClient@product@krt@@YA_NXZ
?isSupportRibbonAdaptive@product@krt@@YA_NXZ
?isSupported@kbizconfigcenter@krt@@YA_NAEBVQString@kso_qt@@@Z
?isSupported@locale@krt@@YA_NAEBVQString@kso_qt@@@Z
?isSupported@product@krt@@YA_NAEBVQString@kso_qt@@@Z
?isThaiFeatureOpen@product@krt@@YA_NXZ
?isUseCJKScript@lang@krt@@YA_NI@Z
?isUwpProcess@uwp@krt@@YA_NXZ
?isUwpVersion@uwp@krt@@YA_NXZ
?isValid@KMuiSettings@krt@@QEBA_NXZ
?isValid@KRTRegInfo@product@krt@@QEBA_NXZ
?isValidLocale@locale@krt@@YA_NAEBVQString@kso_qt@@@Z
?isValidMeasurementUnit@KLocale@locale@krt@@IEAA_NW4KMeasurementUnit@23@@Z
?isValidPath@dirs@krt@@YA_NAEBVQString@kso_qt@@@Z
?isVldTurnedOn@krt@@YA_NXZ
?isWin10WpsDriveModeOn@product@krt@@YA_NPEAVQString@kso_qt@@@Z
?isWpsCloudDiskExists@product@krt@@YA_NXZ
?kCachedTr@krt@@YAPEB_WPEBD00H@Z
?kCachedTrId@krt@@YAPEB_WPEBD@Z
?kCachedTrUtf8@krt@@YAPEB_WPEBD00H@Z
?k_AIConfigSection@kentcloudconfig@krt@@3QEBDEB
?k_AIConfigSyncStatus@kentcloudconfig@krt@@3QEBDEB
?k_supportSection@kentcloudconfig@krt@@3QEBDEB
?keyboardLCID@locale@krt@@YAIXZ
?kingsoftData@dirs@krt@@YA?AVQString@kso_qt@@_N@Z
?kingsoftHome@dirs@krt@@YA?AVQString@kso_qt@@XZ
?ksoName@product@krt@@YA?AVQString@kso_qt@@XZ
?language@dirs@krt@@YA?AVQString@kso_qt@@AEBV34@0@Z
?language@dirs@krt@@YA?AVQString@kso_qt@@AEBV34@@Z
?language@i18n@krt@@YA?AVQString@kso_qt@@W4LangFormat@12@_N@Z
?languagePacksBuildNumber@i18n@krt@@YAIXZ
?languages@i18n@krt@@YA?AVQStringList@kso_qt@@W4LangFormat@12@_N@Z
?latestInterceptInfo@sandbox@krt@@YA?AUSandboxInterceptInfo@@XZ
?launchExePath@dirs@krt@@YA?AVQString@kso_qt@@XZ
?launchName@dirs@krt@@YA?AVQString@kso_qt@@XZ
?launchPath@dirs@krt@@YA?AVQString@kso_qt@@XZ
?lib@KConfigCenterSdkProxy@kcc@krt@@QEAAAEAVQLibrary@kso_qt@@XZ
?libraryPath@auth@krt@@YA?AVQString@kso_qt@@XZ
?loadDll@KConfigCenterSdkProxy@kcc@krt@@AEAA_NXZ
?loadFramework@KLibrary@ksafe@krt@@QEAA_NXZ
?loadHints@KLibrary@ksafe@krt@@QEBA?AV?$QFlags@W4LoadHint@KLibrary@ksafe@krt@@@kso_qt@@XZ
?loadPlugin@KLibrary@ksafe@krt@@QEAA_NXZ
?loadPluginModule@krt@@YAPEAXAEBVQString@kso_qt@@0@Z
?loadSystem@KLibrary@ksafe@krt@@QEAA_NXZ
?localKingsoftHome@dirs@krt@@YA?AVQString@kso_qt@@XZ
?localParamPath@onlineparams@krt@@YA?AVQString@kso_qt@@XZ
?localeMeasurementUnit2String@KLocale@locale@krt@@IEAA?AVQStringView@kso_qt@@W4KMeasurementUnit@23@@Z
?logicalDpiX@krt@@YANXZ
?logicalDpiY@krt@@YANXZ
?longPath@dirs@krt@@YA?AVQString@kso_qt@@AEBV34@@Z
?lowerVersion@info@krt@@YA?AVQString@kso_qt@@XZ
?measurementUnit@KLocale@locale@krt@@QEAA?AW4KMeasurementUnit@23@XZ
?measurementUnit@locale@krt@@YA?AW4KMeasurementUnit@12@XZ
?moduleDirPath@dirs@krt@@YA?AVQString@kso_qt@@AEBV34@@Z
?mui@dirs@krt@@YA?AVQStringList@kso_qt@@XZ
?nameSeparator@lang@krt@@YADXZ
?nameSeparator@locale@krt@@YADXZ
?normalizedUnfoldKey@KCCBaseSettings@kcc@krt@@IEBA?AVQString@kso_qt@@AEBV45@@Z
?notifySvr@serverinfo@krt@@YA?AVQString@kso_qt@@XZ
?oemConfigFilePath@configs@krt@@YA?AVQString@kso_qt@@XZ
?oemLangName@i18n@krt@@YA?AVQString@kso_qt@@XZ
?officeConfigs@dirs@krt@@YA?AVQString@kso_qt@@XZ
?officeData@dirs@krt@@YA?AVQString@kso_qt@@_N@Z
?officeDataInDocuments@dirs@krt@@YA?AVQString@kso_qt@@_N@Z
?officeDataInKingsoftData@dirs@krt@@YA?AVQString@kso_qt@@_N@Z
?officeHome@dirs@krt@@YA?AVQString@kso_qt@@XZ
?officeInstallRoot@dirs@krt@@YA?AVQString@kso_qt@@XZ
?officeOemInfo@dirs@krt@@YA?AVQString@kso_qt@@XZ
?onlineLanguageMui@dirs@krt@@YA?AVQString@kso_qt@@XZ
?onlineParamPath@onlineparams@krt@@YA?AVQString@kso_qt@@XZ
?onlinePatent@onlineparams@krt@@YA_NAEBVQString@kso_qt@@AEA_N@Z
?onlineSupport@onlineparams@krt@@YA_NAEBVQString@kso_qt@@AEA_N@Z
?organization@krt@@YAAEBVQString@kso_qt@@XZ
?osArch@info@krt@@YA?AVQString@kso_qt@@XZ
?osLocale@info@krt@@YA?AVQString@kso_qt@@XZ
?osName@info@krt@@YA?AVQString@kso_qt@@XZ
?osNameTemporary@info@krt@@YA?AVQString@kso_qt@@XZ
?osVersion@info@krt@@YA?AVQString@kso_qt@@XZ
?packageFullName@uwp@krt@@YA?AVQString@kso_qt@@XZ
?pid@krt@@YAHXZ
?platform@info@krt@@YA?AVQString@kso_qt@@XZ
?pluginMuiPath@dirs@krt@@YA?AVQStringList@kso_qt@@AEBVQString@4@PEAX@Z
?pluginMuiinOnlineLang@dirs@krt@@YA?AVQString@kso_qt@@AEBV34@@Z
?pluginPerfix@kcc@krt@@YA?AVQString@kso_qt@@XZ
?pluginResourceDirPath@dirs@krt@@YA?AVQString@kso_qt@@PEAXAEBV34@@Z
?prehook@auth@krt@@YA_NAEBVQString@kso_qt@@AEBVQVariant@4@AEAV54@@Z
?prehook@auth@krt@@YA_NAEBVQString@kso_qt@@PEAX1@Z
?prehook@auth@krt@@YA_NAEBVQString@kso_qt@@_NPEAX@Z
?privResHandlerGetter@krt@@YAPEAUIKHandlerGetter@KPrivilegeResource@@XZ
?process@KAtExit@krt@@CAXAEAV?$list@UCleanUpTask@KAtExit@krt@@V?$allocator@UCleanUpTask@KAtExit@krt@@@std@@@std@@AEA_N@Z
?processBeforeExit@KAtExit@krt@@SAXXZ
?productConfigFilePath@configs@krt@@YA?AVQString@kso_qt@@XZ
?productIdentifier@product@krt@@YA?AVQString@kso_qt@@XZ
?productName@krt@@YAAEBVQString@kso_qt@@XZ
?productVersion@krt@@YAAEBVQString@kso_qt@@XZ
?purchase@priv@krt@@YA_NAEBUPurchaseParam@12@@Z
?query@addinsettings@krt@@YA_NAEBVQString@kso_qt@@0@Z
?queryCommonRegValue@settings@krt@@YA?AVQVariant@kso_qt@@W4Scope@QSettings@4@AEBVQString@4@AEBV34@@Z
?queryString@settings@krt@@YA?AVQString@kso_qt@@AEBV34@0_N@Z
?queryString@settings@krt@@YA?AVQString@kso_qt@@W4Scope@QSettings@4@AEBV34@11_N@Z
?queryStringList@settings@krt@@YA?AVQStringList@kso_qt@@AEBVQString@4@@Z
?queryValue@settings@krt@@YA?AVQVariant@kso_qt@@W4Scope@QSettings@4@AEBVQString@4@1AEBV34@_N@Z
?reInit@onlineparams@krt@@YAXXZ
?refreshCustomConfigReader@configs@krt@@YAXXZ
?refreshDomainConfig@kdms@krt@@YAXAEBVQString@kso_qt@@AEBVQByteArray@4@@Z
?regKeyEscape@KCCBaseSettings@kcc@krt@@AEBA?AVQString@kso_qt@@AEBV45@@Z
?regionID@product@krt@@YAHXZ
?registerAtExit@KAtExit@krt@@SAXV?$function@$$A6AXXZ@std@@@Z
?registerBeforeExit@KAtExit@krt@@SAXV?$function@$$A6AXXZ@std@@PEAX@Z
?reinstallSvr@serverinfo@krt@@YA?AVQString@kso_qt@@XZ
?remove@KCCBaseSettings@kcc@krt@@UEAAXAEBVQString@kso_qt@@_N@Z
?remove@addinsettings@krt@@YAXAEBVQString@kso_qt@@@Z
?remove@kcc@krt@@YA_NAEBVQString@kso_qt@@AEBUWriteOptions@12@@Z
?removeTrans@KTranslator@krt@@QEAAXAEBVQString@kso_qt@@@Z
?removeWatch@kentrycontrol@krt@@YA_NAEBUEntryControlInfo@@@Z
?reset@KAppTranslators@krt@@QEAAXXZ
?resolve@KLibrary@ksafe@krt@@QEAAP6AXXZPEBD@Z
?resources@dirs@krt@@YA?AVQString@kso_qt@@AEBV34@PEAX@Z
?screenGeometry@krt@@YAAEBVQRect@kso_qt@@XZ
?script@lang@krt@@YA?AVQString@kso_qt@@IAEBV34@@Z
?separator@dirs@krt@@YA?AVQChar@kso_qt@@XZ
?serverUrl@product@krt@@YA?AVQString@kso_qt@@AEBV34@@Z
?service@kcc@krt@@YAPEAUIConfigService@12@XZ
?sessionId@info@krt@@YA?AVQString@kso_qt@@XZ
?setAllowCreateRiskComObject@sandbox@krt@@YAX_N@Z
?setAllowStartProcess@sandbox@krt@@YAX_N@Z
?setAllowWriteProcessMemory@sandbox@krt@@YAX_N@Z
?setAllowWriteProgramFile@sandbox@krt@@YAX_N@Z
?setAppEnv@krt@@YA_NAEBVQString@kso_qt@@AEBVQVariant@3@@Z
?setAppName@krt@@YAXAEBVQString@kso_qt@@@Z
?setBackupMode@KBackupCenterHelper@@YAXW4BackupMode@1@@Z
?setBackupPath@KBackupCenterHelper@@YAXAEBVQString@kso_qt@@@Z
?setConfigPath@kcmc@krt@@YAXAEBVQString@kso_qt@@0@Z
?setCrashState@krt@@YAXAEBV?$basic_string@DU?$char_traits@D@std@@V?$allocator@D@2@@std@@0@Z
?setCurrent@locale@krt@@YA_NPEAVKLocale@12@@Z
?setCurrentGroupPerfix@KCCBaseSettings@kcc@krt@@QEAAXAEBVQString@kso_qt@@@Z
?setDecimalPoint@KLocale@locale@krt@@UEAAXAEBVQString@kso_qt@@@Z
?setDeviceInfo@krt@@YAXNNNNAEBVQRect@kso_qt@@@Z
?setEnableBackup@KBackupCenterHelper@@YAX_N@Z
?setEnableRegKeyEscape@KCCBaseSettings@kcc@krt@@QEAAX_N@Z
?setEnableTimeBackup@KBackupCenterHelper@@YAX_N@Z
?setEnabled@infocollect@krt@@YAX_NW4EngineType@12@@Z
?setEntCloudConfigPath@kcmc@krt@@YAXAEBVQString@kso_qt@@@Z
?setFileName@KLibrary@ksafe@krt@@QEAAXAEBVQString@kso_qt@@@Z
?setFlush@KCCBaseSettings@kcc@krt@@QEAAX_N@Z
?setGrouping@KLocale@locale@krt@@UEAAXAEBVQString@kso_qt@@@Z
?setIsPromeMode@krt@@YAX_N@Z
?setLoadHints@KLibrary@ksafe@krt@@QEAAXV?$QFlags@W4LoadHint@KLibrary@ksafe@krt@@@kso_qt@@@Z
?setLocale@KLocale@locale@krt@@UEAA_NW4KLocaleCategory@23@AEBVQString@kso_qt@@@Z
?setLocale@locale@krt@@YA_NW4KLocaleCategory@12@AEBVQString@kso_qt@@@Z
?setLocale@locale@krt@@YA_NW4KLocaleCategory@12@I@Z
?setMeasurementUnit@KLocale@locale@krt@@QEAAXW4KMeasurementUnit@23@@Z
?setMeasurementUnit@locale@krt@@YAXW4KMeasurementUnit@12@@Z
?setMobileMode@krt@@YAX_N@Z
?setPid@krt@@YAXH@Z
?setPrivateUsage@krt@@YAX_K@Z
?setThousandsSeparator@KLocale@locale@krt@@UEAAXAEBVQString@kso_qt@@@Z
?setTimeBackupInterval@KBackupCenterHelper@@YAXH@Z
?setValue@KCCBaseSettings@kcc@krt@@UEAAXAEBVQString@kso_qt@@AEBVQVariant@5@_N@Z
?setValue@addinsettings@krt@@YAXAEBVQString@kso_qt@@00@Z
?setValue@cache@krt@@YA_NPEAVKCacheSource@@AEBVQString@kso_qt@@AEBVQVariant@5@@Z
?setValue@kcc@krt@@YA_NAEBVQString@kso_qt@@AEBVQVariant@4@AEBUWriteOptions@12@@Z
?setValue@settings@krt@@YAXAEBVQString@kso_qt@@0_N@Z
?setValue@settings@krt@@YAXAEBVQString@kso_qt@@AEBVQStringList@4@_N@Z
?setValue@settings@krt@@YAXW4Scope@QSettings@kso_qt@@AEBVQString@5@1AEBVQVariant@5@@Z
?set_kpaint_env@kptenv@krt@@YAXPEAUIKPaintEnv@12@@Z
?setting@sandbox@krt@@YAPEBUSandboxSetting@@XZ
?setup@KAppTranslators@krt@@QEAA_NAEBVQStringList@kso_qt@@_N@Z
?setupConfig@info@krt@@YA?AVQVariant@kso_qt@@VQString@4@@Z
?showDialog@promotion@krt@@YA_NAEBUCampaignParam@12@$$QEAV?$BindObjectCallback@AEBUShowDialogResult@promotion@krt@@@kbinding@@@Z
?string2LocaleMeasurementUnit@KLocale@locale@krt@@IEAA?AW4KMeasurementUnit@23@AEBVQString@kso_qt@@@Z
?subVersionID@product@krt@@YAHXZ
?subVersionName@product@krt@@YA?AVQString@kso_qt@@XZ
?subscribeSafeCheckNotify@KProcess@ksafe@krt@@YAPEAXP6AXPEBXW4SafeCheckType@123@_NAEBVQString@kso_qt@@@Z0@Z
?support@kcmc@krt@@YA_NAEBVQString@kso_qt@@@Z
?support@kcmc@krt@@YA_NAEBVQStringView@kso_qt@@@Z
?support@kcmc@krt@@YA_NPEBD@Z
?supportSecSvr@serverinfo@krt@@YA?AVQString@kso_qt@@XZ
?supportSvr@serverinfo@krt@@YA?AVQString@kso_qt@@XZ
?system@locale@krt@@YA?AVQString@kso_qt@@XZ
?systemDefault@locale@krt@@YA?AVQString@kso_qt@@XZ
?systemDefaultLCID@locale@krt@@YAIXZ
?systemLCID@locale@krt@@YAIXZ
?systemUiLanguages@i18n@krt@@YA?AVQStringList@kso_qt@@XZ
?templates@dirs@krt@@YA?AVQString@kso_qt@@AEBV34@@Z
?templates@dirs@krt@@YA?AVQString@kso_qt@@XZ
?thousandsSeparator@KLocale@locale@krt@@QEBA?AVQString@kso_qt@@XZ
?timeBackupInterval@KBackupCenterHelper@@YAIXZ
?toDouble@locale@krt@@YANPEBDPEAPEAD0@Z
?toDouble@locale@krt@@YANPEB_WPEAPEA_W0@Z
?toLCID@lang@krt@@YAIAEBVQString@kso_qt@@I@Z
?toLCID@locale@krt@@YAIAEBVQString@kso_qt@@I@Z
?toLocaleName@locale@krt@@YA?AVQString@kso_qt@@IAEBV34@@Z
?toNSHomePath@path@krt@@YA?AVQString@kso_qt@@AEBV34@@Z
?toName@lang@krt@@YA?AVQString@kso_qt@@IAEBV34@@Z
?toNativeName@locale@krt@@YA?AVQString@kso_qt@@IAEBV34@@Z
?trId@i18n@krt@@YA?BVQString@kso_qt@@PEBD@Z
?tranlator@KAppTranslators@krt@@QEBAPEAVKTranslator@2@AEBVQString@kso_qt@@@Z
?translateHotKey@l10n@krt@@YA?AVQString@kso_qt@@AEBV34@@Z
?translateShortcut@l10n@krt@@YA?AVQString@kso_qt@@AEBV34@@Z
?uiLanguage@i18n@krt@@YA?AVQString@kso_qt@@_N@Z
?uiLanguages@i18n@krt@@YA?AVQStringList@kso_qt@@_N@Z
?uninstallOnly@KTranslator@krt@@QEAAXAEBVQString@kso_qt@@@Z
?uninstallPluginTranslation@KAppTranslators@krt@@QEAAXAEBVQString@kso_qt@@PEAX@Z
?uninstallTranslation@KAppTranslators@krt@@QEAAXAEBVQString@kso_qt@@0@Z
?unload@KLibrary@ksafe@krt@@QEAA_NXZ
?unregisterBeforeExit@KAtExit@krt@@SAXPEAX@Z
?unsubscribeSafeCheckNotify@KProcess@ksafe@krt@@YAXPEAX@Z
?updateAccountDomainConfig@kdms@krt@@YAXXZ
?updateMemoryParam@onlineparams@krt@@YAXXZ
?updateSecSvr@serverinfo@krt@@YA?AVQString@kso_qt@@XZ
?updateSvr@serverinfo@krt@@YA?AVQString@kso_qt@@XZ
?useOnlinei18nRes@dirs@krt@@YA_NAEBVQString@kso_qt@@@Z
?userDefault@locale@krt@@YA?AVQString@kso_qt@@XZ
?userDefaultLCID@locale@krt@@YAIXZ
?userLanguages@i18n@krt@@YA?AVQStringList@kso_qt@@_N@Z
?userSettingLanguage@i18n@krt@@YA?AVQString@kso_qt@@XZ
?userSettingLanguages@i18n@krt@@YA?AVQStringList@kso_qt@@XZ
?utility@dirs@krt@@YA?AVQString@kso_qt@@XZ
?uwpAppdata@uwp@krt@@YA?AVQString@kso_qt@@XZ
?uwpLocalAppdata@uwp@krt@@YA?AVQString@kso_qt@@XZ
?uwpimpPath@uwp@krt@@YA?AVQString@kso_qt@@XZ
?value@KCCBaseSettings@kcc@krt@@UEBA?AVQVariant@kso_qt@@AEBVQString@5@AEBV45@_N@Z
?value@KConfigsReader@krt@@UEAA?AVQVariant@kso_qt@@AEBVQString@4@0@Z
?value@KCryptConfigsReader@krt@@UEAA?AVQVariant@kso_qt@@AEBVQString@4@0@Z
?value@KMuiSettings@krt@@QEBA?AVQVariant@kso_qt@@AEBVQString@4@AEBV34@@Z
?value@cache@krt@@YA?AVQVariant@kso_qt@@PEAVKCacheSource@@AEBVQString@4@AEBV34@@Z
?value@kcc@krt@@YA?AVQVariant@kso_qt@@AEBVQString@4@AEBV34@AEBUReadOptions@12@@Z
?value@kcmc@krt@@YA?AVQString@kso_qt@@AEBV34@0PEA_N@Z
?value@kcmc@krt@@YA?AVQString@kso_qt@@AEBVQStringView@4@0PEA_N@Z
?value@kcmc@krt@@YA?AVQString@kso_qt@@PEBD0PEA_N@Z
?values@KMuiSettings@krt@@QEBA?AV?$QList@VQVariant@kso_qt@@@kso_qt@@AEBVQString@4@@Z
?verifyEmbeddedSignature@KProcess@ksafe@krt@@YA_NAEBVQString@kso_qt@@@Z
?verifyEmbeddedSignatureEx@KProcess@ksafe@krt@@YA_NAEBVQString@kso_qt@@@Z
?verifyEmbeddedSignatureExReport@KProcess@ksafe@krt@@YA_NAEBVQString@kso_qt@@AEAV?$map@VQString@kso_qt@@V12@U?$less@VQString@kso_qt@@@std@@V?$allocator@U?$pair@$$CBVQString@kso_qt@@V12@@std@@@4@@std@@@Z
?verifyFileHash@KProcess@ksafe@krt@@YA_NAEBVQString@kso_qt@@0AEAW4VerifyErrorCode@wh@@@Z
?verifyHash@KProcess@ksafe@krt@@YA_NAEBVQString@kso_qt@@@Z
?verifyHashReport@KProcess@ksafe@krt@@YA_NAEBVQString@kso_qt@@AEAW4VerifyErrorCode@wh@@@Z
?verifyZhuHaiKingsoftCertSigner@KProcess@ksafe@krt@@YA_NAEBVQString@kso_qt@@@Z
?version@info@krt@@YA?AVQString@kso_qt@@XZ
?versionCompare@info@krt@@YAHAEBVQString@kso_qt@@0@Z
?versionIdentifier@product@krt@@YA?AVQString@kso_qt@@XZ
?versionName@product@krt@@YA?AVQString@kso_qt@@XZ
?versionText@info@krt@@YA?AVQString@kso_qt@@XZ
?winBuildVersion@info@krt@@YAIXZ
?winMajorVersion@info@krt@@YAIXZ
?winMinorVersion@info@krt@@YAIXZ
?wpsCloudPerfix@kcc@krt@@YA?AVQString@kso_qt@@XZ
?wtoolex@dirs@krt@@YA?AVQString@kso_qt@@XZ
productReader
