LIBRARY Qt5CoreKso.dll
EXPORTS
??$qbswap@$01@kso_qt@@YAPEAXPEBX_JPEAX@Z
??$qbswap@$03@kso_qt@@YAPEAXPEBX_JPEAX@Z
??$qbswap@$07@kso_qt@@YAPEAXPEBX_JPEAX@Z
??0?$QList@VQItemSelectionRange@kso_qt@@@kso_qt@@QEAA@$$QEAV01@@Z
??0?$QList@VQItemSelectionRange@kso_qt@@@kso_qt@@QEAA@AEBV01@@Z
??0?$QList@VQItemSelectionRange@kso_qt@@@kso_qt@@QEAA@V?$initializer_list@VQItemSelectionRange@kso_qt@@@std@@@Z
??0?$QList@VQItemSelectionRange@kso_qt@@@kso_qt@@QEAA@XZ
??0?$QVector@VQPoint@kso_qt@@@kso_qt@@QEAA@$$QEAV01@@Z
??0?$QVector@VQPoint@kso_qt@@@kso_qt@@QEAA@AEBV01@@Z
??0?$QVector@VQPoint@kso_qt@@@kso_qt@@QEAA@H@Z
??0?$QVector@VQPoint@kso_qt@@@kso_qt@@QEAA@HAEBVQPoint@1@@Z
??0?$QVector@VQPoint@kso_qt@@@kso_qt@@QEAA@V?$initializer_list@VQPoint@kso_qt@@@std@@@Z
??0?$QVector@VQPoint@kso_qt@@@kso_qt@@QEAA@XZ
??0?$QVector@VQPointF@kso_qt@@@kso_qt@@QEAA@$$QEAV01@@Z
??0?$QVector@VQPointF@kso_qt@@@kso_qt@@QEAA@AEBV01@@Z
??0?$QVector@VQPointF@kso_qt@@@kso_qt@@QEAA@H@Z
??0?$QVector@VQPointF@kso_qt@@@kso_qt@@QEAA@HAEBVQPointF@1@@Z
??0?$QVector@VQPointF@kso_qt@@@kso_qt@@QEAA@V?$initializer_list@VQPointF@kso_qt@@@std@@@Z
??0?$QVector@VQPointF@kso_qt@@@kso_qt@@QEAA@XZ
??0?$QVector@VQXmlStreamAttribute@kso_qt@@@kso_qt@@QEAA@$$QEAV01@@Z
??0?$QVector@VQXmlStreamAttribute@kso_qt@@@kso_qt@@QEAA@AEBV01@@Z
??0?$QVector@VQXmlStreamAttribute@kso_qt@@@kso_qt@@QEAA@H@Z
??0?$QVector@VQXmlStreamAttribute@kso_qt@@@kso_qt@@QEAA@HAEBVQXmlStreamAttribute@1@@Z
??0?$QVector@VQXmlStreamAttribute@kso_qt@@@kso_qt@@QEAA@V?$initializer_list@VQXmlStreamAttribute@kso_qt@@@std@@@Z
??0?$QVector@VQXmlStreamAttribute@kso_qt@@@kso_qt@@QEAA@XZ
??0Connection@QMetaObject@kso_qt@@AEAA@PEAX@Z
??0Connection@QMetaObject@kso_qt@@QEAA@$$QEAV012@@Z
??0Connection@QMetaObject@kso_qt@@QEAA@AEBV012@@Z
??0Connection@QMetaObject@kso_qt@@QEAA@XZ
??0ConverterState@QTextCodec@kso_qt@@QEAA@V?$QFlags@W4ConversionFlag@QTextCodec@kso_qt@@@2@@Z
??0ExceptionHolder@QtPrivate@kso_qt@@QEAA@AEBV012@@Z
??0ExceptionHolder@QtPrivate@kso_qt@@QEAA@PEAVQException@2@@Z
??0ExceptionStore@QtPrivate@kso_qt@@QEAA@$$QEAV012@@Z
??0ExceptionStore@QtPrivate@kso_qt@@QEAA@AEBV012@@Z
??0ExceptionStore@QtPrivate@kso_qt@@QEAA@XZ
??0QAbstractAnimation@kso_qt@@IEAA@AEAVQAbstractAnimationPrivate@1@PEAVQObject@1@@Z
??0QAbstractAnimation@kso_qt@@QEAA@PEAVQObject@1@@Z
??0QAbstractAnimationTimer@kso_qt@@QEAA@XZ
??0QAbstractDynamicMetaObject@kso_qt@@QEAA@AEBU01@@Z
??0QAbstractDynamicMetaObject@kso_qt@@QEAA@XZ
??0QAbstractEventDispatcher@kso_qt@@IEAA@AEAVQAbstractEventDispatcherPrivate@1@PEAVQObject@1@@Z
??0QAbstractEventDispatcher@kso_qt@@QEAA@PEAVQObject@1@@Z
??0QAbstractEventDispatcherPrivate@kso_qt@@QEAA@$$QEAV01@@Z
??0QAbstractEventDispatcherPrivate@kso_qt@@QEAA@AEBV01@@Z
??0QAbstractEventDispatcherPrivate@kso_qt@@QEAA@XZ
??0QAbstractFileEngine@kso_qt@@IEAA@AEAVQAbstractFileEnginePrivate@1@@Z
??0QAbstractFileEngine@kso_qt@@IEAA@XZ
??0QAbstractFileEngineHandler@kso_qt@@QEAA@AEBV01@@Z
??0QAbstractFileEngineHandler@kso_qt@@QEAA@XZ
??0QAbstractFileEngineIterator@kso_qt@@QEAA@V?$QFlags@W4Filter@QDir@kso_qt@@@1@AEBVQStringList@1@@Z
??0QAbstractItemModel@kso_qt@@IEAA@AEAVQAbstractItemModelPrivate@1@PEAVQObject@1@@Z
??0QAbstractItemModel@kso_qt@@QEAA@PEAVQObject@1@@Z
??0QAbstractItemModelPrivate@kso_qt@@QEAA@AEBV01@@Z
??0QAbstractItemModelPrivate@kso_qt@@QEAA@XZ
??0QAbstractListModel@kso_qt@@IEAA@AEAVQAbstractItemModelPrivate@1@PEAVQObject@1@@Z
??0QAbstractListModel@kso_qt@@QEAA@PEAVQObject@1@@Z
??0QAbstractNativeEventFilter@kso_qt@@QEAA@XZ
??0QAbstractProxyModel@kso_qt@@IEAA@AEAVQAbstractProxyModelPrivate@1@PEAVQObject@1@@Z
??0QAbstractProxyModel@kso_qt@@QEAA@PEAVQObject@1@@Z
??0QAbstractProxyModelPrivate@kso_qt@@QEAA@$$QEAV01@@Z
??0QAbstractProxyModelPrivate@kso_qt@@QEAA@AEBV01@@Z
??0QAbstractProxyModelPrivate@kso_qt@@QEAA@XZ
??0QAbstractState@kso_qt@@IEAA@AEAVQAbstractStatePrivate@1@PEAVQState@1@@Z
??0QAbstractState@kso_qt@@IEAA@PEAVQState@1@@Z
??0QAbstractTableModel@kso_qt@@IEAA@AEAVQAbstractItemModelPrivate@1@PEAVQObject@1@@Z
??0QAbstractTableModel@kso_qt@@QEAA@PEAVQObject@1@@Z
??0QAbstractTransition@kso_qt@@IEAA@AEAVQAbstractTransitionPrivate@1@PEAVQState@1@@Z
??0QAbstractTransition@kso_qt@@QEAA@PEAVQState@1@@Z
??0QAbstractTransitionPrivate@kso_qt@@QEAA@$$QEAV01@@Z
??0QAbstractTransitionPrivate@kso_qt@@QEAA@AEBV01@@Z
??0QAbstractTransitionPrivate@kso_qt@@QEAA@XZ
??0QAnimationDriver@kso_qt@@IEAA@AEAVQAnimationDriverPrivate@1@PEAVQObject@1@@Z
??0QAnimationDriver@kso_qt@@QEAA@PEAVQObject@1@@Z
??0QAnimationDriverPrivate@kso_qt@@QEAA@$$QEAV01@@Z
??0QAnimationDriverPrivate@kso_qt@@QEAA@AEBV01@@Z
??0QAnimationDriverPrivate@kso_qt@@QEAA@XZ
??0QAnimationGroup@kso_qt@@IEAA@AEAVQAnimationGroupPrivate@1@PEAVQObject@1@@Z
??0QAnimationGroup@kso_qt@@QEAA@PEAVQObject@1@@Z
??0QAppThemeChangeEvent@kso_qt@@QEAA@AEBV01@@Z
??0QAppThemeChangeEvent@kso_qt@@QEAA@W4ThemeMode@01@@Z
??0QArrayData@kso_qt@@QEAA@XZ
??0QAssociativeIterable@kso_qt@@QEAA@VQAssociativeIterableImpl@QtMetaTypePrivate@1@@Z
??0QBasicMutex@kso_qt@@QEAA@XZ
??0QBasicTimer@kso_qt@@QEAA@XZ
??0QBitArray@kso_qt@@QEAA@$$QEAV01@@Z
??0QBitArray@kso_qt@@QEAA@AEBV01@@Z
??0QBitArray@kso_qt@@QEAA@H_N@Z
??0QBitArray@kso_qt@@QEAA@XZ
??0QBitRef@kso_qt@@AEAA@AEAVQBitArray@1@H@Z
??0QBitRef@kso_qt@@QEAA@$$QEAV01@@Z
??0QBuffer@kso_qt@@QEAA@PEAVQByteArray@1@PEAVQObject@1@@Z
??0QBuffer@kso_qt@@QEAA@PEAVQObject@1@@Z
??0QByteArray@kso_qt@@QEAA@$$QEAV01@@Z
??0QByteArray@kso_qt@@QEAA@AEBV01@@Z
??0QByteArray@kso_qt@@QEAA@HD@Z
??0QByteArray@kso_qt@@QEAA@HW4Initialization@Qt@1@@Z
??0QByteArray@kso_qt@@QEAA@PEBDH@Z
??0QByteArray@kso_qt@@QEAA@UQByteArrayDataPtr@1@@Z
??0QByteArray@kso_qt@@QEAA@XZ
??0QByteArrayMatcher@kso_qt@@QEAA@AEBV01@@Z
??0QByteArrayMatcher@kso_qt@@QEAA@AEBVQByteArray@1@@Z
??0QByteArrayMatcher@kso_qt@@QEAA@PEBDH@Z
??0QByteArrayMatcher@kso_qt@@QEAA@XZ
??0QByteRef@kso_qt@@AEAA@AEAVQByteArray@1@H@Z
??0QByteRef@kso_qt@@QEAA@$$QEAV01@@Z
??0QCborArray@kso_qt@@AEAA@AEAVQCborContainerPrivate@1@@Z
??0QCborArray@kso_qt@@QEAA@AEBV01@@Z
??0QCborArray@kso_qt@@QEAA@V?$initializer_list@VQCborValue@kso_qt@@@std@@@Z
??0QCborArray@kso_qt@@QEAA@XZ
??0QCborMap@kso_qt@@AEAA@AEAVQCborContainerPrivate@1@@Z
??0QCborMap@kso_qt@@QEAA@AEBV01@@Z
??0QCborMap@kso_qt@@QEAA@V?$initializer_list@U?$QPair@VQCborValue@kso_qt@@V12@@kso_qt@@@std@@@Z
??0QCborMap@kso_qt@@QEAA@XZ
??0QCborStreamReader@kso_qt@@QEAA@AEBVQByteArray@1@@Z
??0QCborStreamReader@kso_qt@@QEAA@PEAVQIODevice@1@@Z
??0QCborStreamReader@kso_qt@@QEAA@PEBD_J@Z
??0QCborStreamReader@kso_qt@@QEAA@PEBE_J@Z
??0QCborStreamReader@kso_qt@@QEAA@XZ
??0QCborStreamWriter@kso_qt@@QEAA@PEAVQByteArray@1@@Z
??0QCborStreamWriter@kso_qt@@QEAA@PEAVQIODevice@1@@Z
??0QCborValue@kso_qt@@QEAA@$$QEAV01@@Z
??0QCborValue@kso_qt@@QEAA@$$QEAVQCborArray@1@@Z
??0QCborValue@kso_qt@@QEAA@$$QEAVQCborMap@1@@Z
??0QCborValue@kso_qt@@QEAA@$$T@Z
??0QCborValue@kso_qt@@QEAA@AEBV01@@Z
??0QCborValue@kso_qt@@QEAA@AEBVQByteArray@1@@Z
??0QCborValue@kso_qt@@QEAA@AEBVQCborArray@1@@Z
??0QCborValue@kso_qt@@QEAA@AEBVQCborMap@1@@Z
??0QCborValue@kso_qt@@QEAA@AEBVQDateTime@1@@Z
??0QCborValue@kso_qt@@QEAA@AEBVQRegularExpression@1@@Z
??0QCborValue@kso_qt@@QEAA@AEBVQString@1@@Z
??0QCborValue@kso_qt@@QEAA@AEBVQUrl@1@@Z
??0QCborValue@kso_qt@@QEAA@AEBVQUuid@1@@Z
??0QCborValue@kso_qt@@QEAA@H@Z
??0QCborValue@kso_qt@@QEAA@I@Z
??0QCborValue@kso_qt@@QEAA@N@Z
??0QCborValue@kso_qt@@QEAA@PEBD@Z
??0QCborValue@kso_qt@@QEAA@VQLatin1String@1@@Z
??0QCborValue@kso_qt@@QEAA@W4QCborKnownTags@1@AEBV01@@Z
??0QCborValue@kso_qt@@QEAA@W4QCborSimpleType@1@@Z
??0QCborValue@kso_qt@@QEAA@W4QCborTag@1@AEBV01@@Z
??0QCborValue@kso_qt@@QEAA@W4Type@01@@Z
??0QCborValue@kso_qt@@QEAA@XZ
??0QCborValue@kso_qt@@QEAA@_J@Z
??0QCborValue@kso_qt@@QEAA@_N@Z
??0QCborValueRef@kso_qt@@AEAA@PEAVQCborContainerPrivate@1@_J@Z
??0QCborValueRef@kso_qt@@AEAA@XZ
??0QChar@kso_qt@@QEAA@D@Z
??0QChar@kso_qt@@QEAA@E@Z
??0QChar@kso_qt@@QEAA@EE@Z
??0QChar@kso_qt@@QEAA@F@Z
??0QChar@kso_qt@@QEAA@G@Z
??0QChar@kso_qt@@QEAA@H@Z
??0QChar@kso_qt@@QEAA@I@Z
??0QChar@kso_qt@@QEAA@UQLatin1Char@1@@Z
??0QChar@kso_qt@@QEAA@W4SpecialCharacter@01@@Z
??0QChar@kso_qt@@QEAA@XZ
??0QChar@kso_qt@@QEAA@_S@Z
??0QChar@kso_qt@@QEAA@_W@Z
??0QCharRef@kso_qt@@AEAA@AEAVQString@1@H@Z
??0QCharRef@kso_qt@@QEAA@$$QEAV01@@Z
??0QChildEvent@kso_qt@@QEAA@AEBV01@@Z
??0QChildEvent@kso_qt@@QEAA@W4Type@QEvent@1@PEAVQObject@1@@Z
??0QCollator@kso_qt@@QEAA@$$QEAV01@@Z
??0QCollator@kso_qt@@QEAA@AEBV01@@Z
??0QCollator@kso_qt@@QEAA@AEBVQLocale@1@@Z
??0QCollatorSortKey@kso_qt@@IEAA@PEAVQCollatorSortKeyPrivate@1@@Z
??0QCollatorSortKey@kso_qt@@QEAA@AEBV01@@Z
??0QCommandLineOption@kso_qt@@QEAA@AEBV01@@Z
??0QCommandLineOption@kso_qt@@QEAA@AEBVQString@1@000@Z
??0QCommandLineOption@kso_qt@@QEAA@AEBVQString@1@@Z
??0QCommandLineOption@kso_qt@@QEAA@AEBVQStringList@1@@Z
??0QCommandLineOption@kso_qt@@QEAA@AEBVQStringList@1@AEBVQString@1@11@Z
??0QCommandLineParser@kso_qt@@QEAA@XZ
??0QConfFile@kso_qt@@AEAA@AEBVQString@1@_N@Z
??0QContiguousCacheData@kso_qt@@QEAA@XZ
??0QCoreApplication@kso_qt@@IEAA@AEAVQCoreApplicationPrivate@1@@Z
??0QCoreApplication@kso_qt@@QEAA@AEAHPEAPEADHPEAUQPlatformIntegrationConfig@1@@Z
??0QCoreApplicationPrivate@kso_qt@@QEAA@AEAHPEAPEADIPEAUQPlatformIntegrationConfig@1@@Z
??0QCryptographicHash@kso_qt@@QEAA@W4Algorithm@01@@Z
??0QDaemonThread@kso_qt@@QEAA@PEAVQObject@1@@Z
??0QDataStream@kso_qt@@QEAA@AEBVQByteArray@1@@Z
??0QDataStream@kso_qt@@QEAA@PEAVQByteArray@1@V?$QFlags@W4OpenModeFlag@QIODevice@kso_qt@@@1@@Z
??0QDataStream@kso_qt@@QEAA@PEAVQIODevice@1@@Z
??0QDataStream@kso_qt@@QEAA@XZ
??0QDate@kso_qt@@AEAA@_J@Z
??0QDate@kso_qt@@QEAA@HHH@Z
??0QDate@kso_qt@@QEAA@XZ
??0QDateTime@kso_qt@@QEAA@$$QEAV01@@Z
??0QDateTime@kso_qt@@QEAA@AEBV01@@Z
??0QDateTime@kso_qt@@QEAA@AEBVQDate@1@@Z
??0QDateTime@kso_qt@@QEAA@AEBVQDate@1@AEBVQTime@1@AEBVQTimeZone@1@@Z
??0QDateTime@kso_qt@@QEAA@AEBVQDate@1@AEBVQTime@1@W4TimeSpec@Qt@1@@Z
??0QDateTime@kso_qt@@QEAA@AEBVQDate@1@AEBVQTime@1@W4TimeSpec@Qt@1@H@Z
??0QDateTime@kso_qt@@QEAA@XZ
??0QDateTimeParser@kso_qt@@QEAA@AEBV01@@Z
??0QDateTimeParser@kso_qt@@QEAA@W4Type@QVariant@1@W4Context@01@@Z
??0QDeadlineTimer@kso_qt@@QEAA@W4ForeverConstant@01@W4TimerType@Qt@1@@Z
??0QDeadlineTimer@kso_qt@@QEAA@W4TimerType@Qt@1@@Z
??0QDeadlineTimer@kso_qt@@QEAA@_JW4TimerType@Qt@1@@Z
??0QDebug@kso_qt@@QEAA@AEBV01@@Z
??0QDebug@kso_qt@@QEAA@PEAVQIODevice@1@@Z
??0QDebug@kso_qt@@QEAA@PEAVQString@1@@Z
??0QDebug@kso_qt@@QEAA@W4QtMsgType@1@@Z
??0QDebugStateSaver@kso_qt@@QEAA@AEAVQDebug@1@@Z
??0QDeferredDeleteEvent@kso_qt@@QEAA@AEBV01@@Z
??0QDeferredDeleteEvent@kso_qt@@QEAA@XZ
??0QDir@kso_qt@@IEAA@AEAVQDirPrivate@1@@Z
??0QDir@kso_qt@@QEAA@AEBV01@@Z
??0QDir@kso_qt@@QEAA@AEBVQString@1@0V?$QFlags@W4SortFlag@QDir@kso_qt@@@1@V?$QFlags@W4Filter@QDir@kso_qt@@@1@@Z
??0QDir@kso_qt@@QEAA@AEBVQString@1@@Z
??0QDirIterator@kso_qt@@QEAA@AEBVQDir@1@V?$QFlags@W4IteratorFlag@QDirIterator@kso_qt@@@1@@Z
??0QDirIterator@kso_qt@@QEAA@AEBVQString@1@AEBVQStringList@1@V?$QFlags@W4Filter@QDir@kso_qt@@@1@V?$QFlags@W4IteratorFlag@QDirIterator@kso_qt@@@1@@Z
??0QDirIterator@kso_qt@@QEAA@AEBVQString@1@V?$QFlags@W4Filter@QDir@kso_qt@@@1@V?$QFlags@W4IteratorFlag@QDirIterator@kso_qt@@@1@@Z
??0QDirIterator@kso_qt@@QEAA@AEBVQString@1@V?$QFlags@W4IteratorFlag@QDirIterator@kso_qt@@@1@@Z
??0QDynamicMetaObjectData@kso_qt@@QEAA@AEBU01@@Z
??0QDynamicMetaObjectData@kso_qt@@QEAA@XZ
??0QDynamicPropertyChangeEvent@kso_qt@@QEAA@AEBV01@@Z
??0QDynamicPropertyChangeEvent@kso_qt@@QEAA@AEBVQByteArray@1@@Z
??0QEasingCurve@kso_qt@@QEAA@$$QEAV01@@Z
??0QEasingCurve@kso_qt@@QEAA@AEBV01@@Z
??0QEasingCurve@kso_qt@@QEAA@W4Type@01@@Z
??0QElapsedTimer@kso_qt@@QEAA@XZ
??0QEvent@kso_qt@@QEAA@AEBV01@@Z
??0QEvent@kso_qt@@QEAA@W4Type@01@@Z
??0QEventDispatcherWin32@kso_qt@@IEAA@AEAVQEventDispatcherWin32Private@1@PEAVQObject@1@@Z
??0QEventDispatcherWin32@kso_qt@@QEAA@PEAVQObject@1@@Z
??0QEventDispatcherWin32Private@kso_qt@@QEAA@AEBV01@@Z
??0QEventDispatcherWin32Private@kso_qt@@QEAA@XZ
??0QEventLoop@kso_qt@@QEAA@PEAVQObject@1@@Z
??0QEventLoopLocker@kso_qt@@QEAA@PEAVQEventLoop@1@@Z
??0QEventLoopLocker@kso_qt@@QEAA@PEAVQThread@1@@Z
??0QEventLoopLocker@kso_qt@@QEAA@XZ
??0QEventTransition@kso_qt@@IEAA@AEAVQEventTransitionPrivate@1@PEAVQObject@1@W4Type@QEvent@1@PEAVQState@1@@Z
??0QEventTransition@kso_qt@@IEAA@AEAVQEventTransitionPrivate@1@PEAVQState@1@@Z
??0QEventTransition@kso_qt@@QEAA@PEAVQObject@1@W4Type@QEvent@1@PEAVQState@1@@Z
??0QEventTransition@kso_qt@@QEAA@PEAVQState@1@@Z
??0QEventTransitionPrivate@kso_qt@@QEAA@AEBV01@@Z
??0QEventTransitionPrivate@kso_qt@@QEAA@XZ
??0QException@kso_qt@@QEAA@AEBV01@@Z
??0QException@kso_qt@@QEAA@XZ
??0QFSFileEngine@kso_qt@@IEAA@AEAVQFSFileEnginePrivate@1@@Z
??0QFSFileEngine@kso_qt@@QEAA@AEBVQString@1@@Z
??0QFSFileEngine@kso_qt@@QEAA@XZ
??0QFSFileEnginePrivate@kso_qt@@IEAA@XZ
??0QFSFileEnginePrivate@kso_qt@@QEAA@$$QEAV01@@Z
??0QFSFileEnginePrivate@kso_qt@@QEAA@AEBV01@@Z
??0QFactoryInterface@kso_qt@@QEAA@AEBU01@@Z
??0QFactoryInterface@kso_qt@@QEAA@XZ
??0QFactoryLoader@kso_qt@@QEAA@PEBDAEBVQString@1@W4CaseSensitivity@Qt@1@@Z
??0QFile@kso_qt@@IEAA@AEAVQFilePrivate@1@PEAVQObject@1@@Z
??0QFile@kso_qt@@QEAA@AEBVQString@1@@Z
??0QFile@kso_qt@@QEAA@AEBVQString@1@PEAVQObject@1@@Z
??0QFile@kso_qt@@QEAA@PEAVQObject@1@@Z
??0QFile@kso_qt@@QEAA@XZ
??0QFileDevice@kso_qt@@IEAA@AEAVQFileDevicePrivate@1@PEAVQObject@1@@Z
??0QFileDevice@kso_qt@@IEAA@PEAVQObject@1@@Z
??0QFileDevice@kso_qt@@IEAA@XZ
??0QFileInfo@kso_qt@@QEAA@AEBV01@@Z
??0QFileInfo@kso_qt@@QEAA@AEBVQDir@1@AEBVQString@1@@Z
??0QFileInfo@kso_qt@@QEAA@AEBVQFile@1@@Z
??0QFileInfo@kso_qt@@QEAA@AEBVQString@1@@Z
??0QFileInfo@kso_qt@@QEAA@PEAVQFileInfoPrivate@1@@Z
??0QFileInfo@kso_qt@@QEAA@XZ
??0QFileSelector@kso_qt@@QEAA@PEAVQObject@1@@Z
??0QFileSelectorPrivate@kso_qt@@QEAA@$$QEAV01@@Z
??0QFileSelectorPrivate@kso_qt@@QEAA@AEBV01@@Z
??0QFileSelectorPrivate@kso_qt@@QEAA@XZ
??0QFileSystemMetaData@kso_qt@@QEAA@XZ
??0QFileSystemWatcher@kso_qt@@QEAA@AEBVQStringList@1@PEAVQObject@1@@Z
??0QFileSystemWatcher@kso_qt@@QEAA@HPEAVQObject@1@@Z
??0QFileSystemWatcher@kso_qt@@QEAA@PEAVQObject@1@@Z
??0QFinalState@kso_qt@@IEAA@AEAVQFinalStatePrivate@1@PEAVQState@1@@Z
??0QFinalState@kso_qt@@QEAA@PEAVQState@1@@Z
??0QFinalStatePrivate@kso_qt@@QEAA@AEBV01@@Z
??0QFinalStatePrivate@kso_qt@@QEAA@XZ
??0QFutureInterfaceBase@kso_qt@@QEAA@AEBV01@@Z
??0QFutureInterfaceBase@kso_qt@@QEAA@W4State@01@@Z
??0QFutureWatcherBase@kso_qt@@QEAA@PEAVQObject@1@@Z
??0QGenericArgument@kso_qt@@QEAA@PEBDPEBX@Z
??0QGenericReturnArgument@kso_qt@@QEAA@PEBDPEAX@Z
??0QHashData@kso_qt@@QEAA@XZ
??0QHistoryState@kso_qt@@QEAA@PEAVQState@1@@Z
??0QHistoryState@kso_qt@@QEAA@W4HistoryType@01@PEAVQState@1@@Z
??0QIODevice@kso_qt@@IEAA@AEAVQIODevicePrivate@1@PEAVQObject@1@@Z
??0QIODevice@kso_qt@@QEAA@PEAVQObject@1@@Z
??0QIODevice@kso_qt@@QEAA@XZ
??0QIODevicePrivate@kso_qt@@QEAA@AEBV01@@Z
??0QIODevicePrivate@kso_qt@@QEAA@XZ
??0QIdentityProxyModel@kso_qt@@IEAA@AEAVQIdentityProxyModelPrivate@1@PEAVQObject@1@@Z
??0QIdentityProxyModel@kso_qt@@QEAA@PEAVQObject@1@@Z
??0QItemSelection@kso_qt@@QEAA@$$QEAV01@@Z
??0QItemSelection@kso_qt@@QEAA@AEBV01@@Z
??0QItemSelection@kso_qt@@QEAA@AEBVQModelIndex@1@0@Z
??0QItemSelection@kso_qt@@QEAA@XZ
??0QItemSelectionModel@kso_qt@@IEAA@AEAVQItemSelectionModelPrivate@1@PEAVQAbstractItemModel@1@@Z
??0QItemSelectionModel@kso_qt@@QEAA@PEAVQAbstractItemModel@1@@Z
??0QItemSelectionModel@kso_qt@@QEAA@PEAVQAbstractItemModel@1@PEAVQObject@1@@Z
??0QItemSelectionRange@kso_qt@@QEAA@$$QEAV01@@Z
??0QItemSelectionRange@kso_qt@@QEAA@AEBV01@@Z
??0QItemSelectionRange@kso_qt@@QEAA@AEBVQModelIndex@1@0@Z
??0QItemSelectionRange@kso_qt@@QEAA@AEBVQModelIndex@1@@Z
??0QItemSelectionRange@kso_qt@@QEAA@XZ
??0QJsonArray@kso_qt@@AEAA@PEAVData@QJsonPrivate@1@PEAVArray@31@@Z
??0QJsonArray@kso_qt@@QEAA@$$QEAV01@@Z
??0QJsonArray@kso_qt@@QEAA@AEBV01@@Z
??0QJsonArray@kso_qt@@QEAA@V?$initializer_list@VQJsonValue@kso_qt@@@std@@@Z
??0QJsonArray@kso_qt@@QEAA@XZ
??0QJsonDocument@kso_qt@@AEAA@PEAVData@QJsonPrivate@1@@Z
??0QJsonDocument@kso_qt@@QEAA@$$QEAV01@@Z
??0QJsonDocument@kso_qt@@QEAA@AEBV01@@Z
??0QJsonDocument@kso_qt@@QEAA@AEBVQJsonArray@1@@Z
??0QJsonDocument@kso_qt@@QEAA@AEBVQJsonObject@1@@Z
??0QJsonDocument@kso_qt@@QEAA@XZ
??0QJsonObject@kso_qt@@AEAA@PEAVData@QJsonPrivate@1@PEAVObject@31@@Z
??0QJsonObject@kso_qt@@QEAA@$$QEAV01@@Z
??0QJsonObject@kso_qt@@QEAA@AEBV01@@Z
??0QJsonObject@kso_qt@@QEAA@V?$initializer_list@U?$QPair@VQString@kso_qt@@VQJsonValue@2@@kso_qt@@@std@@@Z
??0QJsonObject@kso_qt@@QEAA@XZ
??0QJsonValue@kso_qt@@AEAA@PEAVData@QJsonPrivate@1@PEAVBase@31@AEBVValue@31@@Z
??0QJsonValue@kso_qt@@AEAA@PEBX@Z
??0QJsonValue@kso_qt@@QEAA@$$QEAV01@@Z
??0QJsonValue@kso_qt@@QEAA@AEBV01@@Z
??0QJsonValue@kso_qt@@QEAA@AEBVQJsonArray@1@@Z
??0QJsonValue@kso_qt@@QEAA@AEBVQJsonObject@1@@Z
??0QJsonValue@kso_qt@@QEAA@AEBVQString@1@@Z
??0QJsonValue@kso_qt@@QEAA@H@Z
??0QJsonValue@kso_qt@@QEAA@N@Z
??0QJsonValue@kso_qt@@QEAA@PEBD@Z
??0QJsonValue@kso_qt@@QEAA@VQLatin1String@1@@Z
??0QJsonValue@kso_qt@@QEAA@W4Type@01@@Z
??0QJsonValue@kso_qt@@QEAA@_J@Z
??0QJsonValue@kso_qt@@QEAA@_N@Z
??0QJsonValueRef@kso_qt@@QEAA@$$QEAV01@@Z
??0QJsonValueRef@kso_qt@@QEAA@PEAVQJsonArray@1@H@Z
??0QJsonValueRef@kso_qt@@QEAA@PEAVQJsonObject@1@H@Z
??0QLibrary@kso_qt@@QEAA@AEBVQString@1@0PEAVQObject@1@@Z
??0QLibrary@kso_qt@@QEAA@AEBVQString@1@HPEAVQObject@1@@Z
??0QLibrary@kso_qt@@QEAA@AEBVQString@1@PEAVQObject@1@@Z
??0QLibrary@kso_qt@@QEAA@PEAVQObject@1@@Z
??0QLibraryInfo@kso_qt@@AEAA@XZ
??0QLine@kso_qt@@QEAA@AEBVQPoint@1@0@Z
??0QLine@kso_qt@@QEAA@HHHH@Z
??0QLine@kso_qt@@QEAA@XZ
??0QLineF@kso_qt@@QEAA@AEBVQLine@1@@Z
??0QLineF@kso_qt@@QEAA@AEBVQPointF@1@0@Z
??0QLineF@kso_qt@@QEAA@NNNN@Z
??0QLineF@kso_qt@@QEAA@XZ
??0QLocale@kso_qt@@AEAA@AEAVQLocalePrivate@1@@Z
??0QLocale@kso_qt@@QEAA@AEBV01@@Z
??0QLocale@kso_qt@@QEAA@AEBVQString@1@@Z
??0QLocale@kso_qt@@QEAA@W4Language@01@W4Country@01@@Z
??0QLocale@kso_qt@@QEAA@W4Language@01@W4Script@01@W4Country@01@@Z
??0QLocale@kso_qt@@QEAA@XZ
??0QLocalePrivate@kso_qt@@QEAA@XZ
??0QLockFile@kso_qt@@QEAA@AEBVQString@1@@Z
??0QLoggingCategory@kso_qt@@QEAA@PEBD@Z
??0QLoggingCategory@kso_qt@@QEAA@PEBDW4QtMsgType@1@@Z
??0QLoggingRegistry@kso_qt@@QEAA@XZ
??0QLoggingRule@kso_qt@@QEAA@$$QEAV01@@Z
??0QLoggingRule@kso_qt@@QEAA@AEBV01@@Z
??0QLoggingRule@kso_qt@@QEAA@AEBVQStringRef@1@_N@Z
??0QLoggingRule@kso_qt@@QEAA@XZ
??0QLoggingSettingsParser@kso_qt@@QEAA@$$QEAV01@@Z
??0QLoggingSettingsParser@kso_qt@@QEAA@AEBV01@@Z
??0QLoggingSettingsParser@kso_qt@@QEAA@XZ
??0QMapDataBase@kso_qt@@QEAA@XZ
??0QMessageAuthenticationCode@kso_qt@@QEAA@W4Algorithm@QCryptographicHash@1@AEBVQByteArray@1@@Z
??0QMessageLogger@kso_qt@@QEAA@PEBDH00@Z
??0QMessageLogger@kso_qt@@QEAA@PEBDH0@Z
??0QMessageLogger@kso_qt@@QEAA@XZ
??0QMetaCallEvent@kso_qt@@QEAA@AEBV01@@Z
??0QMetaCallEvent@kso_qt@@QEAA@GGP6AXPEAVQObject@1@W4Call@QMetaObject@1@HPEAPEAX@ZPEBV21@HHPEAH2PEAVQSemaphore@1@@Z
??0QMetaCallEvent@kso_qt@@QEAA@PEAVQSlotObjectBase@QtPrivate@1@PEBVQObject@1@HHPEAHPEAPEAXPEAVQSemaphore@1@@Z
??0QMetaClassInfo@kso_qt@@QEAA@XZ
??0QMetaEnum@kso_qt@@QEAA@XZ
??0QMetaEnumBuilder@kso_qt@@AEAA@PEBVQMetaObjectBuilder@1@H@Z
??0QMetaEnumBuilder@kso_qt@@QEAA@XZ
??0QMetaMethod@kso_qt@@QEAA@XZ
??0QMetaMethodBuilder@kso_qt@@AEAA@PEBVQMetaObjectBuilder@1@H@Z
??0QMetaMethodBuilder@kso_qt@@QEAA@XZ
??0QMetaObjectBuilder@kso_qt@@QEAA@PEBUQMetaObject@1@V?$QFlags@W4AddMember@QMetaObjectBuilder@kso_qt@@@1@@Z
??0QMetaObjectBuilder@kso_qt@@QEAA@XZ
??0QMetaProperty@kso_qt@@QEAA@XZ
??0QMetaPropertyBuilder@kso_qt@@AEAA@PEBVQMetaObjectBuilder@1@H@Z
??0QMetaPropertyBuilder@kso_qt@@QEAA@XZ
??0QMetaStringTable@kso_qt@@QEAA@$$QEAV01@@Z
??0QMetaStringTable@kso_qt@@QEAA@AEBV01@@Z
??0QMetaStringTable@kso_qt@@QEAA@AEBVQByteArray@1@@Z
??0QMetaType@kso_qt@@AEAA@AEBV01@@Z
??0QMetaType@kso_qt@@AEAA@W4ExtensionFlag@01@PEBVQMetaTypeInterface@1@P6APEAXHPEAXPEBX@ZP6AXH2@ZP6AXAEAVQDataStream@1@3@ZP6AX62@ZP6APEAX23@ZP6AX2@ZIIHPEBUQMetaObject@1@@Z
??0QMetaType@kso_qt@@QEAA@H@Z
??0QMimeData@kso_qt@@QEAA@XZ
??0QMimeDatabase@kso_qt@@QEAA@XZ
??0QMimeType@kso_qt@@QEAA@AEBV01@@Z
??0QMimeType@kso_qt@@QEAA@AEBVQMimeTypePrivate@1@@Z
??0QMimeType@kso_qt@@QEAA@XZ
??0QMimeTypePrivate@kso_qt@@QEAA@$$QEAV01@@Z
??0QMimeTypePrivate@kso_qt@@QEAA@AEBV01@@Z
??0QMimeTypePrivate@kso_qt@@QEAA@AEBVQMimeType@1@@Z
??0QMimeTypePrivate@kso_qt@@QEAA@XZ
??0QModelIndex@kso_qt@@AEAA@HHPEAXPEBVQAbstractItemModel@1@@Z
??0QModelIndex@kso_qt@@AEAA@HH_KPEBVQAbstractItemModel@1@@Z
??0QModelIndex@kso_qt@@QEAA@XZ
??0QMutex@kso_qt@@QEAA@W4RecursionMode@01@@Z
??0QMutexLocker@kso_qt@@QEAA@PEAVQBasicMutex@1@@Z
??0QMutexPool@kso_qt@@QEAA@AEBV01@@Z
??0QMutexPool@kso_qt@@QEAA@W4RecursionMode@QMutex@1@H@Z
??0QNonContiguousByteDevice@kso_qt@@IEAA@XZ
??0QObject@kso_qt@@IEAA@AEAVQObjectPrivate@1@PEAV01@@Z
??0QObject@kso_qt@@QEAA@PEAV01@@Z
??0QObjectCleanupHandler@kso_qt@@QEAA@XZ
??0QObjectData@kso_qt@@QEAA@AEBV01@@Z
??0QObjectData@kso_qt@@QEAA@XZ
??0QObjectPrivate@kso_qt@@QEAA@AEBV01@@Z
??0QObjectPrivate@kso_qt@@QEAA@H@Z
??0QObjectUserData@kso_qt@@QEAA@AEBV01@@Z
??0QObjectUserData@kso_qt@@QEAA@XZ
??0QOperatingSystemVersion@kso_qt@@QEAA@W4OSType@01@HHH@Z
??0QParallelAnimationGroup@kso_qt@@IEAA@AEAVQParallelAnimationGroupPrivate@1@PEAVQObject@1@@Z
??0QParallelAnimationGroup@kso_qt@@QEAA@PEAVQObject@1@@Z
??0QPauseAnimation@kso_qt@@QEAA@HPEAVQObject@1@@Z
??0QPauseAnimation@kso_qt@@QEAA@PEAVQObject@1@@Z
??0QPersistentModelIndex@kso_qt@@QEAA@$$QEAV01@@Z
??0QPersistentModelIndex@kso_qt@@QEAA@AEBV01@@Z
??0QPersistentModelIndex@kso_qt@@QEAA@AEBVQModelIndex@1@@Z
??0QPersistentModelIndex@kso_qt@@QEAA@XZ
??0QPluginLoader@kso_qt@@QEAA@AEBVQString@1@PEAVQObject@1@@Z
??0QPluginLoader@kso_qt@@QEAA@PEAVQObject@1@@Z
??0QPoint@kso_qt@@QEAA@HH@Z
??0QPoint@kso_qt@@QEAA@XZ
??0QPointF@kso_qt@@QEAA@AEBVQPoint@1@@Z
??0QPointF@kso_qt@@QEAA@NN@Z
??0QPointF@kso_qt@@QEAA@XZ
??0QProcess@kso_qt@@QEAA@PEAVQObject@1@@Z
??0QProcessEnvironment@kso_qt@@QEAA@AEBV01@@Z
??0QProcessEnvironment@kso_qt@@QEAA@XZ
??0QPropertyAnimation@kso_qt@@QEAA@PEAVQObject@1@@Z
??0QPropertyAnimation@kso_qt@@QEAA@PEAVQObject@1@AEBVQByteArray@1@0@Z
??0QRandomGenerator@kso_qt@@QEAA@AEAVseed_seq@std@@@Z
??0QRandomGenerator@kso_qt@@QEAA@AEBV01@@Z
??0QRandomGenerator@kso_qt@@QEAA@PEBI0@Z
??0QReadLocker@kso_qt@@QEAA@PEAVQReadWriteLock@1@@Z
??0QReadWriteLock@kso_qt@@QEAA@W4RecursionMode@01@@Z
??0QRect@kso_qt@@QEAA@AEBVQPoint@1@0@Z
??0QRect@kso_qt@@QEAA@AEBVQPoint@1@AEBVQSize@1@@Z
??0QRect@kso_qt@@QEAA@HHHH@Z
??0QRect@kso_qt@@QEAA@XZ
??0QRectF@kso_qt@@QEAA@AEBVQPointF@1@0@Z
??0QRectF@kso_qt@@QEAA@AEBVQPointF@1@AEBVQSizeF@1@@Z
??0QRectF@kso_qt@@QEAA@AEBVQRect@1@@Z
??0QRectF@kso_qt@@QEAA@NNNN@Z
??0QRectF@kso_qt@@QEAA@XZ
??0QRegExp@kso_qt@@QEAA@AEBV01@@Z
??0QRegExp@kso_qt@@QEAA@AEBVQString@1@W4CaseSensitivity@Qt@1@W4PatternSyntax@01@@Z
??0QRegExp@kso_qt@@QEAA@XZ
??0QRegularExpression@kso_qt@@AEAA@AEAUQRegularExpressionPrivate@1@@Z
??0QRegularExpression@kso_qt@@QEAA@AEBV01@@Z
??0QRegularExpression@kso_qt@@QEAA@AEBVQString@1@V?$QFlags@W4PatternOption@QRegularExpression@kso_qt@@@1@@Z
??0QRegularExpression@kso_qt@@QEAA@XZ
??0QRegularExpressionMatch@kso_qt@@AEAA@AEAUQRegularExpressionMatchPrivate@1@@Z
??0QRegularExpressionMatch@kso_qt@@QEAA@AEBV01@@Z
??0QRegularExpressionMatch@kso_qt@@QEAA@XZ
??0QRegularExpressionMatchIterator@kso_qt@@AEAA@AEAUQRegularExpressionMatchIteratorPrivate@1@@Z
??0QRegularExpressionMatchIterator@kso_qt@@QEAA@AEBV01@@Z
??0QRegularExpressionMatchIterator@kso_qt@@QEAA@XZ
??0QResource@kso_qt@@QEAA@AEBVQString@1@AEBVQLocale@1@@Z
??0QRunnable@kso_qt@@QEAA@AEBV01@@Z
??0QRunnable@kso_qt@@QEAA@XZ
??0QSaveFile@kso_qt@@QEAA@AEBVQString@1@@Z
??0QSaveFile@kso_qt@@QEAA@AEBVQString@1@PEAVQObject@1@@Z
??0QSaveFile@kso_qt@@QEAA@PEAVQObject@1@@Z
??0QSemaphore@kso_qt@@QEAA@H@Z
??0QSequentialAnimationGroup@kso_qt@@IEAA@AEAVQSequentialAnimationGroupPrivate@1@PEAVQObject@1@@Z
??0QSequentialAnimationGroup@kso_qt@@QEAA@PEAVQObject@1@@Z
??0QSequentialIterable@kso_qt@@QEAA@VQSequentialIterableImpl@QtMetaTypePrivate@1@@Z
??0QSettings@kso_qt@@QEAA@AEBVQString@1@0PEAVQObject@1@@Z
??0QSettings@kso_qt@@QEAA@AEBVQString@1@W4Format@01@PEAVQObject@1@@Z
??0QSettings@kso_qt@@QEAA@PEAVQObject@1@@Z
??0QSettings@kso_qt@@QEAA@W4Format@01@W4Scope@01@AEBVQString@1@2PEAVQObject@1@@Z
??0QSettings@kso_qt@@QEAA@W4Scope@01@AEBVQString@1@1PEAVQObject@1@@Z
??0QSettingsPrivate@kso_qt@@QEAA@AEBV01@@Z
??0QSettingsPrivate@kso_qt@@QEAA@W4Format@QSettings@1@@Z
??0QSettingsPrivate@kso_qt@@QEAA@W4Format@QSettings@1@W4Scope@31@AEBVQString@1@2@Z
??0QSharedData@kso_qt@@QEAA@AEBV01@@Z
??0QSharedData@kso_qt@@QEAA@XZ
??0QSharedMemory@kso_qt@@QEAA@AEBVQString@1@PEAVQObject@1@@Z
??0QSharedMemory@kso_qt@@QEAA@PEAVQObject@1@@Z
??0QSharedMemoryPrivate@kso_qt@@QEAA@XZ
??0QSignalMapper@kso_qt@@QEAA@PEAVQObject@1@@Z
??0QSignalTransition@kso_qt@@QEAA@PEAVQState@1@@Z
??0QSignalTransition@kso_qt@@QEAA@PEBVQObject@1@PEBDPEAVQState@1@@Z
??0QSize@kso_qt@@QEAA@HH@Z
??0QSize@kso_qt@@QEAA@XZ
??0QSizeF@kso_qt@@QEAA@AEBVQSize@1@@Z
??0QSizeF@kso_qt@@QEAA@NN@Z
??0QSizeF@kso_qt@@QEAA@XZ
??0QSocketNotifier@kso_qt@@QEAA@_JW4Type@01@PEAVQObject@1@@Z
??0QSortFilterProxyModel@kso_qt@@QEAA@PEAVQObject@1@@Z
??0QState@kso_qt@@IEAA@AEAVQStatePrivate@1@PEAV01@@Z
??0QState@kso_qt@@QEAA@PEAV01@@Z
??0QState@kso_qt@@QEAA@W4ChildMode@01@PEAV01@@Z
??0QStateMachine@kso_qt@@IEAA@AEAVQStateMachinePrivate@1@PEAVQObject@1@@Z
??0QStateMachine@kso_qt@@QEAA@PEAVQObject@1@@Z
??0QStateMachine@kso_qt@@QEAA@W4ChildMode@QState@1@PEAVQObject@1@@Z
??0QStateMachinePrivate@kso_qt@@QEAA@XZ
??0QStatePrivate@kso_qt@@QEAA@AEBV01@@Z
??0QStatePrivate@kso_qt@@QEAA@XZ
??0QStorageInfo@kso_qt@@QEAA@AEBV01@@Z
??0QStorageInfo@kso_qt@@QEAA@AEBVQDir@1@@Z
??0QStorageInfo@kso_qt@@QEAA@AEBVQString@1@@Z
??0QStorageInfo@kso_qt@@QEAA@XZ
??0QString@kso_qt@@QEAA@$$QEAV01@@Z
??0QString@kso_qt@@QEAA@AEBUNull@01@@Z
??0QString@kso_qt@@QEAA@AEBV01@@Z
??0QString@kso_qt@@QEAA@AEBVQByteArray@1@@Z
??0QString@kso_qt@@QEAA@HVQChar@1@@Z
??0QString@kso_qt@@QEAA@HW4Initialization@Qt@1@@Z
??0QString@kso_qt@@QEAA@PEBD@Z
??0QString@kso_qt@@QEAA@PEBVQChar@1@H@Z
??0QString@kso_qt@@QEAA@UQStringDataPtr@1@@Z
??0QString@kso_qt@@QEAA@VQChar@1@@Z
??0QString@kso_qt@@QEAA@VQLatin1String@1@@Z
??0QString@kso_qt@@QEAA@XZ
??0QStringListModel@kso_qt@@QEAA@AEBVQStringList@1@PEAVQObject@1@@Z
??0QStringListModel@kso_qt@@QEAA@PEAVQObject@1@@Z
??0QStringMatcher@kso_qt@@QEAA@AEBV01@@Z
??0QStringMatcher@kso_qt@@QEAA@AEBVQString@1@W4CaseSensitivity@Qt@1@@Z
??0QStringMatcher@kso_qt@@QEAA@PEBVQChar@1@HW4CaseSensitivity@Qt@1@@Z
??0QStringMatcher@kso_qt@@QEAA@XZ
??0QStringRef@kso_qt@@QEAA@$$QEAV01@@Z
??0QStringRef@kso_qt@@QEAA@AEBV01@@Z
??0QStringRef@kso_qt@@QEAA@PEBVQString@1@@Z
??0QStringRef@kso_qt@@QEAA@PEBVQString@1@HH@Z
??0QStringRef@kso_qt@@QEAA@XZ
??0QSystemLocale@kso_qt@@AEAA@_N@Z
??0QSystemLocale@kso_qt@@QEAA@AEBV01@@Z
??0QSystemLocale@kso_qt@@QEAA@XZ
??0QSystemSemaphore@kso_qt@@QEAA@AEBVQString@1@HW4AccessMode@01@@Z
??0QTemporaryDir@kso_qt@@QEAA@AEBVQString@1@@Z
??0QTemporaryDir@kso_qt@@QEAA@XZ
??0QTemporaryFile@kso_qt@@QEAA@AEBVQString@1@@Z
??0QTemporaryFile@kso_qt@@QEAA@AEBVQString@1@PEAVQObject@1@@Z
??0QTemporaryFile@kso_qt@@QEAA@PEAVQObject@1@@Z
??0QTemporaryFile@kso_qt@@QEAA@XZ
??0QTextBoundaryFinder@kso_qt@@QEAA@AEBV01@@Z
??0QTextBoundaryFinder@kso_qt@@QEAA@W4BoundaryType@01@AEBVQString@1@@Z
??0QTextBoundaryFinder@kso_qt@@QEAA@W4BoundaryType@01@PEBVQChar@1@HPEAEH@Z
??0QTextBoundaryFinder@kso_qt@@QEAA@XZ
??0QTextCodec@kso_qt@@IEAA@XZ
??0QTextDecoder@kso_qt@@QEAA@PEBVQTextCodec@1@@Z
??0QTextDecoder@kso_qt@@QEAA@PEBVQTextCodec@1@V?$QFlags@W4ConversionFlag@QTextCodec@kso_qt@@@1@@Z
??0QTextEncoder@kso_qt@@QEAA@PEBVQTextCodec@1@@Z
??0QTextEncoder@kso_qt@@QEAA@PEBVQTextCodec@1@V?$QFlags@W4ConversionFlag@QTextCodec@kso_qt@@@1@@Z
??0QTextStream@kso_qt@@QEAA@AEBVQByteArray@1@V?$QFlags@W4OpenModeFlag@QIODevice@kso_qt@@@1@@Z
??0QTextStream@kso_qt@@QEAA@PEAU_iobuf@@V?$QFlags@W4OpenModeFlag@QIODevice@kso_qt@@@1@@Z
??0QTextStream@kso_qt@@QEAA@PEAVQByteArray@1@V?$QFlags@W4OpenModeFlag@QIODevice@kso_qt@@@1@@Z
??0QTextStream@kso_qt@@QEAA@PEAVQIODevice@1@@Z
??0QTextStream@kso_qt@@QEAA@PEAVQString@1@V?$QFlags@W4OpenModeFlag@QIODevice@kso_qt@@@1@@Z
??0QTextStream@kso_qt@@QEAA@XZ
??0QTextStreamManipulator@kso_qt@@QEAA@P8QTextStream@1@EAAXH@ZH@Z
??0QTextStreamManipulator@kso_qt@@QEAA@P8QTextStream@1@EAAXVQChar@1@@Z0@Z
??0QThread@kso_qt@@IEAA@AEAVQThreadPrivate@1@PEAVQObject@1@@Z
??0QThread@kso_qt@@QEAA@PEAVQObject@1@@Z
??0QThreadPool@kso_qt@@QEAA@PEAVQObject@1@@Z
??0QThreadPoolPrivate@kso_qt@@QEAA@XZ
??0QThreadStorageData@kso_qt@@QEAA@P6AXPEAX@Z@Z
??0QTime@kso_qt@@AEAA@H@Z
??0QTime@kso_qt@@QEAA@HHHH@Z
??0QTime@kso_qt@@QEAA@XZ
??0QTimeLine@kso_qt@@QEAA@HPEAVQObject@1@@Z
??0QTimeZone@kso_qt@@AEAA@AEAVQTimeZonePrivate@1@@Z
??0QTimeZone@kso_qt@@QEAA@AEBV01@@Z
??0QTimeZone@kso_qt@@QEAA@AEBVQByteArray@1@@Z
??0QTimeZone@kso_qt@@QEAA@AEBVQByteArray@1@HAEBVQString@1@1W4Country@QLocale@1@1@Z
??0QTimeZone@kso_qt@@QEAA@H@Z
??0QTimeZone@kso_qt@@QEAA@XZ
??0QTimeZonePrivate@kso_qt@@QEAA@AEBV01@@Z
??0QTimeZonePrivate@kso_qt@@QEAA@XZ
??0QTimer@kso_qt@@QEAA@PEAVQObject@1@@Z
??0QTimerEvent@kso_qt@@QEAA@AEBV01@@Z
??0QTimerEvent@kso_qt@@QEAA@H@Z
??0QTranslator@kso_qt@@QEAA@PEAVQObject@1@@Z
??0QUnhandledException@kso_qt@@QEAA@AEBV01@@Z
??0QUnhandledException@kso_qt@@QEAA@XZ
??0QUnifiedTimer@kso_qt@@AEAA@XZ
??0QUrl@kso_qt@@QEAA@$$QEAV01@@Z
??0QUrl@kso_qt@@QEAA@AEBV01@@Z
??0QUrl@kso_qt@@QEAA@AEBVQString@1@W4ParsingMode@01@@Z
??0QUrl@kso_qt@@QEAA@XZ
??0QUrlQuery@kso_qt@@QEAA@AEBV01@@Z
??0QUrlQuery@kso_qt@@QEAA@AEBVQString@1@@Z
??0QUrlQuery@kso_qt@@QEAA@AEBVQUrl@1@@Z
??0QUrlQuery@kso_qt@@QEAA@XZ
??0QUtcTimeZonePrivate@kso_qt@@QEAA@AEBV01@@Z
??0QUtcTimeZonePrivate@kso_qt@@QEAA@AEBVQByteArray@1@@Z
??0QUtcTimeZonePrivate@kso_qt@@QEAA@AEBVQByteArray@1@HAEBVQString@1@1W4Country@QLocale@1@1@Z
??0QUtcTimeZonePrivate@kso_qt@@QEAA@H@Z
??0QUtcTimeZonePrivate@kso_qt@@QEAA@XZ
??0QUuid@kso_qt@@AEAA@W4Initialization@Qt@1@@Z
??0QUuid@kso_qt@@QEAA@AEBU_GUID@@@Z
??0QUuid@kso_qt@@QEAA@AEBVQByteArray@1@@Z
??0QUuid@kso_qt@@QEAA@AEBVQString@1@@Z
??0QUuid@kso_qt@@QEAA@IGGEEEEEEEE@Z
??0QUuid@kso_qt@@QEAA@PEBD@Z
??0QUuid@kso_qt@@QEAA@XZ
??0QVariant@kso_qt@@QEAA@$$QEAV01@@Z
??0QVariant@kso_qt@@QEAA@AEAVQDataStream@1@@Z
??0QVariant@kso_qt@@QEAA@AEBV01@@Z
??0QVariant@kso_qt@@QEAA@AEBV?$QHash@VQString@kso_qt@@VQVariant@2@@1@@Z
??0QVariant@kso_qt@@QEAA@AEBV?$QList@VQVariant@kso_qt@@@1@@Z
??0QVariant@kso_qt@@QEAA@AEBV?$QMap@VQString@kso_qt@@VQVariant@2@@1@@Z
??0QVariant@kso_qt@@QEAA@AEBVQBitArray@1@@Z
??0QVariant@kso_qt@@QEAA@AEBVQByteArray@1@@Z
??0QVariant@kso_qt@@QEAA@AEBVQDate@1@@Z
??0QVariant@kso_qt@@QEAA@AEBVQDateTime@1@@Z
??0QVariant@kso_qt@@QEAA@AEBVQEasingCurve@1@@Z
??0QVariant@kso_qt@@QEAA@AEBVQJsonArray@1@@Z
??0QVariant@kso_qt@@QEAA@AEBVQJsonDocument@1@@Z
??0QVariant@kso_qt@@QEAA@AEBVQJsonObject@1@@Z
??0QVariant@kso_qt@@QEAA@AEBVQJsonValue@1@@Z
??0QVariant@kso_qt@@QEAA@AEBVQLine@1@@Z
??0QVariant@kso_qt@@QEAA@AEBVQLineF@1@@Z
??0QVariant@kso_qt@@QEAA@AEBVQLocale@1@@Z
??0QVariant@kso_qt@@QEAA@AEBVQModelIndex@1@@Z
??0QVariant@kso_qt@@QEAA@AEBVQPersistentModelIndex@1@@Z
??0QVariant@kso_qt@@QEAA@AEBVQPoint@1@@Z
??0QVariant@kso_qt@@QEAA@AEBVQPointF@1@@Z
??0QVariant@kso_qt@@QEAA@AEBVQRect@1@@Z
??0QVariant@kso_qt@@QEAA@AEBVQRectF@1@@Z
??0QVariant@kso_qt@@QEAA@AEBVQRegExp@1@@Z
??0QVariant@kso_qt@@QEAA@AEBVQRegularExpression@1@@Z
??0QVariant@kso_qt@@QEAA@AEBVQSize@1@@Z
??0QVariant@kso_qt@@QEAA@AEBVQSizeF@1@@Z
??0QVariant@kso_qt@@QEAA@AEBVQString@1@@Z
??0QVariant@kso_qt@@QEAA@AEBVQStringList@1@@Z
??0QVariant@kso_qt@@QEAA@AEBVQTime@1@@Z
??0QVariant@kso_qt@@QEAA@AEBVQUrl@1@@Z
??0QVariant@kso_qt@@QEAA@AEBVQUuid@1@@Z
??0QVariant@kso_qt@@QEAA@H@Z
??0QVariant@kso_qt@@QEAA@HPEBX@Z
??0QVariant@kso_qt@@QEAA@HPEBXI@Z
??0QVariant@kso_qt@@QEAA@I@Z
??0QVariant@kso_qt@@QEAA@M@Z
??0QVariant@kso_qt@@QEAA@N@Z
??0QVariant@kso_qt@@QEAA@PEBD@Z
??0QVariant@kso_qt@@QEAA@VQChar@1@@Z
??0QVariant@kso_qt@@QEAA@VQLatin1String@1@@Z
??0QVariant@kso_qt@@QEAA@W4Type@01@@Z
??0QVariant@kso_qt@@QEAA@XZ
??0QVariant@kso_qt@@QEAA@_J@Z
??0QVariant@kso_qt@@QEAA@_K@Z
??0QVariant@kso_qt@@QEAA@_N@Z
??0QVariantAnimation@kso_qt@@IEAA@AEAVQVariantAnimationPrivate@1@PEAVQObject@1@@Z
??0QVariantAnimation@kso_qt@@QEAA@PEAVQObject@1@@Z
??0QWaitCondition@kso_qt@@QEAA@XZ
??0QWinEventNotifier@kso_qt@@QEAA@PEAVQObject@1@@Z
??0QWinEventNotifier@kso_qt@@QEAA@PEAXPEAVQObject@1@@Z
??0QWinTimeZonePrivate@kso_qt@@QEAA@AEBV01@@Z
??0QWinTimeZonePrivate@kso_qt@@QEAA@AEBVQByteArray@1@@Z
??0QWinTimeZonePrivate@kso_qt@@QEAA@XZ
??0QWindowsPipeReader@kso_qt@@QEAA@PEAVQObject@1@@Z
??0QWindowsPipeWriter@kso_qt@@QEAA@PEAXPEAVQObject@1@@Z
??0QWriteLocker@kso_qt@@QEAA@PEAVQReadWriteLock@1@@Z
??0QXmlStreamAttribute@kso_qt@@QEAA@$$QEAV01@@Z
??0QXmlStreamAttribute@kso_qt@@QEAA@AEBV01@@Z
??0QXmlStreamAttribute@kso_qt@@QEAA@AEBVQString@1@00@Z
??0QXmlStreamAttribute@kso_qt@@QEAA@AEBVQString@1@0@Z
??0QXmlStreamAttribute@kso_qt@@QEAA@XZ
??0QXmlStreamAttributes@kso_qt@@QEAA@$$QEAV01@@Z
??0QXmlStreamAttributes@kso_qt@@QEAA@AEBV01@@Z
??0QXmlStreamAttributes@kso_qt@@QEAA@XZ
??0QXmlStreamEntityDeclaration@kso_qt@@QEAA@$$QEAV01@@Z
??0QXmlStreamEntityDeclaration@kso_qt@@QEAA@AEBV01@@Z
??0QXmlStreamEntityDeclaration@kso_qt@@QEAA@XZ
??0QXmlStreamEntityResolver@kso_qt@@QEAA@AEBV01@@Z
??0QXmlStreamEntityResolver@kso_qt@@QEAA@XZ
??0QXmlStreamNamespaceDeclaration@kso_qt@@QEAA@$$QEAV01@@Z
??0QXmlStreamNamespaceDeclaration@kso_qt@@QEAA@AEBV01@@Z
??0QXmlStreamNamespaceDeclaration@kso_qt@@QEAA@AEBVQString@1@0@Z
??0QXmlStreamNamespaceDeclaration@kso_qt@@QEAA@XZ
??0QXmlStreamNotationDeclaration@kso_qt@@QEAA@$$QEAV01@@Z
??0QXmlStreamNotationDeclaration@kso_qt@@QEAA@AEBV01@@Z
??0QXmlStreamNotationDeclaration@kso_qt@@QEAA@XZ
??0QXmlStreamReader@kso_qt@@QEAA@AEBVQByteArray@1@@Z
??0QXmlStreamReader@kso_qt@@QEAA@AEBVQString@1@@Z
??0QXmlStreamReader@kso_qt@@QEAA@PEAVQIODevice@1@@Z
??0QXmlStreamReader@kso_qt@@QEAA@PEBD@Z
??0QXmlStreamReader@kso_qt@@QEAA@XZ
??0QXmlStreamStringRef@kso_qt@@QEAA@$$QEAV01@@Z
??0QXmlStreamStringRef@kso_qt@@QEAA@$$QEAVQString@1@@Z
??0QXmlStreamStringRef@kso_qt@@QEAA@AEBV01@@Z
??0QXmlStreamStringRef@kso_qt@@QEAA@AEBVQString@1@@Z
??0QXmlStreamStringRef@kso_qt@@QEAA@AEBVQStringRef@1@@Z
??0QXmlStreamStringRef@kso_qt@@QEAA@XZ
??0QXmlStreamWriter@kso_qt@@QEAA@PEAVQByteArray@1@@Z
??0QXmlStreamWriter@kso_qt@@QEAA@PEAVQIODevice@1@@Z
??0QXmlStreamWriter@kso_qt@@QEAA@PEAVQString@1@@Z
??0QXmlStreamWriter@kso_qt@@QEAA@XZ
??0ResultIteratorBase@QtPrivate@kso_qt@@QEAA@Vconst_iterator@?$QMap@HVResultItem@QtPrivate@kso_qt@@@2@H@Z
??0ResultIteratorBase@QtPrivate@kso_qt@@QEAA@XZ
??0ResultStoreBase@QtPrivate@kso_qt@@QEAA@AEBV012@@Z
??0ResultStoreBase@QtPrivate@kso_qt@@QEAA@XZ
??0SignalEvent@QStateMachine@kso_qt@@QEAA@AEBV012@@Z
??0SignalEvent@QStateMachine@kso_qt@@QEAA@PEAVQObject@2@HAEBV?$QList@VQVariant@kso_qt@@@2@@Z
??0WrappedEvent@QStateMachine@kso_qt@@QEAA@AEBV012@@Z
??0WrappedEvent@QStateMachine@kso_qt@@QEAA@PEAVQObject@2@PEAVQEvent@2@@Z
??0const_iterator@QAssociativeIterable@kso_qt@@AEAA@AEBV12@PEAVQAtomicInt@2@@Z
??0const_iterator@QAssociativeIterable@kso_qt@@AEAA@AEBVQAssociativeIterableImpl@QtMetaTypePrivate@2@PEAVQAtomicInt@2@@Z
??0const_iterator@QAssociativeIterable@kso_qt@@QEAA@AEBU012@@Z
??0const_iterator@QSequentialIterable@kso_qt@@AEAA@AEBV12@PEAVQAtomicInt@2@@Z
??0const_iterator@QSequentialIterable@kso_qt@@AEAA@AEBVQSequentialIterableImpl@QtMetaTypePrivate@2@PEAVQAtomicInt@2@@Z
??0const_iterator@QSequentialIterable@kso_qt@@QEAA@AEBU012@@Z
??1?$QList@VQItemSelectionRange@kso_qt@@@kso_qt@@QEAA@XZ
??1?$QListSpecialMethods@VQItemSelectionRange@kso_qt@@@kso_qt@@IEAA@XZ
??1?$QVector@VQPoint@kso_qt@@@kso_qt@@QEAA@XZ
??1?$QVector@VQPointF@kso_qt@@@kso_qt@@QEAA@XZ
??1?$QVector@VQXmlStreamAttribute@kso_qt@@@kso_qt@@QEAA@XZ
??1Connection@QMetaObject@kso_qt@@QEAA@XZ
??1ConverterState@QTextCodec@kso_qt@@QEAA@XZ
??1ExceptionHolder@QtPrivate@kso_qt@@QEAA@XZ
??1ExceptionStore@QtPrivate@kso_qt@@QEAA@XZ
??1QAbstractAnimation@kso_qt@@UEAA@XZ
??1QAbstractAnimationTimer@kso_qt@@UEAA@XZ
??1QAbstractDynamicMetaObject@kso_qt@@UEAA@XZ
??1QAbstractEventDispatcher@kso_qt@@UEAA@XZ
??1QAbstractEventDispatcherPrivate@kso_qt@@UEAA@XZ
??1QAbstractFileEngine@kso_qt@@UEAA@XZ
??1QAbstractFileEngineHandler@kso_qt@@UEAA@XZ
??1QAbstractFileEngineIterator@kso_qt@@UEAA@XZ
??1QAbstractItemModel@kso_qt@@UEAA@XZ
??1QAbstractItemModelPrivate@kso_qt@@UEAA@XZ
??1QAbstractListModel@kso_qt@@UEAA@XZ
??1QAbstractNativeEventFilter@kso_qt@@UEAA@XZ
??1QAbstractProxyModel@kso_qt@@UEAA@XZ
??1QAbstractProxyModelPrivate@kso_qt@@UEAA@XZ
??1QAbstractState@kso_qt@@UEAA@XZ
??1QAbstractTableModel@kso_qt@@UEAA@XZ
??1QAbstractTransition@kso_qt@@UEAA@XZ
??1QAbstractTransitionPrivate@kso_qt@@UEAA@XZ
??1QAnimationDriver@kso_qt@@UEAA@XZ
??1QAnimationDriverPrivate@kso_qt@@UEAA@XZ
??1QAnimationGroup@kso_qt@@UEAA@XZ
??1QAppThemeChangeEvent@kso_qt@@UEAA@XZ
??1QBasicTimer@kso_qt@@QEAA@XZ
??1QBitArray@kso_qt@@QEAA@XZ
??1QBuffer@kso_qt@@UEAA@XZ
??1QByteArray@kso_qt@@QEAA@XZ
??1QByteArrayMatcher@kso_qt@@QEAA@XZ
??1QCborArray@kso_qt@@QEAA@XZ
??1QCborMap@kso_qt@@QEAA@XZ
??1QCborStreamReader@kso_qt@@QEAA@XZ
??1QCborStreamWriter@kso_qt@@QEAA@XZ
??1QCborValue@kso_qt@@QEAA@XZ
??1QChildEvent@kso_qt@@UEAA@XZ
??1QCollator@kso_qt@@QEAA@XZ
??1QCollatorSortKey@kso_qt@@QEAA@XZ
??1QCommandLineOption@kso_qt@@QEAA@XZ
??1QCommandLineParser@kso_qt@@QEAA@XZ
??1QConfFile@kso_qt@@QEAA@XZ
??1QCoreApplication@kso_qt@@UEAA@XZ
??1QCoreApplicationPrivate@kso_qt@@UEAA@XZ
??1QCryptographicHash@kso_qt@@QEAA@XZ
??1QDaemonThread@kso_qt@@UEAA@XZ
??1QDataStream@kso_qt@@QEAA@XZ
??1QDateTime@kso_qt@@QEAA@XZ
??1QDateTimeParser@kso_qt@@UEAA@XZ
??1QDebug@kso_qt@@QEAA@XZ
??1QDebugStateSaver@kso_qt@@QEAA@XZ
??1QDeferredDeleteEvent@kso_qt@@UEAA@XZ
??1QDir@kso_qt@@QEAA@XZ
??1QDirIterator@kso_qt@@QEAA@XZ
??1QDynamicMetaObjectData@kso_qt@@UEAA@XZ
??1QDynamicPropertyChangeEvent@kso_qt@@UEAA@XZ
??1QEasingCurve@kso_qt@@QEAA@XZ
??1QEvent@kso_qt@@UEAA@XZ
??1QEventDispatcherWin32@kso_qt@@UEAA@XZ
??1QEventDispatcherWin32Private@kso_qt@@UEAA@XZ
??1QEventLoop@kso_qt@@UEAA@XZ
??1QEventLoopLocker@kso_qt@@QEAA@XZ
??1QEventTransition@kso_qt@@UEAA@XZ
??1QEventTransitionPrivate@kso_qt@@UEAA@XZ
??1QException@kso_qt@@UEAA@XZ
??1QFSFileEngine@kso_qt@@UEAA@XZ
??1QFSFileEnginePrivate@kso_qt@@UEAA@XZ
??1QFactoryInterface@kso_qt@@UEAA@XZ
??1QFactoryLoader@kso_qt@@UEAA@XZ
??1QFile@kso_qt@@UEAA@XZ
??1QFileDevice@kso_qt@@UEAA@XZ
??1QFileInfo@kso_qt@@QEAA@XZ
??1QFileSelector@kso_qt@@UEAA@XZ
??1QFileSelectorPrivate@kso_qt@@UEAA@XZ
??1QFileSystemWatcher@kso_qt@@UEAA@XZ
??1QFinalState@kso_qt@@UEAA@XZ
??1QFinalStatePrivate@kso_qt@@UEAA@XZ
??1QFutureInterfaceBase@kso_qt@@UEAA@XZ
??1QFutureWatcherBase@kso_qt@@UEAA@XZ
??1QHistoryState@kso_qt@@UEAA@XZ
??1QIODevice@kso_qt@@UEAA@XZ
??1QIODevicePrivate@kso_qt@@UEAA@XZ
??1QIdentityProxyModel@kso_qt@@UEAA@XZ
??1QItemSelection@kso_qt@@QEAA@XZ
??1QItemSelectionModel@kso_qt@@UEAA@XZ
??1QItemSelectionRange@kso_qt@@QEAA@XZ
??1QJsonArray@kso_qt@@QEAA@XZ
??1QJsonDocument@kso_qt@@QEAA@XZ
??1QJsonObject@kso_qt@@QEAA@XZ
??1QJsonValue@kso_qt@@QEAA@XZ
??1QLibrary@kso_qt@@UEAA@XZ
??1QLocale@kso_qt@@QEAA@XZ
??1QLocalePrivate@kso_qt@@QEAA@XZ
??1QLockFile@kso_qt@@QEAA@XZ
??1QLoggingCategory@kso_qt@@QEAA@XZ
??1QLoggingRegistry@kso_qt@@QEAA@XZ
??1QLoggingRule@kso_qt@@QEAA@XZ
??1QLoggingSettingsParser@kso_qt@@QEAA@XZ
??1QMessageAuthenticationCode@kso_qt@@QEAA@XZ
??1QMetaCallEvent@kso_qt@@UEAA@XZ
??1QMetaObjectBuilder@kso_qt@@UEAA@XZ
??1QMetaStringTable@kso_qt@@QEAA@XZ
??1QMetaType@kso_qt@@QEAA@XZ
??1QMimeData@kso_qt@@UEAA@XZ
??1QMimeDatabase@kso_qt@@QEAA@XZ
??1QMimeType@kso_qt@@QEAA@XZ
??1QMimeTypePrivate@kso_qt@@QEAA@XZ
??1QMutex@kso_qt@@QEAA@XZ
??1QMutexLocker@kso_qt@@QEAA@XZ
??1QMutexPool@kso_qt@@QEAA@XZ
??1QNonContiguousByteDevice@kso_qt@@UEAA@XZ
??1QObject@kso_qt@@UEAA@XZ
??1QObjectCleanupHandler@kso_qt@@UEAA@XZ
??1QObjectData@kso_qt@@UEAA@XZ
??1QObjectPrivate@kso_qt@@UEAA@XZ
??1QObjectUserData@kso_qt@@UEAA@XZ
??1QParallelAnimationGroup@kso_qt@@UEAA@XZ
??1QPauseAnimation@kso_qt@@UEAA@XZ
??1QPersistentModelIndex@kso_qt@@QEAA@XZ
??1QPluginLoader@kso_qt@@UEAA@XZ
??1QProcess@kso_qt@@UEAA@XZ
??1QProcessEnvironment@kso_qt@@QEAA@XZ
??1QPropertyAnimation@kso_qt@@UEAA@XZ
??1QReadLocker@kso_qt@@QEAA@XZ
??1QReadWriteLock@kso_qt@@QEAA@XZ
??1QRegExp@kso_qt@@QEAA@XZ
??1QRegularExpression@kso_qt@@QEAA@XZ
??1QRegularExpressionMatch@kso_qt@@QEAA@XZ
??1QRegularExpressionMatchIterator@kso_qt@@QEAA@XZ
??1QResource@kso_qt@@QEAA@XZ
??1QRunnable@kso_qt@@UEAA@XZ
??1QSaveFile@kso_qt@@UEAA@XZ
??1QSemaphore@kso_qt@@QEAA@XZ
??1QSequentialAnimationGroup@kso_qt@@UEAA@XZ
??1QSettings@kso_qt@@UEAA@XZ
??1QSettingsPrivate@kso_qt@@UEAA@XZ
??1QSharedMemory@kso_qt@@UEAA@XZ
??1QSharedMemoryPrivate@kso_qt@@UEAA@XZ
??1QSignalMapper@kso_qt@@UEAA@XZ
??1QSignalTransition@kso_qt@@UEAA@XZ
??1QSocketNotifier@kso_qt@@UEAA@XZ
??1QSortFilterProxyModel@kso_qt@@UEAA@XZ
??1QState@kso_qt@@UEAA@XZ
??1QStateMachine@kso_qt@@UEAA@XZ
??1QStateMachinePrivate@kso_qt@@UEAA@XZ
??1QStatePrivate@kso_qt@@UEAA@XZ
??1QStorageInfo@kso_qt@@QEAA@XZ
??1QString@kso_qt@@QEAA@XZ
??1QStringListModel@kso_qt@@UEAA@XZ
??1QStringMatcher@kso_qt@@QEAA@XZ
??1QStringRef@kso_qt@@QEAA@XZ
??1QSystemLocale@kso_qt@@UEAA@XZ
??1QSystemSemaphore@kso_qt@@QEAA@XZ
??1QTemporaryDir@kso_qt@@QEAA@XZ
??1QTemporaryFile@kso_qt@@UEAA@XZ
??1QTextBoundaryFinder@kso_qt@@QEAA@XZ
??1QTextCodec@kso_qt@@MEAA@XZ
??1QTextDecoder@kso_qt@@QEAA@XZ
??1QTextEncoder@kso_qt@@QEAA@XZ
??1QTextStream@kso_qt@@UEAA@XZ
??1QThread@kso_qt@@UEAA@XZ
??1QThreadPool@kso_qt@@UEAA@XZ
??1QThreadPoolPrivate@kso_qt@@UEAA@XZ
??1QThreadStorageData@kso_qt@@QEAA@XZ
??1QTimeLine@kso_qt@@UEAA@XZ
??1QTimeZone@kso_qt@@QEAA@XZ
??1QTimeZonePrivate@kso_qt@@UEAA@XZ
??1QTimer@kso_qt@@UEAA@XZ
??1QTimerEvent@kso_qt@@UEAA@XZ
??1QTranslator@kso_qt@@UEAA@XZ
??1QUnhandledException@kso_qt@@UEAA@XZ
??1QUnifiedTimer@kso_qt@@UEAA@XZ
??1QUrl@kso_qt@@QEAA@XZ
??1QUrlQuery@kso_qt@@QEAA@XZ
??1QUtcTimeZonePrivate@kso_qt@@UEAA@XZ
??1QVariant@kso_qt@@QEAA@XZ
??1QVariantAnimation@kso_qt@@UEAA@XZ
??1QWaitCondition@kso_qt@@QEAA@XZ
??1QWinEventNotifier@kso_qt@@UEAA@XZ
??1QWinTimeZonePrivate@kso_qt@@UEAA@XZ
??1QWindowsPipeReader@kso_qt@@UEAA@XZ
??1QWindowsPipeWriter@kso_qt@@UEAA@XZ
??1QWriteLocker@kso_qt@@QEAA@XZ
??1QXmlStreamAttribute@kso_qt@@QEAA@XZ
??1QXmlStreamAttributes@kso_qt@@QEAA@XZ
??1QXmlStreamEntityDeclaration@kso_qt@@QEAA@XZ
??1QXmlStreamEntityResolver@kso_qt@@UEAA@XZ
??1QXmlStreamNamespaceDeclaration@kso_qt@@QEAA@XZ
??1QXmlStreamNotationDeclaration@kso_qt@@QEAA@XZ
??1QXmlStreamReader@kso_qt@@QEAA@XZ
??1QXmlStreamStringRef@kso_qt@@QEAA@XZ
??1QXmlStreamWriter@kso_qt@@QEAA@XZ
??1ResultStoreBase@QtPrivate@kso_qt@@UEAA@XZ
??1SignalEvent@QStateMachine@kso_qt@@UEAA@XZ
??1WrappedEvent@QStateMachine@kso_qt@@UEAA@XZ
??1const_iterator@QAssociativeIterable@kso_qt@@QEAA@XZ
??1const_iterator@QSequentialIterable@kso_qt@@QEAA@XZ
??4?$QList@VQItemSelectionRange@kso_qt@@@kso_qt@@QEAAAEAV01@$$QEAV01@@Z
??4?$QList@VQItemSelectionRange@kso_qt@@@kso_qt@@QEAAAEAV01@AEBV01@@Z
??4?$QListSpecialMethods@VQItemSelectionRange@kso_qt@@@kso_qt@@QEAAAEAU01@AEBU01@@Z
??4?$QVector@VQPoint@kso_qt@@@kso_qt@@QEAAAEAV01@$$QEAV01@@Z
??4?$QVector@VQPoint@kso_qt@@@kso_qt@@QEAAAEAV01@AEBV01@@Z
??4?$QVector@VQPointF@kso_qt@@@kso_qt@@QEAAAEAV01@$$QEAV01@@Z
??4?$QVector@VQPointF@kso_qt@@@kso_qt@@QEAAAEAV01@AEBV01@@Z
??4?$QVector@VQXmlStreamAttribute@kso_qt@@@kso_qt@@QEAAAEAV01@$$QEAV01@@Z
??4?$QVector@VQXmlStreamAttribute@kso_qt@@@kso_qt@@QEAAAEAV01@AEBV01@@Z
??4Connection@QMetaObject@kso_qt@@QEAAAEAV012@$$QEAV012@@Z
??4Connection@QMetaObject@kso_qt@@QEAAAEAV012@AEBV012@@Z
??4ExceptionHolder@QtPrivate@kso_qt@@QEAAXAEBV012@@Z
??4ExceptionStore@QtPrivate@kso_qt@@QEAAAEAV012@$$QEAV012@@Z
??4ExceptionStore@QtPrivate@kso_qt@@QEAAAEAV012@AEBV012@@Z
??4QAbstractConcatenable@kso_qt@@QEAAAEAU01@$$QEAU01@@Z
??4QAbstractConcatenable@kso_qt@@QEAAAEAU01@AEBU01@@Z
??4QAbstractDeclarativeData@kso_qt@@QEAAAEAV01@$$QEAV01@@Z
??4QAbstractDeclarativeData@kso_qt@@QEAAAEAV01@AEBV01@@Z
??4QAbstractDynamicMetaObject@kso_qt@@QEAAAEAU01@AEBU01@@Z
??4QAbstractEventDispatcherPrivate@kso_qt@@QEAAAEAV01@$$QEAV01@@Z
??4QAbstractEventDispatcherPrivate@kso_qt@@QEAAAEAV01@AEBV01@@Z
??4QAbstractFileEngineHandler@kso_qt@@QEAAAEAV01@AEBV01@@Z
??4QAbstractItemModelPrivate@kso_qt@@QEAAAEAV01@AEBV01@@Z
??4QAbstractProxyModelPrivate@kso_qt@@QEAAAEAV01@$$QEAV01@@Z
??4QAbstractProxyModelPrivate@kso_qt@@QEAAAEAV01@AEBV01@@Z
??4QAbstractTransitionPrivate@kso_qt@@QEAAAEAV01@$$QEAV01@@Z
??4QAbstractTransitionPrivate@kso_qt@@QEAAAEAV01@AEBV01@@Z
??4QAnimationDriverPrivate@kso_qt@@QEAAAEAV01@$$QEAV01@@Z
??4QAnimationDriverPrivate@kso_qt@@QEAAAEAV01@AEBV01@@Z
??4QAppThemeChangeEvent@kso_qt@@QEAAAEAV01@AEBV01@@Z
??4QAssociativeIterable@kso_qt@@QEAAAEAV01@$$QEAV01@@Z
??4QAssociativeIterable@kso_qt@@QEAAAEAV01@AEBV01@@Z
??4QBasicTimer@kso_qt@@QEAAAEAV01@AEBV01@@Z
??4QBitArray@kso_qt@@QEAAAEAV01@$$QEAV01@@Z
??4QBitArray@kso_qt@@QEAAAEAV01@AEBV01@@Z
??4QBitRef@kso_qt@@QEAAAEAV01@AEBV01@@Z
??4QBitRef@kso_qt@@QEAAAEAV01@_N@Z
??4QByteArray@kso_qt@@QEAAAEAV01@$$QEAV01@@Z
??4QByteArray@kso_qt@@QEAAAEAV01@AEBV01@@Z
??4QByteArray@kso_qt@@QEAAAEAV01@PEBD@Z
??4QByteArrayMatcher@kso_qt@@QEAAAEAV01@AEBV01@@Z
??4QByteRef@kso_qt@@QEAAAEAV01@AEBV01@@Z
??4QByteRef@kso_qt@@QEAAAEAV01@D@Z
??4QCborArray@kso_qt@@QEAAAEAV01@AEBV01@@Z
??4QCborError@kso_qt@@QEAAAEAU01@$$QEAU01@@Z
??4QCborError@kso_qt@@QEAAAEAU01@AEBU01@@Z
??4QCborMap@kso_qt@@QEAAAEAV01@AEBV01@@Z
??4QCborValue@kso_qt@@QEAAAEAV01@$$QEAV01@@Z
??4QCborValue@kso_qt@@QEAAAEAV01@AEBV01@@Z
??4QCborValueRef@kso_qt@@QEAAAEAV01@$$QEAVQCborValue@1@@Z
??4QCborValueRef@kso_qt@@QEAAAEAV01@AEBV01@@Z
??4QCborValueRef@kso_qt@@QEAAAEAV01@AEBVQCborValue@1@@Z
??4QChar@kso_qt@@QEAAAEAV01@$$QEAV01@@Z
??4QChar@kso_qt@@QEAAAEAV01@AEBV01@@Z
??4QCharRef@kso_qt@@QEAAAEAV01@AEBV01@@Z
??4QCharRef@kso_qt@@QEAAAEAV01@D@Z
??4QCharRef@kso_qt@@QEAAAEAV01@E@Z
??4QCharRef@kso_qt@@QEAAAEAV01@F@Z
??4QCharRef@kso_qt@@QEAAAEAV01@G@Z
??4QCharRef@kso_qt@@QEAAAEAV01@H@Z
??4QCharRef@kso_qt@@QEAAAEAV01@I@Z
??4QCharRef@kso_qt@@QEAAAEAV01@VQChar@1@@Z
??4QChildEvent@kso_qt@@QEAAAEAV01@AEBV01@@Z
??4QCollator@kso_qt@@QEAAAEAV01@$$QEAV01@@Z
??4QCollator@kso_qt@@QEAAAEAV01@AEBV01@@Z
??4QCollatorSortKey@kso_qt@@QEAAAEAV01@$$QEAV01@@Z
??4QCollatorSortKey@kso_qt@@QEAAAEAV01@AEBV01@@Z
??4QCommandLineOption@kso_qt@@QEAAAEAV01@$$QEAV01@@Z
??4QCommandLineOption@kso_qt@@QEAAAEAV01@AEBV01@@Z
??4QContainerImplHelper@QtPrivate@kso_qt@@QEAAAEAU012@$$QEAU012@@Z
??4QContainerImplHelper@QtPrivate@kso_qt@@QEAAAEAU012@AEBU012@@Z
??4QDate@kso_qt@@QEAAAEAV01@$$QEAV01@@Z
??4QDate@kso_qt@@QEAAAEAV01@AEBV01@@Z
??4QDateTime@kso_qt@@QEAAAEAV01@$$QEAV01@@Z
??4QDateTime@kso_qt@@QEAAAEAV01@AEBV01@@Z
??4QDateTimeParser@kso_qt@@QEAAAEAV01@AEBV01@@Z
??4QDeadlineTimer@kso_qt@@QEAAAEAV01@$$QEAV01@@Z
??4QDeadlineTimer@kso_qt@@QEAAAEAV01@AEBV01@@Z
??4QDebug@kso_qt@@QEAAAEAV01@AEBV01@@Z
??4QDeferredDeleteEvent@kso_qt@@QEAAAEAV01@AEBV01@@Z
??4QDir@kso_qt@@QEAAAEAV01@$$QEAV01@@Z
??4QDir@kso_qt@@QEAAAEAV01@AEBV01@@Z
??4QDir@kso_qt@@QEAAAEAV01@AEBVQString@1@@Z
??4QDynamicMetaObjectData@kso_qt@@QEAAAEAU01@AEBU01@@Z
??4QDynamicPropertyChangeEvent@kso_qt@@QEAAAEAV01@AEBV01@@Z
??4QEasingCurve@kso_qt@@QEAAAEAV01@$$QEAV01@@Z
??4QEasingCurve@kso_qt@@QEAAAEAV01@AEBV01@@Z
??4QElapsedTimer@kso_qt@@QEAAAEAV01@$$QEAV01@@Z
??4QElapsedTimer@kso_qt@@QEAAAEAV01@AEBV01@@Z
??4QEvent@kso_qt@@QEAAAEAV01@AEBV01@@Z
??4QEventDispatcherWin32Private@kso_qt@@QEAAAEAV01@AEBV01@@Z
??4QEventTransitionPrivate@kso_qt@@QEAAAEAV01@AEBV01@@Z
??4QException@kso_qt@@QEAAAEAV01@AEBV01@@Z
??4QFSFileEnginePrivate@kso_qt@@QEAAAEAV01@$$QEAV01@@Z
??4QFSFileEnginePrivate@kso_qt@@QEAAAEAV01@AEBV01@@Z
??4QFactoryInterface@kso_qt@@QEAAAEAU01@AEBU01@@Z
??4QFileInfo@kso_qt@@QEAAAEAV01@$$QEAV01@@Z
??4QFileInfo@kso_qt@@QEAAAEAV01@AEBV01@@Z
??4QFileSelectorPrivate@kso_qt@@QEAAAEAV01@$$QEAV01@@Z
??4QFileSelectorPrivate@kso_qt@@QEAAAEAV01@AEBV01@@Z
??4QFileSystemMetaData@kso_qt@@QEAAAEAV01@$$QEAV01@@Z
??4QFileSystemMetaData@kso_qt@@QEAAAEAV01@AEBV01@@Z
??4QFinalStatePrivate@kso_qt@@QEAAAEAV01@AEBV01@@Z
??4QFreeListDefaultConstants@kso_qt@@QEAAAEAU01@$$QEAU01@@Z
??4QFreeListDefaultConstants@kso_qt@@QEAAAEAU01@AEBU01@@Z
??4QFutureInterfaceBase@kso_qt@@QEAAAEAV01@AEBV01@@Z
??4QGenericArgument@kso_qt@@QEAAAEAV01@$$QEAV01@@Z
??4QGenericArgument@kso_qt@@QEAAAEAV01@AEBV01@@Z
??4QGenericReturnArgument@kso_qt@@QEAAAEAV01@$$QEAV01@@Z
??4QGenericReturnArgument@kso_qt@@QEAAAEAV01@AEBV01@@Z
??4QIODevicePrivate@kso_qt@@QEAAAEAV01@AEBV01@@Z
??4QInternal@kso_qt@@QEAAAEAV01@$$QEAV01@@Z
??4QInternal@kso_qt@@QEAAAEAV01@AEBV01@@Z
??4QItemSelection@kso_qt@@QEAAAEAV01@$$QEAV01@@Z
??4QItemSelection@kso_qt@@QEAAAEAV01@AEBV01@@Z
??4QItemSelectionRange@kso_qt@@QEAAAEAV01@$$QEAV01@@Z
??4QItemSelectionRange@kso_qt@@QEAAAEAV01@AEBV01@@Z
??4QJsonArray@kso_qt@@QEAAAEAV01@$$QEAV01@@Z
??4QJsonArray@kso_qt@@QEAAAEAV01@AEBV01@@Z
??4QJsonDocument@kso_qt@@QEAAAEAV01@$$QEAV01@@Z
??4QJsonDocument@kso_qt@@QEAAAEAV01@AEBV01@@Z
??4QJsonObject@kso_qt@@QEAAAEAV01@$$QEAV01@@Z
??4QJsonObject@kso_qt@@QEAAAEAV01@AEBV01@@Z
??4QJsonParseError@kso_qt@@QEAAAEAU01@$$QEAU01@@Z
??4QJsonParseError@kso_qt@@QEAAAEAU01@AEBU01@@Z
??4QJsonValue@kso_qt@@QEAAAEAV01@$$QEAV01@@Z
??4QJsonValue@kso_qt@@QEAAAEAV01@AEBV01@@Z
??4QJsonValueRef@kso_qt@@QEAAAEAV01@AEBV01@@Z
??4QJsonValueRef@kso_qt@@QEAAAEAV01@AEBVQJsonValue@1@@Z
??4QLibraryInfo@kso_qt@@QEAAAEAV01@$$QEAV01@@Z
??4QLibraryInfo@kso_qt@@QEAAAEAV01@AEBV01@@Z
??4QLine@kso_qt@@QEAAAEAV01@$$QEAV01@@Z
??4QLine@kso_qt@@QEAAAEAV01@AEBV01@@Z
??4QLineF@kso_qt@@QEAAAEAV01@$$QEAV01@@Z
??4QLineF@kso_qt@@QEAAAEAV01@AEBV01@@Z
??4QListData@kso_qt@@QEAAAEAU01@$$QEAU01@@Z
??4QListData@kso_qt@@QEAAAEAU01@AEBU01@@Z
??4QLocale@kso_qt@@QEAAAEAV01@$$QEAV01@@Z
??4QLocale@kso_qt@@QEAAAEAV01@AEBV01@@Z
??4QLoggingRule@kso_qt@@QEAAAEAV01@$$QEAV01@@Z
??4QLoggingRule@kso_qt@@QEAAAEAV01@AEBV01@@Z
??4QLoggingSettingsParser@kso_qt@@QEAAAEAV01@$$QEAV01@@Z
??4QLoggingSettingsParser@kso_qt@@QEAAAEAV01@AEBV01@@Z
??4QMapNodeBase@kso_qt@@QEAAAEAU01@$$QEAU01@@Z
??4QMapNodeBase@kso_qt@@QEAAAEAU01@AEBU01@@Z
??4QMetaCallEvent@kso_qt@@QEAAAEAV01@AEBV01@@Z
??4QMetaClassInfo@kso_qt@@QEAAAEAV01@$$QEAV01@@Z
??4QMetaClassInfo@kso_qt@@QEAAAEAV01@AEBV01@@Z
??4QMetaEnum@kso_qt@@QEAAAEAV01@$$QEAV01@@Z
??4QMetaEnum@kso_qt@@QEAAAEAV01@AEBV01@@Z
??4QMetaEnumBuilder@kso_qt@@QEAAAEAV01@$$QEAV01@@Z
??4QMetaEnumBuilder@kso_qt@@QEAAAEAV01@AEBV01@@Z
??4QMetaMethod@kso_qt@@QEAAAEAV01@$$QEAV01@@Z
??4QMetaMethod@kso_qt@@QEAAAEAV01@AEBV01@@Z
??4QMetaMethodBuilder@kso_qt@@QEAAAEAV01@$$QEAV01@@Z
??4QMetaMethodBuilder@kso_qt@@QEAAAEAV01@AEBV01@@Z
??4QMetaObject@kso_qt@@QEAAAEAU01@$$QEAU01@@Z
??4QMetaObject@kso_qt@@QEAAAEAU01@AEBU01@@Z
??4QMetaProperty@kso_qt@@QEAAAEAV01@$$QEAV01@@Z
??4QMetaProperty@kso_qt@@QEAAAEAV01@AEBV01@@Z
??4QMetaPropertyBuilder@kso_qt@@QEAAAEAV01@$$QEAV01@@Z
??4QMetaPropertyBuilder@kso_qt@@QEAAAEAV01@AEBV01@@Z
??4QMetaStringTable@kso_qt@@QEAAAEAV01@$$QEAV01@@Z
??4QMetaStringTable@kso_qt@@QEAAAEAV01@AEBV01@@Z
??4QMetaType@kso_qt@@AEAAAEAV01@AEBV01@@Z
??4QMimeType@kso_qt@@QEAAAEAV01@$$QEAV01@@Z
??4QMimeType@kso_qt@@QEAAAEAV01@AEBV01@@Z
??4QModelIndex@kso_qt@@QEAAAEAV01@$$QEAV01@@Z
??4QModelIndex@kso_qt@@QEAAAEAV01@AEBV01@@Z
??4QMutexPool@kso_qt@@QEAAAEAV01@AEBV01@@Z
??4QNonContiguousByteDeviceFactory@kso_qt@@QEAAAEAV01@$$QEAV01@@Z
??4QNonContiguousByteDeviceFactory@kso_qt@@QEAAAEAV01@AEBV01@@Z
??4QObjectData@kso_qt@@QEAAAEAV01@AEBV01@@Z
??4QObjectPrivate@kso_qt@@QEAAAEAV01@AEBV01@@Z
??4QObjectUserData@kso_qt@@QEAAAEAV01@AEBV01@@Z
??4QOperatingSystemVersion@kso_qt@@QEAAAEAV01@$$QEAV01@@Z
??4QOperatingSystemVersion@kso_qt@@QEAAAEAV01@AEBV01@@Z
??4QPersistentModelIndex@kso_qt@@QEAAAEAV01@$$QEAV01@@Z
??4QPersistentModelIndex@kso_qt@@QEAAAEAV01@AEBV01@@Z
??4QPersistentModelIndex@kso_qt@@QEAAAEAV01@AEBVQModelIndex@1@@Z
??4QPoint@kso_qt@@QEAAAEAV01@$$QEAV01@@Z
??4QPoint@kso_qt@@QEAAAEAV01@AEBV01@@Z
??4QPointF@kso_qt@@QEAAAEAV01@$$QEAV01@@Z
??4QPointF@kso_qt@@QEAAAEAV01@AEBV01@@Z
??4QProcessEnvironment@kso_qt@@QEAAAEAV01@$$QEAV01@@Z
??4QProcessEnvironment@kso_qt@@QEAAAEAV01@AEBV01@@Z
??4QRandomGenerator@kso_qt@@QEAAAEAV01@AEBV01@@Z
??4QRect@kso_qt@@QEAAAEAV01@$$QEAV01@@Z
??4QRect@kso_qt@@QEAAAEAV01@AEBV01@@Z
??4QRectF@kso_qt@@QEAAAEAV01@$$QEAV01@@Z
??4QRectF@kso_qt@@QEAAAEAV01@AEBV01@@Z
??4QRegExp@kso_qt@@QEAAAEAV01@$$QEAV01@@Z
??4QRegExp@kso_qt@@QEAAAEAV01@AEBV01@@Z
??4QRegularExpression@kso_qt@@QEAAAEAV01@$$QEAV01@@Z
??4QRegularExpression@kso_qt@@QEAAAEAV01@AEBV01@@Z
??4QRegularExpressionMatch@kso_qt@@QEAAAEAV01@$$QEAV01@@Z
??4QRegularExpressionMatch@kso_qt@@QEAAAEAV01@AEBV01@@Z
??4QRegularExpressionMatchIterator@kso_qt@@QEAAAEAV01@$$QEAV01@@Z
??4QRegularExpressionMatchIterator@kso_qt@@QEAAAEAV01@AEBV01@@Z
??4QRunnable@kso_qt@@QEAAAEAV01@AEBV01@@Z
??4QSequentialIterable@kso_qt@@QEAAAEAV01@$$QEAV01@@Z
??4QSequentialIterable@kso_qt@@QEAAAEAV01@AEBV01@@Z
??4QSettingsPrivate@kso_qt@@QEAAAEAV01@AEBV01@@Z
??4QSize@kso_qt@@QEAAAEAV01@$$QEAV01@@Z
??4QSize@kso_qt@@QEAAAEAV01@AEBV01@@Z
??4QSizeF@kso_qt@@QEAAAEAV01@$$QEAV01@@Z
??4QSizeF@kso_qt@@QEAAAEAV01@AEBV01@@Z
??4QStandardPaths@kso_qt@@QEAAAEAV01@AEBV01@@Z
??4QStatePrivate@kso_qt@@QEAAAEAV01@AEBV01@@Z
??4QStaticPlugin@kso_qt@@QEAAAEAU01@$$QEAU01@@Z
??4QStaticPlugin@kso_qt@@QEAAAEAU01@AEBU01@@Z
??4QStorageInfo@kso_qt@@QEAAAEAV01@$$QEAV01@@Z
??4QStorageInfo@kso_qt@@QEAAAEAV01@AEBV01@@Z
??4QString@kso_qt@@QEAAAEAV01@$$QEAV01@@Z
??4QString@kso_qt@@QEAAAEAV01@AEBUNull@01@@Z
??4QString@kso_qt@@QEAAAEAV01@AEBV01@@Z
??4QString@kso_qt@@QEAAAEAV01@AEBVQByteArray@1@@Z
??4QString@kso_qt@@QEAAAEAV01@D@Z
??4QString@kso_qt@@QEAAAEAV01@PEBD@Z
??4QString@kso_qt@@QEAAAEAV01@VQChar@1@@Z
??4QString@kso_qt@@QEAAAEAV01@VQLatin1String@1@@Z
??4QStringMatcher@kso_qt@@QEAAAEAV01@AEBV01@@Z
??4QStringRef@kso_qt@@QEAAAEAV01@$$QEAV01@@Z
??4QStringRef@kso_qt@@QEAAAEAV01@AEBV01@@Z
??4QStringRef@kso_qt@@QEAAAEAV01@PEBVQString@1@@Z
??4QSysInfo@kso_qt@@QEAAAEAV01@$$QEAV01@@Z
??4QSysInfo@kso_qt@@QEAAAEAV01@AEBV01@@Z
??4QSystemLocale@kso_qt@@QEAAAEAV01@AEBV01@@Z
??4QTextBoundaryFinder@kso_qt@@QEAAAEAV01@AEBV01@@Z
??4QTextStreamManipulator@kso_qt@@QEAAAEAV01@$$QEAV01@@Z
??4QTextStreamManipulator@kso_qt@@QEAAAEAV01@AEBV01@@Z
??4QThreadStorageData@kso_qt@@QEAAAEAV01@AEBV01@@Z
??4QTime@kso_qt@@QEAAAEAV01@$$QEAV01@@Z
??4QTime@kso_qt@@QEAAAEAV01@AEBV01@@Z
??4QTimeZone@kso_qt@@QEAAAEAV01@$$QEAV01@@Z
??4QTimeZone@kso_qt@@QEAAAEAV01@AEBV01@@Z
??4QTimerEvent@kso_qt@@QEAAAEAV01@AEBV01@@Z
??4QUnhandledException@kso_qt@@QEAAAEAV01@AEBV01@@Z
??4QUrl@kso_qt@@QEAAAEAV01@$$QEAV01@@Z
??4QUrl@kso_qt@@QEAAAEAV01@AEBV01@@Z
??4QUrl@kso_qt@@QEAAAEAV01@AEBVQString@1@@Z
??4QUrlQuery@kso_qt@@QEAAAEAV01@$$QEAV01@@Z
??4QUrlQuery@kso_qt@@QEAAAEAV01@AEBV01@@Z
??4QUuid@kso_qt@@QEAAAEAV01@$$QEAV01@@Z
??4QUuid@kso_qt@@QEAAAEAV01@AEBU_GUID@@@Z
??4QUuid@kso_qt@@QEAAAEAV01@AEBV01@@Z
??4QVariant@kso_qt@@QEAAAEAV01@$$QEAV01@@Z
??4QVariant@kso_qt@@QEAAAEAV01@AEBV01@@Z
??4QXmlStreamAttribute@kso_qt@@QEAAAEAV01@$$QEAV01@@Z
??4QXmlStreamAttribute@kso_qt@@QEAAAEAV01@AEBV01@@Z
??4QXmlStreamAttributes@kso_qt@@QEAAAEAV01@$$QEAV01@@Z
??4QXmlStreamAttributes@kso_qt@@QEAAAEAV01@AEBV01@@Z
??4QXmlStreamEntityDeclaration@kso_qt@@QEAAAEAV01@$$QEAV01@@Z
??4QXmlStreamEntityDeclaration@kso_qt@@QEAAAEAV01@AEBV01@@Z
??4QXmlStreamEntityResolver@kso_qt@@QEAAAEAV01@AEBV01@@Z
??4QXmlStreamNamespaceDeclaration@kso_qt@@QEAAAEAV01@$$QEAV01@@Z
??4QXmlStreamNamespaceDeclaration@kso_qt@@QEAAAEAV01@AEBV01@@Z
??4QXmlStreamNotationDeclaration@kso_qt@@QEAAAEAV01@$$QEAV01@@Z
??4QXmlStreamNotationDeclaration@kso_qt@@QEAAAEAV01@AEBV01@@Z
??4QXmlStreamStringRef@kso_qt@@QEAAAEAV01@$$QEAV01@@Z
??4QXmlStreamStringRef@kso_qt@@QEAAAEAV01@AEBV01@@Z
??4QXmlUtils@kso_qt@@QEAAAEAV01@$$QEAV01@@Z
??4QXmlUtils@kso_qt@@QEAAAEAV01@AEBV01@@Z
??4ResultIteratorBase@QtPrivate@kso_qt@@QEAAAEAV012@$$QEAV012@@Z
??4ResultIteratorBase@QtPrivate@kso_qt@@QEAAAEAV012@AEBV012@@Z
??4ResultStoreBase@QtPrivate@kso_qt@@QEAAAEAV012@AEBV012@@Z
??4SectionNode@QDateTimeParser@kso_qt@@QEAAAEAU012@$$QEAU012@@Z
??4SectionNode@QDateTimeParser@kso_qt@@QEAAAEAU012@AEBU012@@Z
??4SignalEvent@QStateMachine@kso_qt@@QEAAAEAV012@AEBV012@@Z
??4VectorBoolElements@QtMetaTypePrivate@kso_qt@@QEAAAEAU012@$$QEAU012@@Z
??4VectorBoolElements@QtMetaTypePrivate@kso_qt@@QEAAAEAU012@AEBU012@@Z
??4WrappedEvent@QStateMachine@kso_qt@@QEAAAEAV012@AEBV012@@Z
??4const_iterator@QAssociativeIterable@kso_qt@@QEAAAEAU012@AEBU012@@Z
??4const_iterator@QSequentialIterable@kso_qt@@QEAAAEAU012@AEBU012@@Z
??5QDataStream@kso_qt@@QEAAAEAV01@AEA$$T@Z
??5QDataStream@kso_qt@@QEAAAEAV01@AEAC@Z
??5QDataStream@kso_qt@@QEAAAEAV01@AEAE@Z
??5QDataStream@kso_qt@@QEAAAEAV01@AEAF@Z
??5QDataStream@kso_qt@@QEAAAEAV01@AEAG@Z
??5QDataStream@kso_qt@@QEAAAEAV01@AEAH@Z
??5QDataStream@kso_qt@@QEAAAEAV01@AEAI@Z
??5QDataStream@kso_qt@@QEAAAEAV01@AEAM@Z
??5QDataStream@kso_qt@@QEAAAEAV01@AEAN@Z
??5QDataStream@kso_qt@@QEAAAEAV01@AEAPEAD@Z
??5QDataStream@kso_qt@@QEAAAEAV01@AEAVqfloat16@1@@Z
??5QDataStream@kso_qt@@QEAAAEAV01@AEA_J@Z
??5QDataStream@kso_qt@@QEAAAEAV01@AEA_K@Z
??5QDataStream@kso_qt@@QEAAAEAV01@AEA_N@Z
??5QTextStream@kso_qt@@QEAAAEAV01@AEAD@Z
??5QTextStream@kso_qt@@QEAAAEAV01@AEAF@Z
??5QTextStream@kso_qt@@QEAAAEAV01@AEAG@Z
??5QTextStream@kso_qt@@QEAAAEAV01@AEAH@Z
??5QTextStream@kso_qt@@QEAAAEAV01@AEAI@Z
??5QTextStream@kso_qt@@QEAAAEAV01@AEAJ@Z
??5QTextStream@kso_qt@@QEAAAEAV01@AEAK@Z
??5QTextStream@kso_qt@@QEAAAEAV01@AEAM@Z
??5QTextStream@kso_qt@@QEAAAEAV01@AEAN@Z
??5QTextStream@kso_qt@@QEAAAEAV01@AEAVQByteArray@1@@Z
??5QTextStream@kso_qt@@QEAAAEAV01@AEAVQChar@1@@Z
??5QTextStream@kso_qt@@QEAAAEAV01@AEAVQString@1@@Z
??5QTextStream@kso_qt@@QEAAAEAV01@AEA_J@Z
??5QTextStream@kso_qt@@QEAAAEAV01@AEA_K@Z
??5QTextStream@kso_qt@@QEAAAEAV01@PEAD@Z
??5kso_qt@@YAAEAVQDataStream@0@AEAV10@AEAVQBitArray@0@@Z
??5kso_qt@@YAAEAVQDataStream@0@AEAV10@AEAVQByteArray@0@@Z
??5kso_qt@@YAAEAVQDataStream@0@AEAV10@AEAVQChar@0@@Z
??5kso_qt@@YAAEAVQDataStream@0@AEAV10@AEAVQDate@0@@Z
??5kso_qt@@YAAEAVQDataStream@0@AEAV10@AEAVQDateTime@0@@Z
??5kso_qt@@YAAEAVQDataStream@0@AEAV10@AEAVQEasingCurve@0@@Z
??5kso_qt@@YAAEAVQDataStream@0@AEAV10@AEAVQLine@0@@Z
??5kso_qt@@YAAEAVQDataStream@0@AEAV10@AEAVQLineF@0@@Z
??5kso_qt@@YAAEAVQDataStream@0@AEAV10@AEAVQLocale@0@@Z
??5kso_qt@@YAAEAVQDataStream@0@AEAV10@AEAVQMargins@0@@Z
??5kso_qt@@YAAEAVQDataStream@0@AEAV10@AEAVQMarginsF@0@@Z
??5kso_qt@@YAAEAVQDataStream@0@AEAV10@AEAVQPoint@0@@Z
??5kso_qt@@YAAEAVQDataStream@0@AEAV10@AEAVQPointF@0@@Z
??5kso_qt@@YAAEAVQDataStream@0@AEAV10@AEAVQRect@0@@Z
??5kso_qt@@YAAEAVQDataStream@0@AEAV10@AEAVQRectF@0@@Z
??5kso_qt@@YAAEAVQDataStream@0@AEAV10@AEAVQRegExp@0@@Z
??5kso_qt@@YAAEAVQDataStream@0@AEAV10@AEAVQRegularExpression@0@@Z
??5kso_qt@@YAAEAVQDataStream@0@AEAV10@AEAVQSize@0@@Z
??5kso_qt@@YAAEAVQDataStream@0@AEAV10@AEAVQSizeF@0@@Z
??5kso_qt@@YAAEAVQDataStream@0@AEAV10@AEAVQString@0@@Z
??5kso_qt@@YAAEAVQDataStream@0@AEAV10@AEAVQTime@0@@Z
??5kso_qt@@YAAEAVQDataStream@0@AEAV10@AEAVQTimeZone@0@@Z
??5kso_qt@@YAAEAVQDataStream@0@AEAV10@AEAVQUrl@0@@Z
??5kso_qt@@YAAEAVQDataStream@0@AEAV10@AEAVQUuid@0@@Z
??5kso_qt@@YAAEAVQDataStream@0@AEAV10@AEAVQVariant@0@@Z
??5kso_qt@@YAAEAVQDataStream@0@AEAV10@AEAVQVersionNumber@0@@Z
??5kso_qt@@YAAEAVQDataStream@0@AEAV10@AEAW4Type@QVariant@0@@Z
??6?$QList@VQItemSelectionRange@kso_qt@@@kso_qt@@QEAAAEAV01@AEBV01@@Z
??6?$QList@VQItemSelectionRange@kso_qt@@@kso_qt@@QEAAAEAV01@AEBVQItemSelectionRange@1@@Z
??6?$QVector@VQPoint@kso_qt@@@kso_qt@@QEAAAEAV01@$$QEAVQPoint@1@@Z
??6?$QVector@VQPoint@kso_qt@@@kso_qt@@QEAAAEAV01@AEBV01@@Z
??6?$QVector@VQPoint@kso_qt@@@kso_qt@@QEAAAEAV01@AEBVQPoint@1@@Z
??6?$QVector@VQPointF@kso_qt@@@kso_qt@@QEAAAEAV01@$$QEAVQPointF@1@@Z
??6?$QVector@VQPointF@kso_qt@@@kso_qt@@QEAAAEAV01@AEBV01@@Z
??6?$QVector@VQPointF@kso_qt@@@kso_qt@@QEAAAEAV01@AEBVQPointF@1@@Z
??6?$QVector@VQXmlStreamAttribute@kso_qt@@@kso_qt@@QEAAAEAV01@$$QEAVQXmlStreamAttribute@1@@Z
??6?$QVector@VQXmlStreamAttribute@kso_qt@@@kso_qt@@QEAAAEAV01@AEBV01@@Z
??6?$QVector@VQXmlStreamAttribute@kso_qt@@@kso_qt@@QEAAAEAV01@AEBVQXmlStreamAttribute@1@@Z
??6QCborArray@kso_qt@@QEAAAEAV01@AEBVQCborValue@1@@Z
??6QDataStream@kso_qt@@QEAAAEAV01@$$T@Z
??6QDataStream@kso_qt@@QEAAAEAV01@C@Z
??6QDataStream@kso_qt@@QEAAAEAV01@E@Z
??6QDataStream@kso_qt@@QEAAAEAV01@F@Z
??6QDataStream@kso_qt@@QEAAAEAV01@G@Z
??6QDataStream@kso_qt@@QEAAAEAV01@H@Z
??6QDataStream@kso_qt@@QEAAAEAV01@I@Z
??6QDataStream@kso_qt@@QEAAAEAV01@M@Z
??6QDataStream@kso_qt@@QEAAAEAV01@N@Z
??6QDataStream@kso_qt@@QEAAAEAV01@PEBD@Z
??6QDataStream@kso_qt@@QEAAAEAV01@Vqfloat16@1@@Z
??6QDataStream@kso_qt@@QEAAAEAV01@_J@Z
??6QDataStream@kso_qt@@QEAAAEAV01@_K@Z
??6QDataStream@kso_qt@@QEAAAEAV01@_N@Z
??6QDebug@kso_qt@@QEAAAEAV01@$$T@Z
??6QDebug@kso_qt@@QEAAAEAV01@AEBVQByteArray@1@@Z
??6QDebug@kso_qt@@QEAAAEAV01@AEBVQString@1@@Z
??6QDebug@kso_qt@@QEAAAEAV01@AEBVQStringRef@1@@Z
??6QDebug@kso_qt@@QEAAAEAV01@D@Z
??6QDebug@kso_qt@@QEAAAEAV01@F@Z
??6QDebug@kso_qt@@QEAAAEAV01@G@Z
??6QDebug@kso_qt@@QEAAAEAV01@H@Z
??6QDebug@kso_qt@@QEAAAEAV01@I@Z
??6QDebug@kso_qt@@QEAAAEAV01@J@Z
??6QDebug@kso_qt@@QEAAAEAV01@K@Z
??6QDebug@kso_qt@@QEAAAEAV01@M@Z
??6QDebug@kso_qt@@QEAAAEAV01@N@Z
??6QDebug@kso_qt@@QEAAAEAV01@P6AAEAVQTextStream@1@AEAV21@@Z@Z
??6QDebug@kso_qt@@QEAAAEAV01@PEBD@Z
??6QDebug@kso_qt@@QEAAAEAV01@PEBX@Z
??6QDebug@kso_qt@@QEAAAEAV01@VQChar@1@@Z
??6QDebug@kso_qt@@QEAAAEAV01@VQLatin1String@1@@Z
??6QDebug@kso_qt@@QEAAAEAV01@VQStringView@1@@Z
??6QDebug@kso_qt@@QEAAAEAV01@VQTextStreamManipulator@1@@Z
??6QDebug@kso_qt@@QEAAAEAV01@_J@Z
??6QDebug@kso_qt@@QEAAAEAV01@_K@Z
??6QDebug@kso_qt@@QEAAAEAV01@_N@Z
??6QDebug@kso_qt@@QEAAAEAV01@_S@Z
??6QDebug@kso_qt@@QEAAAEAV01@_U@Z
??6QJsonArray@kso_qt@@QEAAAEAV01@AEBVQJsonValue@1@@Z
??6QTextStream@kso_qt@@QEAAAEAV01@AEBVQByteArray@1@@Z
??6QTextStream@kso_qt@@QEAAAEAV01@AEBVQString@1@@Z
??6QTextStream@kso_qt@@QEAAAEAV01@AEBVQStringRef@1@@Z
??6QTextStream@kso_qt@@QEAAAEAV01@D@Z
??6QTextStream@kso_qt@@QEAAAEAV01@F@Z
??6QTextStream@kso_qt@@QEAAAEAV01@G@Z
??6QTextStream@kso_qt@@QEAAAEAV01@H@Z
??6QTextStream@kso_qt@@QEAAAEAV01@I@Z
??6QTextStream@kso_qt@@QEAAAEAV01@J@Z
??6QTextStream@kso_qt@@QEAAAEAV01@K@Z
??6QTextStream@kso_qt@@QEAAAEAV01@M@Z
??6QTextStream@kso_qt@@QEAAAEAV01@N@Z
??6QTextStream@kso_qt@@QEAAAEAV01@PEBD@Z
??6QTextStream@kso_qt@@QEAAAEAV01@PEBX@Z
??6QTextStream@kso_qt@@QEAAAEAV01@VQChar@1@@Z
??6QTextStream@kso_qt@@QEAAAEAV01@VQLatin1String@1@@Z
??6QTextStream@kso_qt@@QEAAAEAV01@VQStringView@1@@Z
??6QTextStream@kso_qt@@QEAAAEAV01@_J@Z
??6QTextStream@kso_qt@@QEAAAEAV01@_K@Z
??6kso_qt@@YA?AVQDebug@0@V10@AEBUtagMSG@@@Z
??6kso_qt@@YA?AVQDebug@0@V10@AEBVQBitArray@0@@Z
??6kso_qt@@YA?AVQDebug@0@V10@AEBVQCborArray@0@@Z
??6kso_qt@@YA?AVQDebug@0@V10@AEBVQCborMap@0@@Z
??6kso_qt@@YA?AVQDebug@0@V10@AEBVQCborValue@0@@Z
??6kso_qt@@YA?AVQDebug@0@V10@AEBVQDate@0@@Z
??6kso_qt@@YA?AVQDebug@0@V10@AEBVQDateTime@0@@Z
??6kso_qt@@YA?AVQDebug@0@V10@AEBVQDir@0@@Z
??6kso_qt@@YA?AVQDebug@0@V10@AEBVQEasingCurve@0@@Z
??6kso_qt@@YA?AVQDebug@0@V10@AEBVQFileInfo@0@@Z
??6kso_qt@@YA?AVQDebug@0@V10@AEBVQItemSelectionRange@0@@Z
??6kso_qt@@YA?AVQDebug@0@V10@AEBVQJsonArray@0@@Z
??6kso_qt@@YA?AVQDebug@0@V10@AEBVQJsonDocument@0@@Z
??6kso_qt@@YA?AVQDebug@0@V10@AEBVQJsonObject@0@@Z
??6kso_qt@@YA?AVQDebug@0@V10@AEBVQJsonValue@0@@Z
??6kso_qt@@YA?AVQDebug@0@V10@AEBVQLine@0@@Z
??6kso_qt@@YA?AVQDebug@0@V10@AEBVQLineF@0@@Z
??6kso_qt@@YA?AVQDebug@0@V10@AEBVQLocale@0@@Z
??6kso_qt@@YA?AVQDebug@0@V10@AEBVQMargins@0@@Z
??6kso_qt@@YA?AVQDebug@0@V10@AEBVQMarginsF@0@@Z
??6kso_qt@@YA?AVQDebug@0@V10@AEBVQMimeType@0@@Z
??6kso_qt@@YA?AVQDebug@0@V10@AEBVQModelIndex@0@@Z
??6kso_qt@@YA?AVQDebug@0@V10@AEBVQOperatingSystemVersion@0@@Z
??6kso_qt@@YA?AVQDebug@0@V10@AEBVQPersistentModelIndex@0@@Z
??6kso_qt@@YA?AVQDebug@0@V10@AEBVQPoint@0@@Z
??6kso_qt@@YA?AVQDebug@0@V10@AEBVQPointF@0@@Z
??6kso_qt@@YA?AVQDebug@0@V10@AEBVQRect@0@@Z
??6kso_qt@@YA?AVQDebug@0@V10@AEBVQRectF@0@@Z
??6kso_qt@@YA?AVQDebug@0@V10@AEBVQRegExp@0@@Z
??6kso_qt@@YA?AVQDebug@0@V10@AEBVQRegularExpression@0@@Z
??6kso_qt@@YA?AVQDebug@0@V10@AEBVQRegularExpressionMatch@0@@Z
??6kso_qt@@YA?AVQDebug@0@V10@AEBVQSize@0@@Z
??6kso_qt@@YA?AVQDebug@0@V10@AEBVQSizeF@0@@Z
??6kso_qt@@YA?AVQDebug@0@V10@AEBVQStorageInfo@0@@Z
??6kso_qt@@YA?AVQDebug@0@V10@AEBVQTime@0@@Z
??6kso_qt@@YA?AVQDebug@0@V10@AEBVQTimeZone@0@@Z
??6kso_qt@@YA?AVQDebug@0@V10@AEBVQUrl@0@@Z
??6kso_qt@@YA?AVQDebug@0@V10@AEBVQUuid@0@@Z
??6kso_qt@@YA?AVQDebug@0@V10@AEBVQVariant@0@@Z
??6kso_qt@@YA?AVQDebug@0@V10@AEBVQVersionNumber@0@@Z
??6kso_qt@@YA?AVQDebug@0@V10@PEBVQObject@0@@Z
??6kso_qt@@YA?AVQDebug@0@V10@V?$QFlags@W4Filter@QDir@kso_qt@@@0@@Z
??6kso_qt@@YA?AVQDebug@0@V10@V?$QFlags@W4OpenModeFlag@QIODevice@kso_qt@@@0@@Z
??6kso_qt@@YA?AVQDebug@0@V10@V?$QFlags@W4PatternOption@QRegularExpression@kso_qt@@@0@@Z
??6kso_qt@@YA?AVQDebug@0@V10@W4QCborKnownTags@0@@Z
??6kso_qt@@YA?AVQDebug@0@V10@W4QCborSimpleType@0@@Z
??6kso_qt@@YA?AVQDebug@0@V10@W4QCborTag@0@@Z
??6kso_qt@@YA?AVQDebug@0@V10@W4Type@QVariant@0@@Z
??6kso_qt@@YAAEAVQDataStream@0@AEAV10@AEBVQBitArray@0@@Z
??6kso_qt@@YAAEAVQDataStream@0@AEAV10@AEBVQByteArray@0@@Z
??6kso_qt@@YAAEAVQDataStream@0@AEAV10@AEBVQDate@0@@Z
??6kso_qt@@YAAEAVQDataStream@0@AEAV10@AEBVQDateTime@0@@Z
??6kso_qt@@YAAEAVQDataStream@0@AEAV10@AEBVQEasingCurve@0@@Z
??6kso_qt@@YAAEAVQDataStream@0@AEAV10@AEBVQLine@0@@Z
??6kso_qt@@YAAEAVQDataStream@0@AEAV10@AEBVQLineF@0@@Z
??6kso_qt@@YAAEAVQDataStream@0@AEAV10@AEBVQLocale@0@@Z
??6kso_qt@@YAAEAVQDataStream@0@AEAV10@AEBVQMargins@0@@Z
??6kso_qt@@YAAEAVQDataStream@0@AEAV10@AEBVQMarginsF@0@@Z
??6kso_qt@@YAAEAVQDataStream@0@AEAV10@AEBVQPoint@0@@Z
??6kso_qt@@YAAEAVQDataStream@0@AEAV10@AEBVQPointF@0@@Z
??6kso_qt@@YAAEAVQDataStream@0@AEAV10@AEBVQRect@0@@Z
??6kso_qt@@YAAEAVQDataStream@0@AEAV10@AEBVQRectF@0@@Z
??6kso_qt@@YAAEAVQDataStream@0@AEAV10@AEBVQRegExp@0@@Z
??6kso_qt@@YAAEAVQDataStream@0@AEAV10@AEBVQRegularExpression@0@@Z
??6kso_qt@@YAAEAVQDataStream@0@AEAV10@AEBVQSize@0@@Z
??6kso_qt@@YAAEAVQDataStream@0@AEAV10@AEBVQSizeF@0@@Z
??6kso_qt@@YAAEAVQDataStream@0@AEAV10@AEBVQString@0@@Z
??6kso_qt@@YAAEAVQDataStream@0@AEAV10@AEBVQTime@0@@Z
??6kso_qt@@YAAEAVQDataStream@0@AEAV10@AEBVQTimeZone@0@@Z
??6kso_qt@@YAAEAVQDataStream@0@AEAV10@AEBVQUrl@0@@Z
??6kso_qt@@YAAEAVQDataStream@0@AEAV10@AEBVQUuid@0@@Z
??6kso_qt@@YAAEAVQDataStream@0@AEAV10@AEBVQVariant@0@@Z
??6kso_qt@@YAAEAVQDataStream@0@AEAV10@AEBVQVersionNumber@0@@Z
??6kso_qt@@YAAEAVQDataStream@0@AEAV10@VQChar@0@@Z
??6kso_qt@@YAAEAVQDataStream@0@AEAV10@W4Type@QVariant@0@@Z
??7QBitRef@kso_qt@@QEBA_NXZ
??8?$QList@VQItemSelectionRange@kso_qt@@@kso_qt@@QEBA_NAEBV01@@Z
??8?$QVector@VQPoint@kso_qt@@@kso_qt@@QEBA_NAEBV01@@Z
??8?$QVector@VQPointF@kso_qt@@@kso_qt@@QEBA_NAEBV01@@Z
??8?$QVector@VQXmlStreamAttribute@kso_qt@@@kso_qt@@QEBA_NAEBV01@@Z
??8QBitArray@kso_qt@@QEBA_NAEBV01@@Z
??8QByteArray@kso_qt@@QEBA_NAEBVQString@1@@Z
??8QByteRef@kso_qt@@QEBA_ND@Z
??8QCborArray@kso_qt@@QEBA_NAEBV01@@Z
??8QCborMap@kso_qt@@QEBA_NAEBV01@@Z
??8QCborValue@kso_qt@@QEBA_NAEBV01@@Z
??8QCborValueRef@kso_qt@@QEBA_NAEBVQCborValue@1@@Z
??8QDate@kso_qt@@QEBA_NAEBV01@@Z
??8QDateTime@kso_qt@@QEBA_NAEBV01@@Z
??8QDir@kso_qt@@QEBA_NAEBV01@@Z
??8QEasingCurve@kso_qt@@QEBA_NAEBV01@@Z
??8QElapsedTimer@kso_qt@@QEBA_NAEBV01@@Z
??8QFileInfo@kso_qt@@QEBA_NAEBV01@@Z
??8QFutureInterfaceBase@kso_qt@@QEBA_NAEBV01@@Z
??8QItemSelectionRange@kso_qt@@QEBA_NAEBV01@@Z
??8QJsonArray@kso_qt@@QEBA_NAEBV01@@Z
??8QJsonDocument@kso_qt@@QEBA_NAEBV01@@Z
??8QJsonObject@kso_qt@@QEBA_NAEBV01@@Z
??8QJsonValue@kso_qt@@QEBA_NAEBV01@@Z
??8QJsonValueRef@kso_qt@@QEBA_NAEBVQJsonValue@1@@Z
??8QLine@kso_qt@@QEBA_NAEBV01@@Z
??8QLineF@kso_qt@@QEBA_NAEBV01@@Z
??8QLocale@kso_qt@@QEBA_NAEBV01@@Z
??8QMimeType@kso_qt@@QEBA_NAEBV01@@Z
??8QModelIndex@kso_qt@@QEBA_NAEBV01@@Z
??8QPersistentModelIndex@kso_qt@@QEBA_NAEBV01@@Z
??8QPersistentModelIndex@kso_qt@@QEBA_NAEBVQModelIndex@1@@Z
??8QProcessEnvironment@kso_qt@@QEBA_NAEBV01@@Z
??8QRegExp@kso_qt@@QEBA_NAEBV01@@Z
??8QRegularExpression@kso_qt@@QEBA_NAEBV01@@Z
??8QString@kso_qt@@QEBA_NAEBVQByteArray@1@@Z
??8QString@kso_qt@@QEBA_NPEBD@Z
??8QString@kso_qt@@QEBA_NVQLatin1String@1@@Z
??8QStringRef@kso_qt@@QEBA_NPEBD@Z
??8QTime@kso_qt@@QEBA_NAEBV01@@Z
??8QTimeZone@kso_qt@@QEBA_NAEBV01@@Z
??8QTimeZonePrivate@kso_qt@@QEBA_NAEBV01@@Z
??8QUrl@kso_qt@@QEBA_NAEBV01@@Z
??8QUrlQuery@kso_qt@@QEBA_NAEBV01@@Z
??8QUuid@kso_qt@@QEBA_NAEBU_GUID@@@Z
??8QUuid@kso_qt@@QEBA_NAEBV01@@Z
??8QVariant@kso_qt@@QEBA_NAEBV01@@Z
??8QXmlStreamAttribute@kso_qt@@QEBA_NAEBV01@@Z
??8QXmlStreamEntityDeclaration@kso_qt@@QEBA_NAEBV01@@Z
??8QXmlStreamNamespaceDeclaration@kso_qt@@QEBA_NAEBV01@@Z
??8QXmlStreamNotationDeclaration@kso_qt@@QEBA_NAEBV01@@Z
??8ResultIteratorBase@QtPrivate@kso_qt@@QEBA_NAEBV012@@Z
??8const_iterator@QAssociativeIterable@kso_qt@@QEBA_NAEBU012@@Z
??8const_iterator@QSequentialIterable@kso_qt@@QEBA_NAEBU012@@Z
??8kso_qt@@YA_NAEBUSectionNode@QDateTimeParser@0@0@Z
??8kso_qt@@YA_NAEBVQRandomGenerator@0@0@Z
??8kso_qt@@YA_NAEBVQString@0@0@Z
??8kso_qt@@YA_NAEBVQString@0@AEBVQStringRef@0@@Z
??8kso_qt@@YA_NAEBVQStringRef@0@0@Z
??8kso_qt@@YA_NVQLatin1String@0@AEBVQStringRef@0@@Z
??9?$QList@VQItemSelectionRange@kso_qt@@@kso_qt@@QEBA_NAEBV01@@Z
??9?$QVector@VQPoint@kso_qt@@@kso_qt@@QEBA_NAEBV01@@Z
??9?$QVector@VQPointF@kso_qt@@@kso_qt@@QEBA_NAEBV01@@Z
??9?$QVector@VQXmlStreamAttribute@kso_qt@@@kso_qt@@QEBA_NAEBV01@@Z
??9QBitArray@kso_qt@@QEBA_NAEBV01@@Z
??9QByteArray@kso_qt@@QEBA_NAEBVQString@1@@Z
??9QByteRef@kso_qt@@QEBA_ND@Z
??9QCborArray@kso_qt@@QEBA_NAEBV01@@Z
??9QCborMap@kso_qt@@QEBA_NAEBV01@@Z
??9QCborValue@kso_qt@@QEBA_NAEBV01@@Z
??9QCborValueRef@kso_qt@@QEBA_NAEBVQCborValue@1@@Z
??9QDate@kso_qt@@QEBA_NAEBV01@@Z
??9QDateTime@kso_qt@@QEBA_NAEBV01@@Z
??9QDir@kso_qt@@QEBA_NAEBV01@@Z
??9QEasingCurve@kso_qt@@QEBA_NAEBV01@@Z
??9QElapsedTimer@kso_qt@@QEBA_NAEBV01@@Z
??9QFileInfo@kso_qt@@QEBA_NAEBV01@@Z
??9QFutureInterfaceBase@kso_qt@@QEBA_NAEBV01@@Z
??9QItemSelectionRange@kso_qt@@QEBA_NAEBV01@@Z
??9QJsonArray@kso_qt@@QEBA_NAEBV01@@Z
??9QJsonDocument@kso_qt@@QEBA_NAEBV01@@Z
??9QJsonObject@kso_qt@@QEBA_NAEBV01@@Z
??9QJsonValue@kso_qt@@QEBA_NAEBV01@@Z
??9QJsonValueRef@kso_qt@@QEBA_NAEBVQJsonValue@1@@Z
??9QLine@kso_qt@@QEBA_NAEBV01@@Z
??9QLineF@kso_qt@@QEBA_NAEBV01@@Z
??9QLocale@kso_qt@@QEBA_NAEBV01@@Z
??9QMimeType@kso_qt@@QEBA_NAEBV01@@Z
??9QModelIndex@kso_qt@@QEBA_NAEBV01@@Z
??9QPersistentModelIndex@kso_qt@@QEBA_NAEBV01@@Z
??9QPersistentModelIndex@kso_qt@@QEBA_NAEBVQModelIndex@1@@Z
??9QProcessEnvironment@kso_qt@@QEBA_NAEBV01@@Z
??9QRegExp@kso_qt@@QEBA_NAEBV01@@Z
??9QRegularExpression@kso_qt@@QEBA_NAEBV01@@Z
??9QString@kso_qt@@QEBA_NAEBVQByteArray@1@@Z
??9QString@kso_qt@@QEBA_NPEBD@Z
??9QString@kso_qt@@QEBA_NVQLatin1String@1@@Z
??9QStringRef@kso_qt@@QEBA_NPEBD@Z
??9QTime@kso_qt@@QEBA_NAEBV01@@Z
??9QTimeZone@kso_qt@@QEBA_NAEBV01@@Z
??9QTimeZonePrivate@kso_qt@@QEBA_NAEBV01@@Z
??9QUrl@kso_qt@@QEBA_NAEBV01@@Z
??9QUrlQuery@kso_qt@@QEBA_NAEBV01@@Z
??9QUuid@kso_qt@@QEBA_NAEBU_GUID@@@Z
??9QUuid@kso_qt@@QEBA_NAEBV01@@Z
??9QVariant@kso_qt@@QEBA_NAEBV01@@Z
??9QXmlStreamAttribute@kso_qt@@QEBA_NAEBV01@@Z
??9QXmlStreamEntityDeclaration@kso_qt@@QEBA_NAEBV01@@Z
??9QXmlStreamNamespaceDeclaration@kso_qt@@QEBA_NAEBV01@@Z
??9QXmlStreamNotationDeclaration@kso_qt@@QEBA_NAEBV01@@Z
??9ResultIteratorBase@QtPrivate@kso_qt@@QEBA_NAEBV012@@Z
??9const_iterator@QAssociativeIterable@kso_qt@@QEBA_NAEBU012@@Z
??9const_iterator@QSequentialIterable@kso_qt@@QEBA_NAEBU012@@Z
??A?$QList@VQItemSelectionRange@kso_qt@@@kso_qt@@QEAAAEAVQItemSelectionRange@1@H@Z
??A?$QList@VQItemSelectionRange@kso_qt@@@kso_qt@@QEBAAEBVQItemSelectionRange@1@H@Z
??A?$QVector@VQPoint@kso_qt@@@kso_qt@@QEAAAEAVQPoint@1@H@Z
??A?$QVector@VQPoint@kso_qt@@@kso_qt@@QEBAAEBVQPoint@1@H@Z
??A?$QVector@VQPointF@kso_qt@@@kso_qt@@QEAAAEAVQPointF@1@H@Z
??A?$QVector@VQPointF@kso_qt@@@kso_qt@@QEBAAEBVQPointF@1@H@Z
??A?$QVector@VQXmlStreamAttribute@kso_qt@@@kso_qt@@QEAAAEAVQXmlStreamAttribute@1@H@Z
??A?$QVector@VQXmlStreamAttribute@kso_qt@@@kso_qt@@QEBAAEBVQXmlStreamAttribute@1@H@Z
??AQBitArray@kso_qt@@QEAA?AVQBitRef@1@H@Z
??AQBitArray@kso_qt@@QEAA?AVQBitRef@1@I@Z
??AQBitArray@kso_qt@@QEBA_NH@Z
??AQBitArray@kso_qt@@QEBA_NI@Z
??AQByteArray@kso_qt@@QEAA?AVQByteRef@1@H@Z
??AQByteArray@kso_qt@@QEAA?AVQByteRef@1@I@Z
??AQByteArray@kso_qt@@QEBADH@Z
??AQByteArray@kso_qt@@QEBADI@Z
??AQCborArray@kso_qt@@QEAA?AVQCborValueRef@1@_J@Z
??AQCborArray@kso_qt@@QEBA?BVQCborValue@1@_J@Z
??AQCborMap@kso_qt@@QEAA?AVQCborValueRef@1@AEBVQCborValue@1@@Z
??AQCborMap@kso_qt@@QEAA?AVQCborValueRef@1@AEBVQString@1@@Z
??AQCborMap@kso_qt@@QEAA?AVQCborValueRef@1@VQLatin1String@1@@Z
??AQCborMap@kso_qt@@QEAA?AVQCborValueRef@1@_J@Z
??AQCborMap@kso_qt@@QEBA?BVQCborValue@1@AEBV21@@Z
??AQCborMap@kso_qt@@QEBA?BVQCborValue@1@AEBVQString@1@@Z
??AQCborMap@kso_qt@@QEBA?BVQCborValue@1@VQLatin1String@1@@Z
??AQCborMap@kso_qt@@QEBA?BVQCborValue@1@_J@Z
??AQCborValue@kso_qt@@QEBA?BV01@AEBVQString@1@@Z
??AQCborValue@kso_qt@@QEBA?BV01@VQLatin1String@1@@Z
??AQCborValue@kso_qt@@QEBA?BV01@_J@Z
??AQDir@kso_qt@@QEBA?AVQString@1@H@Z
??AQJsonArray@kso_qt@@QEAA?AVQJsonValueRef@1@H@Z
??AQJsonArray@kso_qt@@QEBA?AVQJsonValue@1@H@Z
??AQJsonDocument@kso_qt@@QEBA?BVQJsonValue@1@AEBVQString@1@@Z
??AQJsonDocument@kso_qt@@QEBA?BVQJsonValue@1@H@Z
??AQJsonDocument@kso_qt@@QEBA?BVQJsonValue@1@VQLatin1String@1@@Z
??AQJsonObject@kso_qt@@QEAA?AVQJsonValueRef@1@AEBVQString@1@@Z
??AQJsonObject@kso_qt@@QEAA?AVQJsonValueRef@1@VQLatin1String@1@@Z
??AQJsonObject@kso_qt@@QEBA?AVQJsonValue@1@AEBVQString@1@@Z
??AQJsonObject@kso_qt@@QEBA?AVQJsonValue@1@VQLatin1String@1@@Z
??AQJsonValue@kso_qt@@QEBA?BV01@AEBVQString@1@@Z
??AQJsonValue@kso_qt@@QEBA?BV01@H@Z
??AQJsonValue@kso_qt@@QEBA?BV01@VQLatin1String@1@@Z
??AQString@kso_qt@@QEAA?AVQCharRef@1@H@Z
??AQString@kso_qt@@QEAA?AVQCharRef@1@I@Z
??AQString@kso_qt@@QEBA?BVQChar@1@H@Z
??AQString@kso_qt@@QEBA?BVQChar@1@I@Z
??AQStringRef@kso_qt@@QEBA?AVQChar@1@H@Z
??BConnection@QMetaObject@kso_qt@@QEBAPEQ012@PEAXXZ
??BQBitRef@kso_qt@@QEBA_NXZ
??BQByteArray@kso_qt@@QEBAPEBDXZ
??BQByteArray@kso_qt@@QEBAPEBXXZ
??BQByteRef@kso_qt@@QEBADXZ
??BQCborError@kso_qt@@QEBA?AW4Code@01@XZ
??BQCborValueRef@kso_qt@@QEBA?AVQCborValue@1@XZ
??BQCharRef@kso_qt@@QEBA?AVQChar@1@XZ
??BQJsonValueRef@kso_qt@@QEBA?AVQJsonValue@1@XZ
??BQPersistentModelIndex@kso_qt@@QEBAAEBVQModelIndex@1@XZ
??BQUuid@kso_qt@@QEBA?AU_GUID@@XZ
??BQXmlStreamStringRef@kso_qt@@QEBA?AVQStringRef@1@XZ
??Dconst_iterator@QAssociativeIterable@kso_qt@@QEBA?BVQVariant@2@XZ
??Dconst_iterator@QSequentialIterable@kso_qt@@QEBA?BVQVariant@2@XZ
??EResultIteratorBase@QtPrivate@kso_qt@@QEAA?AV012@XZ
??Econst_iterator@QAssociativeIterable@kso_qt@@QEAA?AU012@H@Z
??Econst_iterator@QAssociativeIterable@kso_qt@@QEAAAEAU012@XZ
??Econst_iterator@QSequentialIterable@kso_qt@@QEAA?AU012@H@Z
??Econst_iterator@QSequentialIterable@kso_qt@@QEAAAEAU012@XZ
??Fconst_iterator@QAssociativeIterable@kso_qt@@QEAA?AU012@H@Z
??Fconst_iterator@QAssociativeIterable@kso_qt@@QEAAAEAU012@XZ
??Fconst_iterator@QSequentialIterable@kso_qt@@QEAA?AU012@H@Z
??Fconst_iterator@QSequentialIterable@kso_qt@@QEAAAEAU012@XZ
??Gconst_iterator@QAssociativeIterable@kso_qt@@QEBA?AU012@H@Z
??Gconst_iterator@QSequentialIterable@kso_qt@@QEBA?AU012@H@Z
??H?$QList@VQItemSelectionRange@kso_qt@@@kso_qt@@QEBA?AV01@AEBV01@@Z
??H?$QVector@VQPoint@kso_qt@@@kso_qt@@QEBA?AV01@AEBV01@@Z
??H?$QVector@VQPointF@kso_qt@@@kso_qt@@QEBA?AV01@AEBV01@@Z
??H?$QVector@VQXmlStreamAttribute@kso_qt@@@kso_qt@@QEBA?AV01@AEBV01@@Z
??HQCborArray@kso_qt@@QEBA?AV01@AEBVQCborValue@1@@Z
??HQJsonArray@kso_qt@@QEBA?AV01@AEBVQJsonValue@1@@Z
??Hconst_iterator@QAssociativeIterable@kso_qt@@QEBA?AU012@H@Z
??Hconst_iterator@QSequentialIterable@kso_qt@@QEBA?AU012@H@Z
??Hkso_qt@@YA?AVQDeadlineTimer@0@V10@_J@Z
??IQRect@kso_qt@@QEBA?AV01@AEBV01@@Z
??IQRectF@kso_qt@@QEBA?AV01@AEBV01@@Z
??Ikso_qt@@YA?AVQBitArray@0@AEBV10@0@Z
??MQByteArray@kso_qt@@QEBA_NAEBVQString@1@@Z
??MQByteRef@kso_qt@@QEBA_ND@Z
??MQCborArray@kso_qt@@QEBA_NAEBV01@@Z
??MQCborMap@kso_qt@@QEBA_NAEBV01@@Z
??MQCborValue@kso_qt@@QEBA_NAEBV01@@Z
??MQCborValueRef@kso_qt@@QEBA_NAEBVQCborValue@1@@Z
??MQDate@kso_qt@@QEBA_NAEBV01@@Z
??MQDateTime@kso_qt@@QEBA_NAEBV01@@Z
??MQItemSelectionRange@kso_qt@@QEBA_NAEBV01@@Z
??MQModelIndex@kso_qt@@QEBA_NAEBV01@@Z
??MQPersistentModelIndex@kso_qt@@QEBA_NAEBV01@@Z
??MQString@kso_qt@@QEBA_NAEBVQByteArray@1@@Z
??MQString@kso_qt@@QEBA_NPEBD@Z
??MQString@kso_qt@@QEBA_NVQLatin1String@1@@Z
??MQStringRef@kso_qt@@QEBA_NPEBD@Z
??MQTime@kso_qt@@QEBA_NAEBV01@@Z
??MQUrl@kso_qt@@QEBA_NAEBV01@@Z
??MQUuid@kso_qt@@QEBA_NAEBV01@@Z
??MQVariant@kso_qt@@QEBA_NAEBV01@@Z
??Mkso_qt@@YA_NAEBVQElapsedTimer@0@0@Z
??Mkso_qt@@YA_NAEBVQString@0@0@Z
??Mkso_qt@@YA_NAEBVQStringRef@0@0@Z
??NQByteArray@kso_qt@@QEBA_NAEBVQString@1@@Z
??NQByteRef@kso_qt@@QEBA_ND@Z
??NQDate@kso_qt@@QEBA_NAEBV01@@Z
??NQDateTime@kso_qt@@QEBA_NAEBV01@@Z
??NQString@kso_qt@@QEBA_NAEBVQByteArray@1@@Z
??NQString@kso_qt@@QEBA_NPEBD@Z
??NQString@kso_qt@@QEBA_NVQLatin1String@1@@Z
??NQStringRef@kso_qt@@QEBA_NPEBD@Z
??NQTime@kso_qt@@QEBA_NAEBV01@@Z
??NQVariant@kso_qt@@QEBA_NAEBV01@@Z
??OQByteArray@kso_qt@@QEBA_NAEBVQString@1@@Z
??OQByteRef@kso_qt@@QEBA_ND@Z
??OQDate@kso_qt@@QEBA_NAEBV01@@Z
??OQDateTime@kso_qt@@QEBA_NAEBV01@@Z
??OQString@kso_qt@@QEBA_NAEBVQByteArray@1@@Z
??OQString@kso_qt@@QEBA_NPEBD@Z
??OQString@kso_qt@@QEBA_NVQLatin1String@1@@Z
??OQStringRef@kso_qt@@QEBA_NPEBD@Z
??OQTime@kso_qt@@QEBA_NAEBV01@@Z
??OQUuid@kso_qt@@QEBA_NAEBV01@@Z
??OQVariant@kso_qt@@QEBA_NAEBV01@@Z
??PQByteArray@kso_qt@@QEBA_NAEBVQString@1@@Z
??PQByteRef@kso_qt@@QEBA_ND@Z
??PQDate@kso_qt@@QEBA_NAEBV01@@Z
??PQDateTime@kso_qt@@QEBA_NAEBV01@@Z
??PQString@kso_qt@@QEBA_NAEBVQByteArray@1@@Z
??PQString@kso_qt@@QEBA_NPEBD@Z
??PQString@kso_qt@@QEBA_NVQLatin1String@1@@Z
??PQStringRef@kso_qt@@QEBA_NPEBD@Z
??PQTime@kso_qt@@QEBA_NAEBV01@@Z
??PQVariant@kso_qt@@QEBA_NAEBV01@@Z
??RQCollator@kso_qt@@QEBA_NAEBVQString@1@0@Z
??RQLoggingCategory@kso_qt@@QEAAAEAV01@XZ
??RQLoggingCategory@kso_qt@@QEBAAEBV01@XZ
??SQBitArray@kso_qt@@QEBA?AV01@XZ
??Tkso_qt@@YA?AVQBitArray@0@AEBV10@0@Z
??UQRect@kso_qt@@QEBA?AV01@AEBV01@@Z
??UQRectF@kso_qt@@QEBA?AV01@AEBV01@@Z
??Ukso_qt@@YA?AVQBitArray@0@AEBV10@0@Z
??XQPoint@kso_qt@@QEAAAEAV01@H@Z
??XQPoint@kso_qt@@QEAAAEAV01@M@Z
??XQPoint@kso_qt@@QEAAAEAV01@N@Z
??XQPointF@kso_qt@@QEAAAEAV01@N@Z
??XQSize@kso_qt@@QEAAAEAV01@N@Z
??XQSizeF@kso_qt@@QEAAAEAV01@N@Z
??Y?$QList@VQItemSelectionRange@kso_qt@@@kso_qt@@QEAAAEAV01@AEBV01@@Z
??Y?$QList@VQItemSelectionRange@kso_qt@@@kso_qt@@QEAAAEAV01@AEBVQItemSelectionRange@1@@Z
??Y?$QVector@VQPoint@kso_qt@@@kso_qt@@QEAAAEAV01@$$QEAVQPoint@1@@Z
??Y?$QVector@VQPoint@kso_qt@@@kso_qt@@QEAAAEAV01@AEBV01@@Z
??Y?$QVector@VQPoint@kso_qt@@@kso_qt@@QEAAAEAV01@AEBVQPoint@1@@Z
??Y?$QVector@VQPointF@kso_qt@@@kso_qt@@QEAAAEAV01@$$QEAVQPointF@1@@Z
??Y?$QVector@VQPointF@kso_qt@@@kso_qt@@QEAAAEAV01@AEBV01@@Z
??Y?$QVector@VQPointF@kso_qt@@@kso_qt@@QEAAAEAV01@AEBVQPointF@1@@Z
??Y?$QVector@VQXmlStreamAttribute@kso_qt@@@kso_qt@@QEAAAEAV01@$$QEAVQXmlStreamAttribute@1@@Z
??Y?$QVector@VQXmlStreamAttribute@kso_qt@@@kso_qt@@QEAAAEAV01@AEBV01@@Z
??Y?$QVector@VQXmlStreamAttribute@kso_qt@@@kso_qt@@QEAAAEAV01@AEBVQXmlStreamAttribute@1@@Z
??YQByteArray@kso_qt@@QEAAAEAV01@AEBV01@@Z
??YQByteArray@kso_qt@@QEAAAEAV01@AEBVQString@1@@Z
??YQByteArray@kso_qt@@QEAAAEAV01@D@Z
??YQByteArray@kso_qt@@QEAAAEAV01@PEBD@Z
??YQCborArray@kso_qt@@QEAAAEAV01@AEBVQCborValue@1@@Z
??YQDeadlineTimer@kso_qt@@QEAAAEAV01@_J@Z
??YQJsonArray@kso_qt@@QEAAAEAV01@AEBVQJsonValue@1@@Z
??YQPoint@kso_qt@@QEAAAEAV01@AEBV01@@Z
??YQPointF@kso_qt@@QEAAAEAV01@AEBV01@@Z
??YQRect@kso_qt@@QEAAAEAV01@AEBVQMargins@1@@Z
??YQRectF@kso_qt@@QEAAAEAV01@AEBVQMarginsF@1@@Z
??YQSize@kso_qt@@QEAAAEAV01@AEBV01@@Z
??YQSizeF@kso_qt@@QEAAAEAV01@AEBV01@@Z
??YQString@kso_qt@@QEAAAEAV01@AEBV01@@Z
??YQString@kso_qt@@QEAAAEAV01@AEBVQByteArray@1@@Z
??YQString@kso_qt@@QEAAAEAV01@AEBVQStringRef@1@@Z
??YQString@kso_qt@@QEAAAEAV01@D@Z
??YQString@kso_qt@@QEAAAEAV01@PEBD@Z
??YQString@kso_qt@@QEAAAEAV01@VQChar@1@@Z
??YQString@kso_qt@@QEAAAEAV01@VQLatin1String@1@@Z
??YQString@kso_qt@@QEAAAEAV01@W4SpecialCharacter@QChar@1@@Z
??Yconst_iterator@QAssociativeIterable@kso_qt@@QEAAAEAU012@H@Z
??Yconst_iterator@QSequentialIterable@kso_qt@@QEAAAEAU012@H@Z
??ZQDeadlineTimer@kso_qt@@QEAAAEAV01@_J@Z
??ZQPoint@kso_qt@@QEAAAEAV01@AEBV01@@Z
??ZQPointF@kso_qt@@QEAAAEAV01@AEBV01@@Z
??ZQRect@kso_qt@@QEAAAEAV01@AEBVQMargins@1@@Z
??ZQRectF@kso_qt@@QEAAAEAV01@AEBVQMarginsF@1@@Z
??ZQSize@kso_qt@@QEAAAEAV01@AEBV01@@Z
??ZQSizeF@kso_qt@@QEAAAEAV01@AEBV01@@Z
??Zconst_iterator@QAssociativeIterable@kso_qt@@QEAAAEAU012@H@Z
??Zconst_iterator@QSequentialIterable@kso_qt@@QEAAAEAU012@H@Z
??_0QPoint@kso_qt@@QEAAAEAV01@N@Z
??_0QPointF@kso_qt@@QEAAAEAV01@N@Z
??_0QSize@kso_qt@@QEAAAEAV01@N@Z
??_0QSizeF@kso_qt@@QEAAAEAV01@N@Z
??_4QBitArray@kso_qt@@QEAAAEAV01@AEBV01@@Z
??_4QRect@kso_qt@@QEAAAEAV01@AEBV01@@Z
??_4QRectF@kso_qt@@QEAAAEAV01@AEBV01@@Z
??_5QBitArray@kso_qt@@QEAAAEAV01@AEBV01@@Z
??_5QRect@kso_qt@@QEAAAEAV01@AEBV01@@Z
??_5QRectF@kso_qt@@QEAAAEAV01@AEBV01@@Z
??_6QBitArray@kso_qt@@QEAAAEAV01@AEBV01@@Z
??_7QAbstractAnimation@kso_qt@@6B@
??_7QAbstractAnimationTimer@kso_qt@@6B@
??_7QAbstractDynamicMetaObject@kso_qt@@6B@
??_7QAbstractEventDispatcher@kso_qt@@6B@
??_7QAbstractEventDispatcherPrivate@kso_qt@@6B@
??_7QAbstractFileEngine@kso_qt@@6B@
??_7QAbstractFileEngineHandler@kso_qt@@6B@
??_7QAbstractFileEngineIterator@kso_qt@@6B@
??_7QAbstractItemModel@kso_qt@@6B@
??_7QAbstractItemModelPrivate@kso_qt@@6B@
??_7QAbstractListModel@kso_qt@@6B@
??_7QAbstractNativeEventFilter@kso_qt@@6B@
??_7QAbstractProxyModel@kso_qt@@6B@
??_7QAbstractProxyModelPrivate@kso_qt@@6B@
??_7QAbstractState@kso_qt@@6B@
??_7QAbstractTableModel@kso_qt@@6B@
??_7QAbstractTransition@kso_qt@@6B@
??_7QAbstractTransitionPrivate@kso_qt@@6B@
??_7QAnimationDriver@kso_qt@@6B@
??_7QAnimationDriverPrivate@kso_qt@@6B@
??_7QAnimationGroup@kso_qt@@6B@
??_7QAppThemeChangeEvent@kso_qt@@6B@
??_7QBuffer@kso_qt@@6B@
??_7QChildEvent@kso_qt@@6B@
??_7QCoreApplication@kso_qt@@6B@
??_7QCoreApplicationPrivate@kso_qt@@6B@
??_7QDaemonThread@kso_qt@@6B@
??_7QDateTimeParser@kso_qt@@6B@
??_7QDeferredDeleteEvent@kso_qt@@6B@
??_7QDynamicMetaObjectData@kso_qt@@6B@
??_7QDynamicPropertyChangeEvent@kso_qt@@6B@
??_7QEvent@kso_qt@@6B@
??_7QEventDispatcherWin32@kso_qt@@6B@
??_7QEventDispatcherWin32Private@kso_qt@@6B@
??_7QEventLoop@kso_qt@@6B@
??_7QEventTransition@kso_qt@@6B@
??_7QEventTransitionPrivate@kso_qt@@6B@
??_7QException@kso_qt@@6B@
??_7QFSFileEngine@kso_qt@@6B@
??_7QFSFileEnginePrivate@kso_qt@@6B@
??_7QFactoryInterface@kso_qt@@6B@
??_7QFactoryLoader@kso_qt@@6B@
??_7QFile@kso_qt@@6B@
??_7QFileDevice@kso_qt@@6B@
??_7QFileSelector@kso_qt@@6B@
??_7QFileSelectorPrivate@kso_qt@@6B@
??_7QFileSystemWatcher@kso_qt@@6B@
??_7QFinalState@kso_qt@@6B@
??_7QFinalStatePrivate@kso_qt@@6B@
??_7QFutureInterfaceBase@kso_qt@@6B@
??_7QFutureWatcherBase@kso_qt@@6B@
??_7QHistoryState@kso_qt@@6B@
??_7QIODevice@kso_qt@@6B@
??_7QIODevicePrivate@kso_qt@@6B@
??_7QIdentityProxyModel@kso_qt@@6B@
??_7QItemSelectionModel@kso_qt@@6B@
??_7QLibrary@kso_qt@@6B@
??_7QMetaCallEvent@kso_qt@@6B@
??_7QMetaObjectBuilder@kso_qt@@6B@
??_7QMimeData@kso_qt@@6B@
??_7QNonContiguousByteDevice@kso_qt@@6B@
??_7QObject@kso_qt@@6B@
??_7QObjectCleanupHandler@kso_qt@@6B@
??_7QObjectData@kso_qt@@6B@
??_7QObjectPrivate@kso_qt@@6B@
??_7QObjectUserData@kso_qt@@6B@
??_7QParallelAnimationGroup@kso_qt@@6B@
??_7QPauseAnimation@kso_qt@@6B@
??_7QPluginLoader@kso_qt@@6B@
??_7QProcess@kso_qt@@6B@
??_7QPropertyAnimation@kso_qt@@6B@
??_7QRunnable@kso_qt@@6B@
??_7QSaveFile@kso_qt@@6B@
??_7QSequentialAnimationGroup@kso_qt@@6B@
??_7QSettings@kso_qt@@6B@
??_7QSettingsPrivate@kso_qt@@6B@
??_7QSharedMemory@kso_qt@@6B@
??_7QSharedMemoryPrivate@kso_qt@@6B@
??_7QSignalMapper@kso_qt@@6B@
??_7QSignalTransition@kso_qt@@6B@
??_7QSocketNotifier@kso_qt@@6B@
??_7QSortFilterProxyModel@kso_qt@@6B@
??_7QState@kso_qt@@6B@
??_7QStateMachine@kso_qt@@6B@
??_7QStateMachinePrivate@kso_qt@@6B@
??_7QStatePrivate@kso_qt@@6B@
??_7QStringListModel@kso_qt@@6B@
??_7QSystemLocale@kso_qt@@6B@
??_7QTemporaryFile@kso_qt@@6B@
??_7QTextCodec@kso_qt@@6B@
??_7QTextStream@kso_qt@@6B@
??_7QThread@kso_qt@@6B@
??_7QThreadPool@kso_qt@@6B@
??_7QThreadPoolPrivate@kso_qt@@6B@
??_7QTimeLine@kso_qt@@6B@
??_7QTimeZonePrivate@kso_qt@@6B@
??_7QTimer@kso_qt@@6B@
??_7QTimerEvent@kso_qt@@6B@
??_7QTranslator@kso_qt@@6B@
??_7QUnhandledException@kso_qt@@6B@
??_7QUnifiedTimer@kso_qt@@6B@
??_7QUtcTimeZonePrivate@kso_qt@@6B@
??_7QVariantAnimation@kso_qt@@6B@
??_7QWinEventNotifier@kso_qt@@6B@
??_7QWinTimeZonePrivate@kso_qt@@6B@
??_7QWindowsPipeReader@kso_qt@@6B@
??_7QWindowsPipeWriter@kso_qt@@6B@
??_7QXmlStreamEntityResolver@kso_qt@@6B@
??_7ResultStoreBase@QtPrivate@kso_qt@@6B@
??_7SignalEvent@QStateMachine@kso_qt@@6B@
??_7WrappedEvent@QStateMachine@kso_qt@@6B@
??_FConverterState@QTextCodec@kso_qt@@QEAAXXZ
??_FExceptionHolder@QtPrivate@kso_qt@@QEAAXXZ
??_FQAbstractAnimation@kso_qt@@QEAAXXZ
??_FQAbstractEventDispatcher@kso_qt@@QEAAXXZ
??_FQAbstractItemModel@kso_qt@@QEAAXXZ
??_FQAbstractListModel@kso_qt@@QEAAXXZ
??_FQAbstractProxyModel@kso_qt@@QEAAXXZ
??_FQAbstractState@kso_qt@@QEAAXXZ
??_FQAbstractTableModel@kso_qt@@QEAAXXZ
??_FQAbstractTransition@kso_qt@@QEAAXXZ
??_FQAnimationDriver@kso_qt@@QEAAXXZ
??_FQAnimationGroup@kso_qt@@QEAAXXZ
??_FQBuffer@kso_qt@@QEAAXXZ
??_FQCollator@kso_qt@@QEAAXXZ
??_FQDaemonThread@kso_qt@@QEAAXXZ
??_FQDeadlineTimer@kso_qt@@QEAAXXZ
??_FQDir@kso_qt@@QEAAXXZ
??_FQEasingCurve@kso_qt@@QEAAXXZ
??_FQEventDispatcherWin32@kso_qt@@QEAAXXZ
??_FQEventLoop@kso_qt@@QEAAXXZ
??_FQEventTransition@kso_qt@@QEAAXXZ
??_FQFileSelector@kso_qt@@QEAAXXZ
??_FQFileSystemWatcher@kso_qt@@QEAAXXZ
??_FQFinalState@kso_qt@@QEAAXXZ
??_FQFutureInterfaceBase@kso_qt@@QEAAXXZ
??_FQFutureWatcherBase@kso_qt@@QEAAXXZ
??_FQGenericArgument@kso_qt@@QEAAXXZ
??_FQGenericReturnArgument@kso_qt@@QEAAXXZ
??_FQHistoryState@kso_qt@@QEAAXXZ
??_FQIdentityProxyModel@kso_qt@@QEAAXXZ
??_FQItemSelectionModel@kso_qt@@QEAAXXZ
??_FQJsonValue@kso_qt@@QEAAXXZ
??_FQLibrary@kso_qt@@QEAAXXZ
??_FQMutex@kso_qt@@QEAAXXZ
??_FQMutexPool@kso_qt@@QEAAXXZ
??_FQObject@kso_qt@@QEAAXXZ
??_FQObjectPrivate@kso_qt@@QEAAXXZ
??_FQParallelAnimationGroup@kso_qt@@QEAAXXZ
??_FQPauseAnimation@kso_qt@@QEAAXXZ
??_FQPluginLoader@kso_qt@@QEAAXXZ
??_FQProcess@kso_qt@@QEAAXXZ
??_FQPropertyAnimation@kso_qt@@QEAAXXZ
??_FQReadWriteLock@kso_qt@@QEAAXXZ
??_FQResource@kso_qt@@QEAAXXZ
??_FQSaveFile@kso_qt@@QEAAXXZ
??_FQSemaphore@kso_qt@@QEAAXXZ
??_FQSequentialAnimationGroup@kso_qt@@QEAAXXZ
??_FQSettings@kso_qt@@QEAAXXZ
??_FQSharedMemory@kso_qt@@QEAAXXZ
??_FQSignalMapper@kso_qt@@QEAAXXZ
??_FQSignalTransition@kso_qt@@QEAAXXZ
??_FQSortFilterProxyModel@kso_qt@@QEAAXXZ
??_FQState@kso_qt@@QEAAXXZ
??_FQStateMachine@kso_qt@@QEAAXXZ
??_FQStringListModel@kso_qt@@QEAAXXZ
??_FQThread@kso_qt@@QEAAXXZ
??_FQThreadPool@kso_qt@@QEAAXXZ
??_FQTimeLine@kso_qt@@QEAAXXZ
??_FQTimer@kso_qt@@QEAAXXZ
??_FQTranslator@kso_qt@@QEAAXXZ
??_FQVariantAnimation@kso_qt@@QEAAXXZ
??_FQWinEventNotifier@kso_qt@@QEAAXXZ
??_FQWindowsPipeReader@kso_qt@@QEAAXXZ
?AndroidJellyBean@QOperatingSystemVersion@kso_qt@@2V12@B
?AndroidJellyBean_MR1@QOperatingSystemVersion@kso_qt@@2V12@B
?AndroidJellyBean_MR2@QOperatingSystemVersion@kso_qt@@2V12@B
?AndroidKitKat@QOperatingSystemVersion@kso_qt@@2V12@B
?AndroidLollipop@QOperatingSystemVersion@kso_qt@@2V12@B
?AndroidLollipop_MR1@QOperatingSystemVersion@kso_qt@@2V12@B
?AndroidMarshmallow@QOperatingSystemVersion@kso_qt@@2V12@B
?AndroidNougat@QOperatingSystemVersion@kso_qt@@2V12@B
?AndroidNougat_MR1@QOperatingSystemVersion@kso_qt@@2V12@B
?AndroidOreo@QOperatingSystemVersion@kso_qt@@2V12@B
?BinaryFormatTag@QJsonDocument@kso_qt@@2IB
?MacOSBigSur@QOperatingSystemVersion@kso_qt@@2V12@B
?MacOSCatalina@QOperatingSystemVersion@kso_qt@@2V12@B
?MacOSHighSierra@QOperatingSystemVersion@kso_qt@@2V12@B
?MacOSMojave@QOperatingSystemVersion@kso_qt@@2V12@B
?MacOSSierra@QOperatingSystemVersion@kso_qt@@2V12@B
?MacintoshVersion@QSysInfo@kso_qt@@2W4MacVersion@12@B
?OSXElCapitan@QOperatingSystemVersion@kso_qt@@2V12@B
?OSXMavericks@QOperatingSystemVersion@kso_qt@@2V12@B
?OSXYosemite@QOperatingSystemVersion@kso_qt@@2V12@B
?QByteArrayList_join@QtPrivate@kso_qt@@YA?AVQByteArray@2@PEBV?$QList@VQByteArray@kso_qt@@@2@PEBDH@Z
?QStringList_contains@QtPrivate@kso_qt@@YA_NPEBVQStringList@2@AEBVQString@2@W4CaseSensitivity@Qt@2@@Z
?QStringList_contains@QtPrivate@kso_qt@@YA_NPEBVQStringList@2@VQLatin1String@2@W4CaseSensitivity@Qt@2@@Z
?QStringList_contains@QtPrivate@kso_qt@@YA_NPEBVQStringList@2@VQStringView@2@W4CaseSensitivity@Qt@2@@Z
?QStringList_filter@QtPrivate@kso_qt@@YA?AVQStringList@2@PEBV32@AEBVQRegExp@2@@Z
?QStringList_filter@QtPrivate@kso_qt@@YA?AVQStringList@2@PEBV32@AEBVQRegularExpression@2@@Z
?QStringList_filter@QtPrivate@kso_qt@@YA?AVQStringList@2@PEBV32@AEBVQString@2@W4CaseSensitivity@Qt@2@@Z
?QStringList_indexOf@QtPrivate@kso_qt@@YAHPEBVQStringList@2@AEAVQRegExp@2@H@Z
?QStringList_indexOf@QtPrivate@kso_qt@@YAHPEBVQStringList@2@AEBVQRegExp@2@H@Z
?QStringList_indexOf@QtPrivate@kso_qt@@YAHPEBVQStringList@2@AEBVQRegularExpression@2@H@Z
?QStringList_join@QtPrivate@kso_qt@@YA?AVQString@2@AEBVQStringList@2@VQLatin1String@2@@Z
?QStringList_join@QtPrivate@kso_qt@@YA?AVQString@2@PEBVQStringList@2@PEBVQChar@2@H@Z
?QStringList_lastIndexOf@QtPrivate@kso_qt@@YAHPEBVQStringList@2@AEAVQRegExp@2@H@Z
?QStringList_lastIndexOf@QtPrivate@kso_qt@@YAHPEBVQStringList@2@AEBVQRegExp@2@H@Z
?QStringList_lastIndexOf@QtPrivate@kso_qt@@YAHPEBVQStringList@2@AEBVQRegularExpression@2@H@Z
?QStringList_removeDuplicates@QtPrivate@kso_qt@@YAHPEAVQStringList@2@@Z
?QStringList_replaceInStrings@QtPrivate@kso_qt@@YAXPEAVQStringList@2@AEBVQRegExp@2@AEBVQString@2@@Z
?QStringList_replaceInStrings@QtPrivate@kso_qt@@YAXPEAVQStringList@2@AEBVQRegularExpression@2@AEBVQString@2@@Z
?QStringList_replaceInStrings@QtPrivate@kso_qt@@YAXPEAVQStringList@2@AEBVQString@2@1W4CaseSensitivity@Qt@2@@Z
?QStringList_sort@QtPrivate@kso_qt@@YAXPEAVQStringList@2@W4CaseSensitivity@Qt@2@@Z
?Sizes@QFreeListDefaultConstants@kso_qt@@2QBHB
?Windows10@QOperatingSystemVersion@kso_qt@@2V12@B
?Windows2003@QOperatingSystemVersion@kso_qt@@2V12@B
?Windows7@QOperatingSystemVersion@kso_qt@@2V12@B
?Windows8@QOperatingSystemVersion@kso_qt@@2V12@B
?Windows8_1@QOperatingSystemVersion@kso_qt@@2V12@B
?WindowsVersion@QSysInfo@kso_qt@@2W4WinVersion@12@B
?WindowsVista@QOperatingSystemVersion@kso_qt@@2V12@B
?WindowsXP@QOperatingSystemVersion@kso_qt@@2V12@B
?_currentStringChunkSize@QCborStreamReader@kso_qt@@AEBA_JXZ
?_enterContainer_helper@QCborStreamReader@kso_qt@@AEAA_NXZ
?_fillRange@QRandomGenerator@kso_qt@@AEAAXPEAX0@Z
?_q_animationFinished@QStateMachinePrivate@kso_qt@@QEAAXXZ
?_q_data@QDeadlineTimer@kso_qt@@QEBA?AU?$QPair@_JI@2@XZ
?_q_killDelayedEventTimer@QStateMachinePrivate@kso_qt@@QEAAXHH@Z
?_q_process@QStateMachinePrivate@kso_qt@@QEAAXXZ
?_q_queueBytesWritten@QWindowsPipeWriter@kso_qt@@QEAAXUQPrivateSignal@12@@Z
?_q_queueReadyRead@QWindowsPipeReader@kso_qt@@QEAAXUQPrivateSignal@12@@Z
?_q_reregisterTimers@QObjectPrivate@kso_qt@@QEAAXPEAX@Z
?_q_sourceModelDestroyed@QAbstractProxyModelPrivate@kso_qt@@UEAAXXZ
?_q_start@QStateMachinePrivate@kso_qt@@QEAAXXZ
?_q_startDelayedEventTimer@QStateMachinePrivate@kso_qt@@QEAAXHH@Z
?_readByteArray_helper@QCborStreamReader@kso_qt@@AEAA?AU?$StringResult@VQByteArray@kso_qt@@@12@XZ
?_readString_helper@QCborStreamReader@kso_qt@@AEAA?AU?$StringResult@VQString@kso_qt@@@12@XZ
?abbreviation@QTimeZone@kso_qt@@QEBA?AVQString@2@AEBVQDateTime@2@@Z
?abbreviation@QTimeZonePrivate@kso_qt@@UEBA?AVQString@2@_J@Z
?abbreviation@QUtcTimeZonePrivate@kso_qt@@UEBA?AVQString@2@_J@Z
?abbreviation@QWinTimeZonePrivate@kso_qt@@UEBA?AVQString@2@_J@Z
?abortTransaction@QDataStream@kso_qt@@QEAAXXZ
?aboutToBlock@QAbstractEventDispatcher@kso_qt@@QEAAXXZ
?aboutToClose@QIODevice@kso_qt@@QEAAXXZ
?aboutToQuit@QCoreApplication@kso_qt@@QEAAXUQPrivateSignal@12@@Z
?absoluteDir@QFileInfo@kso_qt@@QEBA?AVQDir@2@XZ
?absoluteFilePath@QDir@kso_qt@@QEBA?AVQString@2@AEBV32@@Z
?absoluteFilePath@QFileInfo@kso_qt@@QEBA?AVQString@2@XZ
?absoluteFilePath@QResource@kso_qt@@QEBA?AVQString@2@XZ
?absoluteMax@QDateTimeParser@kso_qt@@IEBAHHAEBVQDateTime@2@@Z
?absoluteMin@QDateTimeParser@kso_qt@@IEBAHH@Z
?absolutePath@QDir@kso_qt@@QEBA?AVQString@2@XZ
?absolutePath@QFileInfo@kso_qt@@QEBA?AVQString@2@XZ
?absoluteSignalCount@QMetaObjectPrivate@kso_qt@@SAHPEBUQMetaObject@2@@Z
?accept@QEvent@kso_qt@@QEAAXXZ
?access@QMetaMethod@kso_qt@@QEBA?AW4Access@12@XZ
?access@QMetaMethodBuilder@kso_qt@@QEBA?AW4Access@QMetaMethod@2@XZ
?accessTime@QFileSystemMetaData@kso_qt@@QEBA?AVQDateTime@2@XZ
?acquire@QSemaphore@kso_qt@@QEAAXH@Z
?acquire@QSystemSemaphore@kso_qt@@QEAA_NXZ
?activate@QMetaObject@kso_qt@@SAXPEAVQObject@2@HHPEAPEAX@Z
?activate@QMetaObject@kso_qt@@SAXPEAVQObject@2@HPEAPEAX@Z
?activate@QMetaObject@kso_qt@@SAXPEAVQObject@2@PEBU12@HPEAPEAX@Z
?activateCallbacks@QInternal@kso_qt@@SA_NW4Callback@12@PEAPEAX@Z
?activateEventNotifier@QEventDispatcherWin32Private@kso_qt@@QEAAXPEAVQWinEventNotifier@2@@Z
?activateEventNotifiers@QEventDispatcherWin32@kso_qt@@QEAAXXZ
?activated@QSocketNotifier@kso_qt@@QEAAXHUQPrivateSignal@12@@Z
?activated@QWinEventNotifier@kso_qt@@QEAAXPEAXUQPrivateSignal@12@@Z
?active@QAbstractState@kso_qt@@QEBA_NXZ
?activeChanged@QAbstractState@kso_qt@@QEAAX_N@Z
?activeThreadCount@QThreadPool@kso_qt@@QEBAHXZ
?activeThreadCount@QThreadPoolPrivate@kso_qt@@QEBAHXZ
?actualKey@QSettingsPrivate@kso_qt@@QEBA?AVQString@2@AEBV32@@Z
?add@QObjectCleanupHandler@kso_qt@@QEAAPEAVQObject@2@PEAV32@@Z
?addAncestorStatesToEnter@QStateMachinePrivate@kso_qt@@QEAAXPEAVQAbstractState@2@0AEAV?$QSet@PEAVQAbstractState@kso_qt@@@2@1@Z
?addAnimation@QAbstractTransition@kso_qt@@QEAAXPEAVQAbstractAnimation@2@@Z
?addAnimation@QAnimationGroup@kso_qt@@QEAAXPEAVQAbstractAnimation@2@@Z
?addCanceledResult@ResultStoreBase@QtPrivate@kso_qt@@QEAAHH@Z
?addClassInfo@QMetaObjectBuilder@kso_qt@@QEAAHAEBVQByteArray@2@0@Z
?addConnection@QObjectPrivate@kso_qt@@QEAAXHPEAUConnection@12@@Z
?addConstructor@QMetaObjectBuilder@kso_qt@@QEAA?AVQMetaMethodBuilder@2@AEBVQByteArray@2@@Z
?addConstructor@QMetaObjectBuilder@kso_qt@@QEAA?AVQMetaMethodBuilder@2@AEBVQMetaMethod@2@@Z
?addCubicBezierSegment@QEasingCurve@kso_qt@@QEAAXAEBVQPointF@2@00@Z
?addData@QCborStreamReader@kso_qt@@QEAAXAEBVQByteArray@2@@Z
?addData@QCborStreamReader@kso_qt@@QEAAXPEBD_J@Z
?addData@QCborStreamReader@kso_qt@@QEAAXPEBE_J@Z
?addData@QCryptographicHash@kso_qt@@QEAAXAEBVQByteArray@2@@Z
?addData@QCryptographicHash@kso_qt@@QEAAXPEBDH@Z
?addData@QCryptographicHash@kso_qt@@QEAA_NPEAVQIODevice@2@@Z
?addData@QMessageAuthenticationCode@kso_qt@@QEAAXAEBVQByteArray@2@@Z
?addData@QMessageAuthenticationCode@kso_qt@@QEAAXPEBDH@Z
?addData@QMessageAuthenticationCode@kso_qt@@QEAA_NPEAVQIODevice@2@@Z
?addData@QXmlStreamReader@kso_qt@@QEAAXAEBVQByteArray@2@@Z
?addData@QXmlStreamReader@kso_qt@@QEAAXAEBVQString@2@@Z
?addData@QXmlStreamReader@kso_qt@@QEAAXPEBD@Z
?addDays@QDate@kso_qt@@QEBA?AV12@_J@Z
?addDays@QDateTime@kso_qt@@QEBA?AV12@_J@Z
?addDefaultAnimation@QStateMachine@kso_qt@@QEAAXPEAVQAbstractAnimation@2@@Z
?addDescendantStatesToEnter@QStateMachinePrivate@kso_qt@@QEAAXPEAVQAbstractState@2@AEAV?$QSet@PEAVQAbstractState@kso_qt@@@2@1@Z
?addEncodedQueryItem@QUrl@kso_qt@@QEAAXAEBVQByteArray@2@0@Z
?addEnumerator@QMetaObjectBuilder@kso_qt@@QEAA?AVQMetaEnumBuilder@2@AEBVQByteArray@2@@Z
?addEnumerator@QMetaObjectBuilder@kso_qt@@QEAA?AVQMetaEnumBuilder@2@AEBVQMetaEnum@2@@Z
?addExtraNamespaceDeclaration@QXmlStreamReader@kso_qt@@QEAAXAEBVQXmlStreamNamespaceDeclaration@2@@Z
?addExtraNamespaceDeclarations@QXmlStreamReader@kso_qt@@QEAAXAEBV?$QVector@VQXmlStreamNamespaceDeclaration@kso_qt@@@2@@Z
?addGlobPattern@QMimeTypePrivate@kso_qt@@QEAAXAEBVQString@2@@Z
?addHelpOption@QCommandLineParser@kso_qt@@QEAA?AVQCommandLineOption@2@XZ
?addKey@QMetaEnumBuilder@kso_qt@@QEAAHAEBVQByteArray@2@H@Z
?addLibraryPath@QCoreApplication@kso_qt@@SAXAEBVQString@2@@Z
?addMSecs@QDateTime@kso_qt@@QEBA?AV12@_J@Z
?addMSecs@QTime@kso_qt@@QEBA?AV12@H@Z
?addMetaObject@QMetaObjectBuilder@kso_qt@@QEAAXPEBUQMetaObject@2@V?$QFlags@W4AddMember@QMetaObjectBuilder@kso_qt@@@2@@Z
?addMethod@QMetaObjectBuilder@kso_qt@@QEAA?AVQMetaMethodBuilder@2@AEBVQByteArray@2@0@Z
?addMethod@QMetaObjectBuilder@kso_qt@@QEAA?AVQMetaMethodBuilder@2@AEBVQByteArray@2@@Z
?addMethod@QMetaObjectBuilder@kso_qt@@QEAA?AVQMetaMethodBuilder@2@AEBVQMetaMethod@2@@Z
?addMonths@QDate@kso_qt@@QEBA?AV12@H@Z
?addMonths@QDateTime@kso_qt@@QEBA?AV12@H@Z
?addNSecs@QDeadlineTimer@kso_qt@@SA?AV12@V12@_J@Z
?addOption@QCommandLineParser@kso_qt@@QEAA_NAEBVQCommandLineOption@2@@Z
?addOptions@QCommandLineParser@kso_qt@@QEAA_NAEBV?$QList@VQCommandLineOption@kso_qt@@@2@@Z
?addPath@QFileSystemWatcher@kso_qt@@QEAA_NAEBVQString@2@@Z
?addPaths@QFileSystemWatcher@kso_qt@@QEAA?AVQStringList@2@AEBV32@@Z
?addPause@QSequentialAnimationGroup@kso_qt@@QEAAPEAVQPauseAnimation@2@H@Z
?addPositionalArgument@QCommandLineParser@kso_qt@@QEAAXAEBVQString@2@00@Z
?addProperty@QMetaObjectBuilder@kso_qt@@QEAA?AVQMetaPropertyBuilder@2@AEBVQByteArray@2@0H@Z
?addProperty@QMetaObjectBuilder@kso_qt@@QEAA?AVQMetaPropertyBuilder@2@AEBVQMetaProperty@2@@Z
?addQueryItem@QUrl@kso_qt@@QEAAXAEBVQString@2@0@Z
?addQueryItem@QUrlQuery@kso_qt@@QEAAXAEBVQString@2@0@Z
?addRelatedMetaObject@QMetaObjectBuilder@kso_qt@@QEAAHPEBUQMetaObject@2@@Z
?addResourceSearchPath@QDir@kso_qt@@SAXAEBVQString@2@@Z
?addResult@ResultStoreBase@QtPrivate@kso_qt@@QEAAHHPEBX@Z
?addResults@ResultStoreBase@QtPrivate@kso_qt@@QEAAHHPEBXHH@Z
?addSearchPath@QDir@kso_qt@@SAXAEBVQString@2@0@Z
?addSearchPath@QResource@kso_qt@@SAXAEBVQString@2@@Z
?addSecs@QDateTime@kso_qt@@QEBA?AV12@_J@Z
?addSecs@QTime@kso_qt@@QEBA?AV12@H@Z
?addSignal@QMetaObjectBuilder@kso_qt@@QEAA?AVQMetaMethodBuilder@2@AEBVQByteArray@2@@Z
?addSlot@QMetaObjectBuilder@kso_qt@@QEAA?AVQMetaMethodBuilder@2@AEBVQByteArray@2@@Z
?addState@QStateMachine@kso_qt@@QEAAXPEAVQAbstractState@2@@Z
?addStatics@QFileSelectorPrivate@kso_qt@@SAXAEBVQStringList@2@@Z
?addTCBSegment@QEasingCurve@kso_qt@@QEAAXAEBVQPointF@2@NNN@Z
?addTransition@QState@kso_qt@@QEAAPEAVQAbstractTransition@2@PEAVQAbstractState@2@@Z
?addTransition@QState@kso_qt@@QEAAPEAVQSignalTransition@2@PEBVQObject@2@PEBDPEAVQAbstractState@2@@Z
?addTransition@QState@kso_qt@@QEAAXPEAVQAbstractTransition@2@@Z
?addVersionOption@QCommandLineParser@kso_qt@@QEAA?AVQCommandLineOption@2@XZ
?addYears@QDate@kso_qt@@QEBA?AV12@H@Z
?addYears@QDateTime@kso_qt@@QEBA?AV12@H@Z
?added@QChildEvent@kso_qt@@QEBA_NXZ
?adjust@QRect@kso_qt@@QEAAXHHHH@Z
?adjust@QRectF@kso_qt@@QEAAXNNNN@Z
?adjusted@QRect@kso_qt@@QEBA?AV12@HHHH@Z
?adjusted@QRectF@kso_qt@@QEBA?AV12@NNNN@Z
?adjusted@QUrl@kso_qt@@QEBA?AV12@V?$QUrlTwoFlags@W4UrlFormattingOption@QUrl@kso_qt@@W4ComponentFormattingOption@23@@2@@Z
?advance@QAnimationDriver@kso_qt@@UEAAXXZ
?advanceAnimation@QAnimationDriver@kso_qt@@IEAAX_J@Z
?aliases@QMimeType@kso_qt@@QEBA?AVQStringList@2@XZ
?aliases@QTextCodec@kso_qt@@UEBA?AV?$QList@VQByteArray@kso_qt@@@2@XZ
?alignmentThreshold@QArrayData@kso_qt@@SA_KXZ
?allAncestors@QMimeType@kso_qt@@QEBA?AVQStringList@2@XZ
?allEncodedQueryItemValues@QUrl@kso_qt@@QEBA?AV?$QList@VQByteArray@kso_qt@@@2@AEBVQByteArray@2@@Z
?allKeys@QSettings@kso_qt@@QEBA?AVQStringList@2@XZ
?allMimeTypes@QMimeDatabase@kso_qt@@QEBA?AV?$QList@VQMimeType@kso_qt@@@2@XZ
?allQueryItemValues@QUrl@kso_qt@@QEBA?AVQStringList@2@AEBVQString@2@@Z
?allQueryItemValues@QUrlQuery@kso_qt@@QEBA?AVQStringList@2@AEBVQString@2@V?$QFlags@W4ComponentFormattingOption@QUrl@kso_qt@@@2@@Z
?allSelectors@QFileSelector@kso_qt@@QEBA?AVQStringList@2@XZ
?allWriteBuffersEmpty@QIODevicePrivate@kso_qt@@QEBA_NXZ
?allocate@QArrayData@kso_qt@@SAPEAU12@_K00V?$QFlags@W4AllocationOption@QArrayData@kso_qt@@@2@@Z
?allocateData@QContiguousCacheData@kso_qt@@SAPEAU12@HH@Z
?allocateNode@QHashData@kso_qt@@QEAAPEAXH@Z
?allocateTimerId@QAbstractEventDispatcherPrivate@kso_qt@@SAHXZ
?allowMove@QAbstractItemModelPrivate@kso_qt@@QEAA_NAEBVQModelIndex@2@HH0HW4Orientation@Qt@2@@Z
?allowNativeEventFilter@QAbstractNativeEventFilter@kso_qt@@QEAA_NAEBW4AllowNativeEventFilterFlag@12@_N@Z
?amText@QLocale@kso_qt@@QEBA?AVQString@2@XZ
?amplitude@QEasingCurve@kso_qt@@QEBANXZ
?anchoredPattern@QRegularExpression@kso_qt@@SA?AVQString@2@AEBV32@@Z
?angle@QLineF@kso_qt@@QEBANAEBV12@@Z
?angle@QLineF@kso_qt@@QEBANXZ
?angleTo@QLineF@kso_qt@@QEBANAEBV12@@Z
?animationAt@QAnimationGroup@kso_qt@@QEBAPEAVQAbstractAnimation@2@H@Z
?animationCount@QAnimationGroup@kso_qt@@QEBAHXZ
?animations@QAbstractTransition@kso_qt@@QEBA?AV?$QList@PEAVQAbstractAnimation@kso_qt@@@2@XZ
?appName@QCoreApplicationPrivate@kso_qt@@QEBA?AVQString@2@XZ
?appVersion@QCoreApplicationPrivate@kso_qt@@QEBA?AVQString@2@XZ
?app_compile_version@QCoreApplicationPrivate@kso_qt@@2HA
?append@?$QList@VQItemSelectionRange@kso_qt@@@kso_qt@@QEAAXAEBV12@@Z
?append@?$QList@VQItemSelectionRange@kso_qt@@@kso_qt@@QEAAXAEBVQItemSelectionRange@2@@Z
?append@?$QVector@VQPoint@kso_qt@@@kso_qt@@QEAAX$$QEAVQPoint@2@@Z
?append@?$QVector@VQPoint@kso_qt@@@kso_qt@@QEAAXAEBV12@@Z
?append@?$QVector@VQPoint@kso_qt@@@kso_qt@@QEAAXAEBVQPoint@2@@Z
?append@?$QVector@VQPointF@kso_qt@@@kso_qt@@QEAAX$$QEAVQPointF@2@@Z
?append@?$QVector@VQPointF@kso_qt@@@kso_qt@@QEAAXAEBV12@@Z
?append@?$QVector@VQPointF@kso_qt@@@kso_qt@@QEAAXAEBVQPointF@2@@Z
?append@?$QVector@VQXmlStreamAttribute@kso_qt@@@kso_qt@@QEAAX$$QEAVQXmlStreamAttribute@2@@Z
?append@?$QVector@VQXmlStreamAttribute@kso_qt@@@kso_qt@@QEAAXAEBV12@@Z
?append@?$QVector@VQXmlStreamAttribute@kso_qt@@@kso_qt@@QEAAXAEBVQXmlStreamAttribute@2@@Z
?append@QByteArray@kso_qt@@QEAAAEAV12@AEBV12@@Z
?append@QByteArray@kso_qt@@QEAAAEAV12@AEBVQString@2@@Z
?append@QByteArray@kso_qt@@QEAAAEAV12@D@Z
?append@QByteArray@kso_qt@@QEAAAEAV12@HD@Z
?append@QByteArray@kso_qt@@QEAAAEAV12@PEBD@Z
?append@QByteArray@kso_qt@@QEAAAEAV12@PEBDH@Z
?append@QCborArray@kso_qt@@QEAAX$$QEAVQCborValue@2@@Z
?append@QCborArray@kso_qt@@QEAAXAEBVQCborValue@2@@Z
?append@QCborStreamWriter@kso_qt@@QEAAX$$T@Z
?append@QCborStreamWriter@kso_qt@@QEAAXAEBVQByteArray@2@@Z
?append@QCborStreamWriter@kso_qt@@QEAAXH@Z
?append@QCborStreamWriter@kso_qt@@QEAAXI@Z
?append@QCborStreamWriter@kso_qt@@QEAAXM@Z
?append@QCborStreamWriter@kso_qt@@QEAAXN@Z
?append@QCborStreamWriter@kso_qt@@QEAAXPEBD_J@Z
?append@QCborStreamWriter@kso_qt@@QEAAXVQLatin1String@2@@Z
?append@QCborStreamWriter@kso_qt@@QEAAXVQStringView@2@@Z
?append@QCborStreamWriter@kso_qt@@QEAAXVqfloat16@2@@Z
?append@QCborStreamWriter@kso_qt@@QEAAXW4QCborKnownTags@2@@Z
?append@QCborStreamWriter@kso_qt@@QEAAXW4QCborNegativeInteger@2@@Z
?append@QCborStreamWriter@kso_qt@@QEAAXW4QCborSimpleType@2@@Z
?append@QCborStreamWriter@kso_qt@@QEAAXW4QCborTag@2@@Z
?append@QCborStreamWriter@kso_qt@@QEAAX_J@Z
?append@QCborStreamWriter@kso_qt@@QEAAX_K@Z
?append@QCborStreamWriter@kso_qt@@QEAAX_N@Z
?append@QJsonArray@kso_qt@@QEAAXAEBVQJsonValue@2@@Z
?append@QListData@kso_qt@@QEAAPEAPEAXAEBU12@@Z
?append@QListData@kso_qt@@QEAAPEAPEAXH@Z
?append@QListData@kso_qt@@QEAAPEAPEAXXZ
?append@QRingBuffer@kso_qt@@QEAAXAEBVQByteArray@2@@Z
?append@QRingBuffer@kso_qt@@QEAAXPEBD_J@Z
?append@QString@kso_qt@@QEAAAEAV12@AEBV12@@Z
?append@QString@kso_qt@@QEAAAEAV12@AEBVQByteArray@2@@Z
?append@QString@kso_qt@@QEAAAEAV12@AEBVQStringRef@2@@Z
?append@QString@kso_qt@@QEAAAEAV12@PEBD@Z
?append@QString@kso_qt@@QEAAAEAV12@PEBVQChar@2@H@Z
?append@QString@kso_qt@@QEAAAEAV12@VQChar@2@@Z
?append@QString@kso_qt@@QEAAAEAV12@VQLatin1String@2@@Z
?append@QXmlStreamAttributes@kso_qt@@QEAAXAEBVQString@2@00@Z
?append@QXmlStreamAttributes@kso_qt@@QEAAXAEBVQString@2@0@Z
?appendApplicationPathToLibraryPaths@QCoreApplicationPrivate@kso_qt@@QEAAXXZ
?appendByteString@QCborStreamWriter@kso_qt@@QEAAXPEBD_J@Z
?appendLatin1To@QAbstractConcatenable@kso_qt@@KAXPEBDHPEAVQChar@2@@Z
?appendNull@QCborStreamWriter@kso_qt@@QEAAXXZ
?appendTextString@QCborStreamWriter@kso_qt@@QEAAXPEBD_J@Z
?appendTo@QStringRef@kso_qt@@QEBA?AV12@PEAVQString@2@@Z
?appendUndefined@QCborStreamWriter@kso_qt@@QEAAXXZ
?applicationDescription@QCommandLineParser@kso_qt@@QEBA?AVQString@2@XZ
?applicationDirPath@QCoreApplication@kso_qt@@SA?AVQString@2@XZ
?applicationFilePath@QCoreApplication@kso_qt@@SA?AVQString@2@XZ
?applicationName@QCoreApplication@kso_qt@@SA?AVQString@2@XZ
?applicationName@QSettings@kso_qt@@QEBA?AVQString@2@XZ
?applicationNameChanged@QCoreApplication@kso_qt@@QEAAXXZ
?applicationPid@QCoreApplication@kso_qt@@SA_JXZ
?applicationVersion@QCoreApplication@kso_qt@@SA?AVQString@2@XZ
?applicationVersionChanged@QCoreApplication@kso_qt@@QEAAXXZ
?arg@QString@kso_qt@@QEBA?AV12@AEBV12@00000000@Z
?arg@QString@kso_qt@@QEBA?AV12@AEBV12@0000000@Z
?arg@QString@kso_qt@@QEBA?AV12@AEBV12@000000@Z
?arg@QString@kso_qt@@QEBA?AV12@AEBV12@00000@Z
?arg@QString@kso_qt@@QEBA?AV12@AEBV12@0000@Z
?arg@QString@kso_qt@@QEBA?AV12@AEBV12@000@Z
?arg@QString@kso_qt@@QEBA?AV12@AEBV12@00@Z
?arg@QString@kso_qt@@QEBA?AV12@AEBV12@0@Z
?arg@QString@kso_qt@@QEBA?AV12@AEBV12@HVQChar@2@@Z
?arg@QString@kso_qt@@QEBA?AV12@DHVQChar@2@@Z
?arg@QString@kso_qt@@QEBA?AV12@FHHVQChar@2@@Z
?arg@QString@kso_qt@@QEBA?AV12@GHHVQChar@2@@Z
?arg@QString@kso_qt@@QEBA?AV12@HHHVQChar@2@@Z
?arg@QString@kso_qt@@QEBA?AV12@IHHVQChar@2@@Z
?arg@QString@kso_qt@@QEBA?AV12@JHHVQChar@2@@Z
?arg@QString@kso_qt@@QEBA?AV12@KHHVQChar@2@@Z
?arg@QString@kso_qt@@QEBA?AV12@NHDHVQChar@2@@Z
?arg@QString@kso_qt@@QEBA?AV12@VQChar@2@H0@Z
?arg@QString@kso_qt@@QEBA?AV12@VQLatin1String@2@HVQChar@2@@Z
?arg@QString@kso_qt@@QEBA?AV12@VQStringView@2@HVQChar@2@@Z
?arg@QString@kso_qt@@QEBA?AV12@_JHHVQChar@2@@Z
?arg@QString@kso_qt@@QEBA?AV12@_KHHVQChar@2@@Z
?args@QMetaCallEvent@kso_qt@@QEBAPEAPEAXXZ
?arguments@QCoreApplication@kso_qt@@SA?AVQStringList@2@XZ
?arguments@QProcess@kso_qt@@QEBA?AVQStringList@2@XZ
?arguments@SignalEvent@QStateMachine@kso_qt@@QEBA?AV?$QList@VQVariant@kso_qt@@@3@XZ
?array@QJsonDocument@kso_qt@@QEBA?AVQJsonArray@2@XZ
?asprintf@QString@kso_qt@@SA?AV12@PEBDZZ
?assign@QCborValueRef@kso_qt@@CAXV12@$$QEAVQCborValue@2@@Z
?assign@QCborValueRef@kso_qt@@CAXV12@AEBVQCborValue@2@@Z
?assign@QCborValueRef@kso_qt@@CAXV12@V12@@Z
?assignProperty@QState@kso_qt@@QEAAXPEAVQObject@2@PEBDAEBVQVariant@2@@Z
?at@?$QList@VQItemSelectionRange@kso_qt@@@kso_qt@@QEBAAEBVQItemSelectionRange@2@H@Z
?at@?$QVector@VQPoint@kso_qt@@@kso_qt@@QEBAAEBVQPoint@2@H@Z
?at@?$QVector@VQPointF@kso_qt@@@kso_qt@@QEBAAEBVQPointF@2@H@Z
?at@?$QVector@VQXmlStreamAttribute@kso_qt@@@kso_qt@@QEBAAEBVQXmlStreamAttribute@2@H@Z
?at@QBitArray@kso_qt@@QEBA_NH@Z
?at@QByteArray@kso_qt@@QEBADH@Z
?at@QCborArray@kso_qt@@QEBA?AVQCborValue@2@_J@Z
?at@QJsonArray@kso_qt@@QEBA?AVQJsonValue@2@H@Z
?at@QListData@kso_qt@@QEBAPEAPEAXH@Z
?at@QSequentialIterable@kso_qt@@QEBA?AVQVariant@2@H@Z
?at@QString@kso_qt@@QEBA?BVQChar@2@H@Z
?at@QStringRef@kso_qt@@QEBA?BVQChar@2@H@Z
?atEnd@QAbstractFileEngine@kso_qt@@QEBA_NXZ
?atEnd@QBuffer@kso_qt@@UEBA_NXZ
?atEnd@QDataStream@kso_qt@@QEBA_NXZ
?atEnd@QFileDevice@kso_qt@@UEBA_NXZ
?atEnd@QIODevice@kso_qt@@UEBA_NXZ
?atEnd@QProcess@kso_qt@@UEBA_NXZ
?atEnd@QTextStream@kso_qt@@QEBA_NXZ
?atEnd@QXmlStreamReader@kso_qt@@QEBA_NXZ
?attach@QSharedMemory@kso_qt@@QEAA_NW4AccessMode@12@@Z
?attach@QSharedMemoryPrivate@kso_qt@@QEAA_NW4AccessMode@QSharedMemory@2@@Z
?attribs@QCoreApplicationPrivate@kso_qt@@2IA
?attributes@QMetaMethod@kso_qt@@QEBAHXZ
?attributes@QMetaMethodBuilder@kso_qt@@QEBAHXZ
?attributes@QXmlStreamReader@kso_qt@@QEBA?AVQXmlStreamAttributes@2@XZ
?authority@QUrl@kso_qt@@QEBA?AVQString@2@V?$QFlags@W4ComponentFormattingOption@QUrl@kso_qt@@@2@@Z
?autoDelete@QRunnable@kso_qt@@QEBA_NXZ
?autoDetectUnicode@QTextStream@kso_qt@@QEBA_NXZ
?autoFormatting@QXmlStreamWriter@kso_qt@@QEBA_NXZ
?autoFormattingIndent@QXmlStreamWriter@kso_qt@@QEBAHXZ
?autoInsertSpaces@QDebug@kso_qt@@QEBA_NXZ
?autoRemove@QTemporaryDir@kso_qt@@QEBA_NXZ
?autoRemove@QTemporaryFile@kso_qt@@QEBA_NXZ
?available@QSemaphore@kso_qt@@QEBAHXZ
?availableCodecs@QTextCodec@kso_qt@@SA?AV?$QList@VQByteArray@kso_qt@@@2@XZ
?availableMibs@QTextCodec@kso_qt@@SA?AV?$QList@H@2@XZ
?availableTimeZoneIds@QTimeZone@kso_qt@@SA?AV?$QList@VQByteArray@kso_qt@@@2@H@Z
?availableTimeZoneIds@QTimeZone@kso_qt@@SA?AV?$QList@VQByteArray@kso_qt@@@2@W4Country@QLocale@2@@Z
?availableTimeZoneIds@QTimeZone@kso_qt@@SA?AV?$QList@VQByteArray@kso_qt@@@2@XZ
?availableTimeZoneIds@QTimeZonePrivate@kso_qt@@UEBA?AV?$QList@VQByteArray@kso_qt@@@2@H@Z
?availableTimeZoneIds@QTimeZonePrivate@kso_qt@@UEBA?AV?$QList@VQByteArray@kso_qt@@@2@W4Country@QLocale@2@@Z
?availableTimeZoneIds@QTimeZonePrivate@kso_qt@@UEBA?AV?$QList@VQByteArray@kso_qt@@@2@XZ
?availableTimeZoneIds@QUtcTimeZonePrivate@kso_qt@@UEBA?AV?$QList@VQByteArray@kso_qt@@@2@H@Z
?availableTimeZoneIds@QUtcTimeZonePrivate@kso_qt@@UEBA?AV?$QList@VQByteArray@kso_qt@@@2@W4Country@QLocale@2@@Z
?availableTimeZoneIds@QUtcTimeZonePrivate@kso_qt@@UEBA?AV?$QList@VQByteArray@kso_qt@@@2@XZ
?availableTimeZoneIds@QWinTimeZonePrivate@kso_qt@@UEBA?AV?$QList@VQByteArray@kso_qt@@@2@XZ
?awake@QAbstractEventDispatcher@kso_qt@@QEAAXXZ
?back@?$QList@VQItemSelectionRange@kso_qt@@@kso_qt@@QEAAAEAVQItemSelectionRange@2@XZ
?back@?$QList@VQItemSelectionRange@kso_qt@@@kso_qt@@QEBAAEBVQItemSelectionRange@2@XZ
?back@?$QVector@VQPoint@kso_qt@@@kso_qt@@QEAAAEAVQPoint@2@XZ
?back@?$QVector@VQPoint@kso_qt@@@kso_qt@@QEBAAEBVQPoint@2@XZ
?back@?$QVector@VQPointF@kso_qt@@@kso_qt@@QEAAAEAVQPointF@2@XZ
?back@?$QVector@VQPointF@kso_qt@@@kso_qt@@QEBAAEBVQPointF@2@XZ
?back@?$QVector@VQXmlStreamAttribute@kso_qt@@@kso_qt@@QEAAAEAVQXmlStreamAttribute@2@XZ
?back@?$QVector@VQXmlStreamAttribute@kso_qt@@@kso_qt@@QEBAAEBVQXmlStreamAttribute@2@XZ
?back@QByteArray@kso_qt@@QEAA?AVQByteRef@2@XZ
?back@QByteArray@kso_qt@@QEBADXZ
?back@QString@kso_qt@@QEAA?AVQCharRef@2@XZ
?back@QString@kso_qt@@QEBA?AVQChar@2@XZ
?back@QStringRef@kso_qt@@QEBA?AVQChar@2@XZ
?baseName@QFileInfo@kso_qt@@QEBA?AVQString@2@XZ
?basetable@qfloat16@kso_qt@@0QBIB
?batchSize@ResultIteratorBase@QtPrivate@kso_qt@@QEBAHXZ
?batchedAdvance@ResultIteratorBase@QtPrivate@kso_qt@@QEAAXXZ
?bcp47Name@QLocale@kso_qt@@QEBA?AVQString@2@XZ
?bcp47Name@QLocalePrivate@kso_qt@@QEBA?AVQByteArray@2@D@Z
?begin@?$QList@VQItemSelectionRange@kso_qt@@@kso_qt@@QEAA?AViterator@12@XZ
?begin@?$QList@VQItemSelectionRange@kso_qt@@@kso_qt@@QEBA?AVconst_iterator@12@XZ
?begin@?$QVector@VQPoint@kso_qt@@@kso_qt@@QEAA?AViterator@?$QTypedArrayData@VQPoint@kso_qt@@@2@V342@@Z
?begin@?$QVector@VQPoint@kso_qt@@@kso_qt@@QEAAPEAVQPoint@2@XZ
?begin@?$QVector@VQPoint@kso_qt@@@kso_qt@@QEBA?AVconst_iterator@?$QTypedArrayData@VQPoint@kso_qt@@@2@V342@@Z
?begin@?$QVector@VQPoint@kso_qt@@@kso_qt@@QEBAPEBVQPoint@2@XZ
?begin@?$QVector@VQPointF@kso_qt@@@kso_qt@@QEAA?AViterator@?$QTypedArrayData@VQPointF@kso_qt@@@2@V342@@Z
?begin@?$QVector@VQPointF@kso_qt@@@kso_qt@@QEAAPEAVQPointF@2@XZ
?begin@?$QVector@VQPointF@kso_qt@@@kso_qt@@QEBA?AVconst_iterator@?$QTypedArrayData@VQPointF@kso_qt@@@2@V342@@Z
?begin@?$QVector@VQPointF@kso_qt@@@kso_qt@@QEBAPEBVQPointF@2@XZ
?begin@?$QVector@VQXmlStreamAttribute@kso_qt@@@kso_qt@@QEAAPEAVQXmlStreamAttribute@2@XZ
?begin@?$QVector@VQXmlStreamAttribute@kso_qt@@@kso_qt@@QEBAPEBVQXmlStreamAttribute@2@XZ
?begin@QAssociativeIterable@kso_qt@@QEBA?AUconst_iterator@12@XZ
?begin@QByteArray@kso_qt@@QEAAPEADXZ
?begin@QByteArray@kso_qt@@QEBAPEBDXZ
?begin@QCborArray@kso_qt@@QEAA?AVIterator@12@XZ
?begin@QCborArray@kso_qt@@QEBA?AVConstIterator@12@XZ
?begin@QCborMap@kso_qt@@QEAA?AVIterator@12@XZ
?begin@QCborMap@kso_qt@@QEBA?AVConstIterator@12@XZ
?begin@QJsonArray@kso_qt@@QEAA?AViterator@12@XZ
?begin@QJsonArray@kso_qt@@QEBA?AVconst_iterator@12@XZ
?begin@QJsonObject@kso_qt@@QEAA?AViterator@12@XZ
?begin@QJsonObject@kso_qt@@QEBA?AVconst_iterator@12@XZ
?begin@QListData@kso_qt@@QEBAPEAPEAXXZ
?begin@QSequentialIterable@kso_qt@@QEBA?AUconst_iterator@12@XZ
?begin@QString@kso_qt@@QEAAPEAVQChar@2@XZ
?begin@QString@kso_qt@@QEBAPEBVQChar@2@XZ
?begin@QStringRef@kso_qt@@QEBAPEBVQChar@2@XZ
?begin@ResultStoreBase@QtPrivate@kso_qt@@QEBA?AVResultIteratorBase@23@XZ
?begin@const_iterator@QAssociativeIterable@kso_qt@@AEAAXXZ
?begin@const_iterator@QSequentialIterable@kso_qt@@AEAAXXZ
?beginEntryList@QAbstractFileEngine@kso_qt@@UEAAPEAVQAbstractFileEngineIterator@2@V?$QFlags@W4Filter@QDir@kso_qt@@@2@AEBVQStringList@2@@Z
?beginEntryList@QFSFileEngine@kso_qt@@UEAAPEAVQAbstractFileEngineIterator@2@V?$QFlags@W4Filter@QDir@kso_qt@@@2@AEBVQStringList@2@@Z
?beginGroup@QSettings@kso_qt@@QEAAXAEBVQString@2@@Z
?beginGroupOrArray@QSettingsPrivate@kso_qt@@QEAAXAEBVQSettingsGroup@2@@Z
?beginInsertColumns@QAbstractItemModel@kso_qt@@IEAAXAEBVQModelIndex@2@HH@Z
?beginInsertRows@QAbstractItemModel@kso_qt@@IEAAXAEBVQModelIndex@2@HH@Z
?beginMacrostep@QStateMachinePrivate@kso_qt@@UEAAXXZ
?beginMicrostep@QStateMachine@kso_qt@@MEAAXPEAVQEvent@2@@Z
?beginMoveColumns@QAbstractItemModel@kso_qt@@IEAA_NAEBVQModelIndex@2@HH0H@Z
?beginMoveRows@QAbstractItemModel@kso_qt@@IEAA_NAEBVQModelIndex@2@HH0H@Z
?beginReadArray@QSettings@kso_qt@@QEAAHAEBVQString@2@@Z
?beginRemoveColumns@QAbstractItemModel@kso_qt@@IEAAXAEBVQModelIndex@2@HH@Z
?beginRemoveRows@QAbstractItemModel@kso_qt@@IEAAXAEBVQModelIndex@2@HH@Z
?beginResetModel@QAbstractItemModel@kso_qt@@IEAAXXZ
?beginSelectTransitions@QStateMachine@kso_qt@@MEAAXPEAVQEvent@2@@Z
?beginWriteArray@QSettings@kso_qt@@QEAAXAEBVQString@2@H@Z
?bin@kso_qt@@YAAEAVQTextStream@1@AEAV21@@Z
?birthTime@QFileInfo@kso_qt@@QEBA?AVQDateTime@2@XZ
?birthTime@QFileSystemMetaData@kso_qt@@QEBA?AVQDateTime@2@XZ
?bits@QBitArray@kso_qt@@QEBAPEBDXZ
?blobSize@QMetaStringTable@kso_qt@@QEBAHXZ
?blockSignals@QObject@kso_qt@@QEAA_N_N@Z
?blockSize@QStorageInfo@kso_qt@@QEBAHXZ
?bom@kso_qt@@YAAEAVQTextStream@1@AEAV21@@Z
?bootUniqueId@QSysInfo@kso_qt@@SA?AVQByteArray@2@XZ
?bottom@QItemSelectionRange@kso_qt@@QEBAHXZ
?bottom@QRect@kso_qt@@QEBAHXZ
?bottom@QRectF@kso_qt@@QEBANXZ
?bottomLeft@QRect@kso_qt@@QEBA?AVQPoint@2@XZ
?bottomLeft@QRectF@kso_qt@@QEBA?AVQPointF@2@XZ
?bottomRight@QItemSelectionRange@kso_qt@@QEBAAEBVQPersistentModelIndex@2@XZ
?bottomRight@QRect@kso_qt@@QEBA?AVQPoint@2@XZ
?bottomRight@QRectF@kso_qt@@QEBA?AVQPointF@2@XZ
?boundaryReasons@QTextBoundaryFinder@kso_qt@@QEBA?AV?$QFlags@W4BoundaryReason@QTextBoundaryFinder@kso_qt@@@2@XZ
?boundedTo@QSize@kso_qt@@QEBA?AV12@AEBV12@@Z
?boundedTo@QSizeF@kso_qt@@QEBA?AV12@AEBV12@@Z
?buddy@QAbstractItemModel@kso_qt@@UEBA?AVQModelIndex@2@AEBV32@@Z
?buddy@QAbstractProxyModel@kso_qt@@UEBA?AVQModelIndex@2@AEBV32@@Z
?buddy@QSortFilterProxyModel@kso_qt@@UEBA?AVQModelIndex@2@AEBV32@@Z
?buffer@QBuffer@kso_qt@@QEAAAEAVQByteArray@2@XZ
?buffer@QBuffer@kso_qt@@QEBAAEBVQByteArray@2@XZ
?build@QLibraryInfo@kso_qt@@SAPEBDXZ
?buildAbi@QSysInfo@kso_qt@@SA?AVQString@2@XZ
?buildCpuArchitecture@QSysInfo@kso_qt@@SA?AVQString@2@XZ
?buildDate@QLibraryInfo@kso_qt@@SA?AVQDate@2@XZ
?bundleName@QFileInfo@kso_qt@@QEBA?AVQString@2@XZ
?byteOrder@QDataStream@kso_qt@@QEBA?AW4ByteOrder@12@XZ
?bytearrayToLongLong@QLocaleData@kso_qt@@SA_JPEBDHPEA_N@Z
?bytesAvailable@QIODevice@kso_qt@@UEBA_JXZ
?bytesAvailable@QProcess@kso_qt@@UEBA_JXZ
?bytesAvailable@QStorageInfo@kso_qt@@QEBA_JXZ
?bytesAvailable@QWindowsPipeReader@kso_qt@@QEBA_JXZ
?bytesFree@QStorageInfo@kso_qt@@QEBA_JXZ
?bytesToWrite@QIODevice@kso_qt@@UEBA_JXZ
?bytesToWrite@QProcess@kso_qt@@UEBA_JXZ
?bytesToWrite@QWindowsPipeWriter@kso_qt@@QEBA_JXZ
?bytesTotal@QStorageInfo@kso_qt@@QEBA_JXZ
?bytesWritten@QIODevice@kso_qt@@QEAAX_J@Z
?bytesWritten@QWindowsPipeWriter@kso_qt@@QEAAX_J@Z
?c@QLocale@kso_qt@@SA?AV12@XZ
?c_str16@QString@kso_qt@@QEBAPEB_SXZ
?cachedApplicationFilePath@QCoreApplicationPrivate@kso_qt@@2PEAVQString@2@EA
?caching@QFileInfo@kso_qt@@QEBA_NXZ
?callEventTest@QAbstractTransitionPrivate@kso_qt@@QEAA_NPEAVQEvent@2@@Z
?callOnTransition@QAbstractTransitionPrivate@kso_qt@@UEAAXPEAVQEvent@2@@Z
?canConvert@QVariant@kso_qt@@QEBA_NH@Z
?canDropMimeData@QAbstractItemModel@kso_qt@@UEBA_NPEBVQMimeData@2@W4DropAction@Qt@2@HHAEBVQModelIndex@2@@Z
?canDropMimeData@QAbstractProxyModel@kso_qt@@UEBA_NPEBVQMimeData@2@W4DropAction@Qt@2@HHAEBVQModelIndex@2@@Z
?canEncode@QTextCodec@kso_qt@@QEBA_NAEBVQString@2@@Z
?canEncode@QTextCodec@kso_qt@@QEBA_NVQChar@2@@Z
?canEncode@QTextCodec@kso_qt@@QEBA_NVQStringView@2@@Z
?canFetchMore@QAbstractItemModel@kso_qt@@UEBA_NAEBVQModelIndex@2@@Z
?canFetchMore@QAbstractProxyModel@kso_qt@@UEBA_NAEBVQModelIndex@2@@Z
?canFetchMore@QSortFilterProxyModel@kso_qt@@UEBA_NAEBVQModelIndex@2@@Z
?canIncrementVectorIndex@ResultIteratorBase@QtPrivate@kso_qt@@QEBA_NXZ
?canReadLine@QBuffer@kso_qt@@UEBA_NXZ
?canReadLine@QIODevice@kso_qt@@UEBA_NXZ
?canReadLine@QProcess@kso_qt@@UEBA_NXZ
?canReadLine@QWindowsPipeReader@kso_qt@@QEBA_NXZ
?canReverseIterate@QSequentialIterable@kso_qt@@QEBA_NXZ
?canUninstallAnimationDriver@QUnifiedTimer@kso_qt@@QEAA_NPEAVQAnimationDriver@2@@Z
?canWrite@QWindowsPipeWriter@kso_qt@@QEAAXXZ
?cancel@QFutureInterfaceBase@kso_qt@@QEAAXXZ
?cancel@QFutureWatcherBase@kso_qt@@QEAAXXZ
?cancel@QThreadPool@kso_qt@@QEAAXPEAVQRunnable@2@@Z
?cancelAllDelayedEvents@QStateMachinePrivate@kso_qt@@QEAAXXZ
?cancelDelayedEvent@QStateMachine@kso_qt@@QEAA_NH@Z
?cancelWriting@QSaveFile@kso_qt@@QEAAXXZ
?canceled@QFutureWatcherBase@kso_qt@@QEAAXXZ
?canonicalFilePath@QFileInfo@kso_qt@@QEBA?AVQString@2@XZ
?canonicalPath@QDir@kso_qt@@QEBA?AVQString@2@XZ
?canonicalPath@QFileInfo@kso_qt@@QEBA?AVQString@2@XZ
?cap@QRegExp@kso_qt@@QEAA?AVQString@2@H@Z
?cap@QRegExp@kso_qt@@QEBA?AVQString@2@H@Z
?capacity@?$QVector@VQPoint@kso_qt@@@kso_qt@@QEBAHXZ
?capacity@?$QVector@VQPointF@kso_qt@@@kso_qt@@QEBAHXZ
?capacity@?$QVector@VQXmlStreamAttribute@kso_qt@@@kso_qt@@QEBAHXZ
?capacity@QByteArray@kso_qt@@QEBAHXZ
?capacity@QString@kso_qt@@QEBAHXZ
?captureCount@QRegExp@kso_qt@@QEBAHXZ
?captureCount@QRegularExpression@kso_qt@@QEBAHXZ
?captured@QRegularExpressionMatch@kso_qt@@QEBA?AVQString@2@AEBV32@@Z
?captured@QRegularExpressionMatch@kso_qt@@QEBA?AVQString@2@H@Z
?captured@QRegularExpressionMatch@kso_qt@@QEBA?AVQString@2@VQStringView@2@@Z
?capturedEnd@QRegularExpressionMatch@kso_qt@@QEBAHAEBVQString@2@@Z
?capturedEnd@QRegularExpressionMatch@kso_qt@@QEBAHH@Z
?capturedEnd@QRegularExpressionMatch@kso_qt@@QEBAHVQStringView@2@@Z
?capturedLength@QRegularExpressionMatch@kso_qt@@QEBAHAEBVQString@2@@Z
?capturedLength@QRegularExpressionMatch@kso_qt@@QEBAHH@Z
?capturedLength@QRegularExpressionMatch@kso_qt@@QEBAHVQStringView@2@@Z
?capturedRef@QRegularExpressionMatch@kso_qt@@QEBA?AVQStringRef@2@AEBVQString@2@@Z
?capturedRef@QRegularExpressionMatch@kso_qt@@QEBA?AVQStringRef@2@H@Z
?capturedRef@QRegularExpressionMatch@kso_qt@@QEBA?AVQStringRef@2@VQStringView@2@@Z
?capturedStart@QRegularExpressionMatch@kso_qt@@QEBAHAEBVQString@2@@Z
?capturedStart@QRegularExpressionMatch@kso_qt@@QEBAHH@Z
?capturedStart@QRegularExpressionMatch@kso_qt@@QEBAHVQStringView@2@@Z
?capturedTexts@QRegExp@kso_qt@@QEAA?AVQStringList@2@XZ
?capturedTexts@QRegExp@kso_qt@@QEBA?AVQStringList@2@XZ
?capturedTexts@QRegularExpressionMatch@kso_qt@@QEBA?AVQStringList@2@XZ
?capturedView@QRegularExpressionMatch@kso_qt@@QEBA?AVQStringView@2@H@Z
?capturedView@QRegularExpressionMatch@kso_qt@@QEBA?AVQStringView@2@V32@@Z
?caseSensitive@QAbstractFileEngine@kso_qt@@UEBA_NXZ
?caseSensitive@QFSFileEngine@kso_qt@@UEBA_NXZ
?caseSensitivity@QCollator@kso_qt@@QEBA?AW4CaseSensitivity@Qt@2@XZ
?caseSensitivity@QRegExp@kso_qt@@QEBA?AW4CaseSensitivity@Qt@2@XZ
?caseSensitivity@QStringMatcher@kso_qt@@QEBA?AW4CaseSensitivity@Qt@2@XZ
?cast@QMetaObject@kso_qt@@QEBAPEAVQObject@2@PEAV32@@Z
?cast@QMetaObject@kso_qt@@QEBAPEBVQObject@2@PEBV32@@Z
?category@QChar@kso_qt@@QEBA?AW4Category@12@XZ
?category@QChar@kso_qt@@SA?AW4Category@12@I@Z
?category@QCharRef@kso_qt@@QEBA?AW4Category@QChar@2@XZ
?categoryName@QLoggingCategory@kso_qt@@QEBAPEBDXZ
?cbegin@?$QList@VQItemSelectionRange@kso_qt@@@kso_qt@@QEBA?AVconst_iterator@12@XZ
?cbegin@?$QVector@VQPoint@kso_qt@@@kso_qt@@QEBA?AVconst_iterator@?$QTypedArrayData@VQPoint@kso_qt@@@2@V342@@Z
?cbegin@?$QVector@VQPoint@kso_qt@@@kso_qt@@QEBAPEBVQPoint@2@XZ
?cbegin@?$QVector@VQPointF@kso_qt@@@kso_qt@@QEBA?AVconst_iterator@?$QTypedArrayData@VQPointF@kso_qt@@@2@V342@@Z
?cbegin@?$QVector@VQPointF@kso_qt@@@kso_qt@@QEBAPEBVQPointF@2@XZ
?cbegin@?$QVector@VQXmlStreamAttribute@kso_qt@@@kso_qt@@QEBAPEBVQXmlStreamAttribute@2@XZ
?cbegin@QByteArray@kso_qt@@QEBAPEBDXZ
?cbegin@QCborArray@kso_qt@@QEBA?AVConstIterator@12@XZ
?cbegin@QCborMap@kso_qt@@QEBA?AVConstIterator@12@XZ
?cbegin@QString@kso_qt@@QEBAPEBVQChar@2@XZ
?cbegin@QStringRef@kso_qt@@QEBAPEBVQChar@2@XZ
?cd@QDir@kso_qt@@QEAA_NAEBVQString@2@@Z
?cdUp@QDir@kso_qt@@QEAA_NXZ
?cell@QChar@kso_qt@@QEBAEXZ
?cell@QCharRef@kso_qt@@QEBAEXZ
?cend@?$QList@VQItemSelectionRange@kso_qt@@@kso_qt@@QEBA?AVconst_iterator@12@XZ
?cend@?$QVector@VQPoint@kso_qt@@@kso_qt@@QEBA?AVconst_iterator@?$QTypedArrayData@VQPoint@kso_qt@@@2@V342@@Z
?cend@?$QVector@VQPoint@kso_qt@@@kso_qt@@QEBAPEBVQPoint@2@XZ
?cend@?$QVector@VQPointF@kso_qt@@@kso_qt@@QEBA?AVconst_iterator@?$QTypedArrayData@VQPointF@kso_qt@@@2@V342@@Z
?cend@?$QVector@VQPointF@kso_qt@@@kso_qt@@QEBAPEBVQPointF@2@XZ
?cend@?$QVector@VQXmlStreamAttribute@kso_qt@@@kso_qt@@QEBAPEBVQXmlStreamAttribute@2@XZ
?cend@QByteArray@kso_qt@@QEBAPEBDXZ
?cend@QCborArray@kso_qt@@QEBA?AVConstIterator@12@XZ
?cend@QCborMap@kso_qt@@QEBA?AVConstIterator@12@XZ
?cend@QString@kso_qt@@QEBAPEBVQChar@2@XZ
?cend@QStringRef@kso_qt@@QEBAPEBVQChar@2@XZ
?center@QLine@kso_qt@@QEBA?AVQPoint@2@XZ
?center@QLineF@kso_qt@@QEBA?AVQPointF@2@XZ
?center@QRect@kso_qt@@QEBA?AVQPoint@2@XZ
?center@QRectF@kso_qt@@QEBA?AVQPointF@2@XZ
?center@kso_qt@@YAAEAVQTextStream@1@AEAV21@@Z
?changePersistentIndex@QAbstractItemModel@kso_qt@@IEAAXAEBVQModelIndex@2@0@Z
?changePersistentIndexList@QAbstractItemModel@kso_qt@@IEAAXAEBV?$QList@VQModelIndex@kso_qt@@@2@0@Z
?channelBytesWritten@QIODevice@kso_qt@@QEAAXH_J@Z
?channelReadyRead@QIODevice@kso_qt@@QEAAXH@Z
?characterOffset@QXmlStreamReader@kso_qt@@QEBA_JXZ
?checkConnectArgs@QMetaObject@kso_qt@@SA_NAEBVQMetaMethod@2@0@Z
?checkConnectArgs@QMetaObject@kso_qt@@SA_NPEBD0@Z
?checkIndex@QAbstractItemModel@kso_qt@@QEBA_NAEBVQModelIndex@2@V?$QFlags@W4CheckIndexOption@QAbstractItemModel@kso_qt@@@2@@Z
?checkInstance@QCoreApplicationPrivate@kso_qt@@SA_NPEBD@Z
?checkPipeState@QWindowsPipeReader@kso_qt@@AEAAKXZ
?checkQObjectShared@ExternalRefCountData@QtSharedPointer@kso_qt@@QEAAXPEBVQObject@3@@Z
?checkReceiverThread@QCoreApplicationPrivate@kso_qt@@SAXPEAVQObject@2@@Z
?child@QChildEvent@kso_qt@@QEBAPEAVQObject@2@XZ
?child@QModelIndex@kso_qt@@QEBA?AV12@HH@Z
?child@QPersistentModelIndex@kso_qt@@QEBA?AVQModelIndex@2@HH@Z
?childEvent@QObject@kso_qt@@MEAAXPEAVQChildEvent@2@@Z
?childGroups@QSettings@kso_qt@@QEBA?AVQStringList@2@XZ
?childKeys@QSettings@kso_qt@@QEBA?AVQStringList@2@XZ
?childMode@QState@kso_qt@@QEBA?AW4ChildMode@12@XZ
?childModeChanged@QState@kso_qt@@QEAAXUQPrivateSignal@12@@Z
?childStates@QStatePrivate@kso_qt@@QEBA?AV?$QList@PEAVQAbstractState@kso_qt@@@2@XZ
?children@QObject@kso_qt@@QEBAAEBV?$QList@PEAVQObject@kso_qt@@@2@XZ
?children@QResource@kso_qt@@IEBA?AVQStringList@2@XZ
?chop@QByteArray@kso_qt@@QEAAXH@Z
?chop@QRingBuffer@kso_qt@@QEAAX_J@Z
?chop@QString@kso_qt@@QEAAXH@Z
?chop@QStringRef@kso_qt@@QEAAXH@Z
?chopped@QByteArray@kso_qt@@QEBA?AV12@H@Z
?chopped@QString@kso_qt@@QEBA?AV12@H@Z
?chopped@QStringRef@kso_qt@@QEBA?AV12@H@Z
?classInfo@QMetaObject@kso_qt@@QEBA?AVQMetaClassInfo@2@H@Z
?classInfoCount@QMetaObject@kso_qt@@QEBAHXZ
?classInfoCount@QMetaObjectBuilder@kso_qt@@QEBAHXZ
?classInfoName@QMetaObjectBuilder@kso_qt@@QEBA?AVQByteArray@2@H@Z
?classInfoOffset@QMetaObject@kso_qt@@QEBAHXZ
?classInfoValue@QMetaObjectBuilder@kso_qt@@QEBA?AVQByteArray@2@H@Z
?className@QMetaObject@kso_qt@@QEBAPEBDXZ
?className@QMetaObjectBuilder@kso_qt@@QEBA?AVQByteArray@2@XZ
?cleanConnectionLists@QObjectPrivate@kso_qt@@QEAAXXZ
?cleanHandle@QSharedMemoryPrivate@kso_qt@@QEAA_NXZ
?cleanPath@QDir@kso_qt@@SA?AVQString@2@AEBV32@@Z
?cleanupThreadData@QCoreApplicationPrivate@kso_qt@@QEAAXXZ
?clear@?$QList@VQItemSelectionRange@kso_qt@@@kso_qt@@QEAAXXZ
?clear@?$QVector@VQPoint@kso_qt@@@kso_qt@@QEAAXXZ
?clear@?$QVector@VQPointF@kso_qt@@@kso_qt@@QEAAXXZ
?clear@?$QVector@VQXmlStreamAttribute@kso_qt@@@kso_qt@@QEAAXXZ
?clear@QAnimationGroup@kso_qt@@QEAAXXZ
?clear@QBitArray@kso_qt@@QEAAXXZ
?clear@QByteArray@kso_qt@@QEAAXXZ
?clear@QCborArray@kso_qt@@QEAAXXZ
?clear@QCborMap@kso_qt@@QEAAXXZ
?clear@QCborStreamReader@kso_qt@@QEAAXXZ
?clear@QFileSystemMetaData@kso_qt@@QEAAXXZ
?clear@QItemSelectionModel@kso_qt@@UEAAXXZ
?clear@QMimeData@kso_qt@@QEAAXXZ
?clear@QMimeTypePrivate@kso_qt@@QEAAXXZ
?clear@QObjectCleanupHandler@kso_qt@@QEAAXXZ
?clear@QProcessEnvironment@kso_qt@@QEAAXXZ
?clear@QRingBuffer@kso_qt@@QEAAXXZ
?clear@QSettings@kso_qt@@QEAAXXZ
?clear@QSortFilterProxyModel@kso_qt@@QEAAXXZ
?clear@QString@kso_qt@@QEAAXXZ
?clear@QStringRef@kso_qt@@QEAAXXZ
?clear@QThreadPool@kso_qt@@QEAAXXZ
?clear@QThreadPoolPrivate@kso_qt@@QEAAXXZ
?clear@QUrl@kso_qt@@QEAAXXZ
?clear@QUrlQuery@kso_qt@@QEAAXXZ
?clear@QVariant@kso_qt@@QEAAXXZ
?clear@QXmlStreamReader@kso_qt@@QEAAXXZ
?clear@QXmlStreamStringRef@kso_qt@@QEAAXXZ
?clearApplicationFilePath@QCoreApplicationPrivate@kso_qt@@SAXXZ
?clearBit@QBitArray@kso_qt@@QEAAXH@Z
?clearCache@QConfFile@kso_qt@@SAXXZ
?clearCurrentIndex@QItemSelectionModel@kso_qt@@UEAAXXZ
?clearError@QStateMachine@kso_qt@@QEAAXXZ
?clearFlags@QFileSystemMetaData@kso_qt@@QEAAXV?$QFlags@W4MetaDataFlag@QFileSystemMetaData@kso_qt@@@2@@Z
?clearHistory@QStateMachinePrivate@kso_qt@@QEAAXXZ
?clearPositionalArguments@QCommandLineParser@kso_qt@@QEAAXXZ
?clearSelection@QItemSelectionModel@kso_qt@@QEAAXXZ
?clockType@QElapsedTimer@kso_qt@@SA?AW4ClockType@12@XZ
?clone@QException@kso_qt@@UEBAPEAV12@XZ
?clone@QTimeZonePrivate@kso_qt@@UEBAPEAV12@XZ
?clone@QUnhandledException@kso_qt@@UEBAPEAV12@XZ
?clone@QUtcTimeZonePrivate@kso_qt@@UEBAPEAV12@XZ
?clone@QWinTimeZonePrivate@kso_qt@@UEBAPEAV12@XZ
?cloneFlags@QArrayData@kso_qt@@QEBA?AV?$QFlags@W4AllocationOption@QArrayData@kso_qt@@@2@XZ
?cloneTo@QAbstractFileEngine@kso_qt@@UEAA_NPEAV12@@Z
?cloneTo@QFSFileEngine@kso_qt@@UEAA_NPEAVQAbstractFileEngine@2@@Z
?close@QAbstractFileEngine@kso_qt@@UEAA_NXZ
?close@QBuffer@kso_qt@@UEAAXXZ
?close@QFSFileEngine@kso_qt@@UEAA_NXZ
?close@QFileDevice@kso_qt@@UEAAXXZ
?close@QIODevice@kso_qt@@UEAAXXZ
?close@QProcess@kso_qt@@UEAAXXZ
?close@QSaveFile@kso_qt@@EEAAXXZ
?closeFdFh@QFSFileEnginePrivate@kso_qt@@QEAA_NXZ
?closePrintDevice@QCoreApplication@kso_qt@@QEAAXAEAVQString@2@@Z
?closeReadChannel@QProcess@kso_qt@@QEAAXW4ProcessChannel@12@@Z
?closeWriteChannel@QProcess@kso_qt@@QEAAXXZ
?closestPausedAnimationTimerTimeToFinish@QUnifiedTimer@kso_qt@@AEAAHXZ
?closingDown@QAbstractEventDispatcher@kso_qt@@UEAAXXZ
?closingDown@QCoreApplication@kso_qt@@SA_NXZ
?closingDown@QEventDispatcherWin32@kso_qt@@UEAAXXZ
?cmp@QVariant@kso_qt@@QEBA_NAEBV12@@Z
?codeToCountry@QLocalePrivate@kso_qt@@SA?AW4Country@QLocale@2@VQStringView@2@@Z
?codeToLanguage@QLocalePrivate@kso_qt@@SA?AW4Language@QLocale@2@VQStringView@2@@Z
?codeToScript@QLocalePrivate@kso_qt@@SA?AW4Script@QLocale@2@VQStringView@2@@Z
?codec@QTextStream@kso_qt@@QEBAPEAVQTextCodec@2@XZ
?codec@QXmlStreamWriter@kso_qt@@QEBAPEAVQTextCodec@2@XZ
?codecForHtml@QTextCodec@kso_qt@@SAPEAV12@AEBVQByteArray@2@@Z
?codecForHtml@QTextCodec@kso_qt@@SAPEAV12@AEBVQByteArray@2@PEAV12@@Z
?codecForLocale@QTextCodec@kso_qt@@SAPEAV12@XZ
?codecForMib@QTextCodec@kso_qt@@SAPEAV12@H@Z
?codecForName@QTextCodec@kso_qt@@SAPEAV12@AEBVQByteArray@2@@Z
?codecForName@QTextCodec@kso_qt@@SAPEAV12@PEBD@Z
?codecForTr@QTextCodec@kso_qt@@SAPEAV12@XZ
?codecForUtfText@QTextCodec@kso_qt@@SAPEAV12@AEBVQByteArray@2@@Z
?codecForUtfText@QTextCodec@kso_qt@@SAPEAV12@AEBVQByteArray@2@PEAV12@@Z
?color@QMapNodeBase@kso_qt@@QEBA?AW4Color@12@XZ
?colorData@QMimeData@kso_qt@@QEBA?AVQVariant@2@XZ
?column@QModelIndex@kso_qt@@QEBAHXZ
?column@QPersistentModelIndex@kso_qt@@QEBAHXZ
?columnCount@QAbstractListModel@kso_qt@@EEBAHAEBVQModelIndex@2@@Z
?columnCount@QIdentityProxyModel@kso_qt@@UEBAHAEBVQModelIndex@2@@Z
?columnCount@QSortFilterProxyModel@kso_qt@@UEBAHAEBVQModelIndex@2@@Z
?columnIntersectsSelection@QItemSelectionModel@kso_qt@@QEBA_NHAEBVQModelIndex@2@@Z
?columnNumber@QXmlStreamReader@kso_qt@@QEBA_JXZ
?columnsAboutToBeInserted@QAbstractItemModel@kso_qt@@QEAAXAEBVQModelIndex@2@HHUQPrivateSignal@12@@Z
?columnsAboutToBeInserted@QAbstractItemModelPrivate@kso_qt@@QEAAXAEBVQModelIndex@2@HH@Z
?columnsAboutToBeMoved@QAbstractItemModel@kso_qt@@QEAAXAEBVQModelIndex@2@HH0HUQPrivateSignal@12@@Z
?columnsAboutToBeRemoved@QAbstractItemModel@kso_qt@@QEAAXAEBVQModelIndex@2@HHUQPrivateSignal@12@@Z
?columnsAboutToBeRemoved@QAbstractItemModelPrivate@kso_qt@@QEAAXAEBVQModelIndex@2@HH@Z
?columnsInserted@QAbstractItemModel@kso_qt@@QEAAXAEBVQModelIndex@2@HHUQPrivateSignal@12@@Z
?columnsInserted@QAbstractItemModelPrivate@kso_qt@@QEAAXAEBVQModelIndex@2@HH@Z
?columnsMoved@QAbstractItemModel@kso_qt@@QEAAXAEBVQModelIndex@2@HH0HUQPrivateSignal@12@@Z
?columnsRemoved@QAbstractItemModel@kso_qt@@QEAAXAEBVQModelIndex@2@HHUQPrivateSignal@12@@Z
?columnsRemoved@QAbstractItemModelPrivate@kso_qt@@QEAAXAEBVQModelIndex@2@HH@Z
?combiningClass@QChar@kso_qt@@QEBAEXZ
?combiningClass@QChar@kso_qt@@SAEI@Z
?combiningClass@QCharRef@kso_qt@@QEBAEXZ
?comment@QMimeType@kso_qt@@QEBA?AVQString@2@XZ
?comment@QTimeZone@kso_qt@@QEBA?AVQString@2@XZ
?comment@QTimeZonePrivate@kso_qt@@UEBA?AVQString@2@XZ
?comment@QUtcTimeZonePrivate@kso_qt@@UEBA?AVQString@2@XZ
?comment@QWinTimeZonePrivate@kso_qt@@UEBA?AVQString@2@XZ
?commit@QSaveFile@kso_qt@@QEAA_NXZ
?commitTransaction@QDataStream@kso_qt@@QEAA_NXZ
?commitTransaction@QIODevice@kso_qt@@QEAAXXZ
?commonPrefix@QVersionNumber@kso_qt@@SA?AV12@AEBV12@0@Z
?compact@QJsonArray@kso_qt@@AEAAXXZ
?compact@QJsonObject@kso_qt@@AEAAXXZ
?compare@QByteArray@kso_qt@@QEBAHAEBV12@W4CaseSensitivity@Qt@2@@Z
?compare@QByteArray@kso_qt@@QEBAHPEBDW4CaseSensitivity@Qt@2@@Z
?compare@QCborArray@kso_qt@@QEBAHAEBV12@@Z
?compare@QCborMap@kso_qt@@QEBAHAEBV12@@Z
?compare@QCborValue@kso_qt@@QEBAHAEBV12@@Z
?compare@QCborValueRef@kso_qt@@QEBAHAEBVQCborValue@2@@Z
?compare@QCollator@kso_qt@@QEBAHAEBVQString@2@0@Z
?compare@QCollator@kso_qt@@QEBAHAEBVQStringRef@2@0@Z
?compare@QCollator@kso_qt@@QEBAHPEBVQChar@2@H0H@Z
?compare@QCollatorSortKey@kso_qt@@QEBAHAEBV12@@Z
?compare@QMetaType@kso_qt@@SA_NPEBX0HPEAH@Z
?compare@QOperatingSystemVersion@kso_qt@@CAHAEBV12@0@Z
?compare@QString@kso_qt@@QEBAHAEBV12@W4CaseSensitivity@Qt@2@@Z
?compare@QString@kso_qt@@QEBAHAEBVQStringRef@2@W4CaseSensitivity@Qt@2@@Z
?compare@QString@kso_qt@@QEBAHVQLatin1String@2@W4CaseSensitivity@Qt@2@@Z
?compare@QString@kso_qt@@QEBAHVQStringView@2@W4CaseSensitivity@Qt@2@@Z
?compare@QString@kso_qt@@SAHAEBV12@0W4CaseSensitivity@Qt@2@@Z
?compare@QString@kso_qt@@SAHAEBV12@AEBVQStringRef@2@W4CaseSensitivity@Qt@2@@Z
?compare@QString@kso_qt@@SAHAEBV12@VQLatin1String@2@W4CaseSensitivity@Qt@2@@Z
?compare@QString@kso_qt@@SAHVQLatin1String@2@AEBV12@W4CaseSensitivity@Qt@2@@Z
?compare@QStringRef@kso_qt@@QEBAHAEBV12@W4CaseSensitivity@Qt@2@@Z
?compare@QStringRef@kso_qt@@QEBAHAEBVQByteArray@2@W4CaseSensitivity@Qt@2@@Z
?compare@QStringRef@kso_qt@@QEBAHAEBVQString@2@W4CaseSensitivity@Qt@2@@Z
?compare@QStringRef@kso_qt@@QEBAHVQLatin1String@2@W4CaseSensitivity@Qt@2@@Z
?compare@QStringRef@kso_qt@@SAHAEBV12@0W4CaseSensitivity@Qt@2@@Z
?compare@QStringRef@kso_qt@@SAHAEBV12@AEBVQString@2@W4CaseSensitivity@Qt@2@@Z
?compare@QStringRef@kso_qt@@SAHAEBV12@VQLatin1String@2@W4CaseSensitivity@Qt@2@@Z
?compare@QVariant@kso_qt@@QEBAHAEBV12@@Z
?compare@QVersionNumber@kso_qt@@SAHAEBV12@0@Z
?compareStrings@QtPrivate@kso_qt@@YAHVQLatin1String@2@0W4CaseSensitivity@Qt@2@@Z
?compareStrings@QtPrivate@kso_qt@@YAHVQLatin1String@2@VQStringView@2@W4CaseSensitivity@Qt@2@@Z
?compareStrings@QtPrivate@kso_qt@@YAHVQStringView@2@0W4CaseSensitivity@Qt@2@@Z
?compareStrings@QtPrivate@kso_qt@@YAHVQStringView@2@VQLatin1String@2@W4CaseSensitivity@Qt@2@@Z
?compare_helper@QString@kso_qt@@CAHPEBVQChar@2@H0HW4CaseSensitivity@Qt@2@@Z
?compare_helper@QString@kso_qt@@CAHPEBVQChar@2@HPEBDHW4CaseSensitivity@Qt@2@@Z
?compare_helper@QString@kso_qt@@CAHPEBVQChar@2@HVQLatin1String@2@W4CaseSensitivity@Qt@2@@Z
?completeBaseName@QFileInfo@kso_qt@@QEBA?AVQString@2@XZ
?completeSuffix@QFileInfo@kso_qt@@QEBA?AVQString@2@XZ
?compressEvent@QCoreApplication@kso_qt@@MEAA_NPEAVQEvent@2@PEAVQObject@2@PEAVQPostEventList@2@@Z
?computeEntrySet@QStateMachinePrivate@kso_qt@@QEAA?AV?$QList@PEAVQAbstractState@kso_qt@@@2@AEBV?$QList@PEAVQAbstractTransition@kso_qt@@@2@AEAV?$QSet@PEAVQAbstractState@kso_qt@@@2@PEAUCalculationCache@2@@Z
?computeExitSet@QStateMachinePrivate@kso_qt@@QEAA?AV?$QList@PEAVQAbstractState@kso_qt@@@2@AEBV?$QList@PEAVQAbstractTransition@kso_qt@@@2@PEAUCalculationCache@2@@Z
?computeExitSet_Unordered@QStateMachinePrivate@kso_qt@@QEAA?AV?$QSet@PEAVQAbstractState@kso_qt@@@2@AEBV?$QList@PEAVQAbstractTransition@kso_qt@@@2@PEAUCalculationCache@2@@Z
?computeExitSet_Unordered@QStateMachinePrivate@kso_qt@@QEAA?AV?$QSet@PEAVQAbstractState@kso_qt@@@2@PEAVQAbstractTransition@2@PEAUCalculationCache@2@@Z
?computePendingRestorables@QStateMachinePrivate@kso_qt@@QEBA?AV?$QHash@VRestorableId@QStateMachinePrivate@kso_qt@@VQVariant@3@@2@AEBV?$QList@PEAVQAbstractState@kso_qt@@@2@@Z
?computePropertyAssignments@QStateMachinePrivate@kso_qt@@QEBA?AV?$QHash@PEAVQAbstractState@kso_qt@@V?$QVector@UQPropertyAssignment@kso_qt@@@2@@2@AEBV?$QList@PEAVQAbstractState@kso_qt@@@2@AEAV?$QHash@VRestorableId@QStateMachinePrivate@kso_qt@@VQVariant@3@@2@@Z
?concrete@QCborValueRef@kso_qt@@AEBA?AVQCborValue@2@XZ
?concrete@QCborValueRef@kso_qt@@CA?AVQCborValue@2@V12@@Z
?concreteType@QCborValueRef@kso_qt@@AEBA?AW4Type@QCborValue@2@XZ
?concreteType@QCborValueRef@kso_qt@@CA?AW4Type@QCborValue@2@V12@@Z
?configuration@QStateMachine@kso_qt@@QEBA?AV?$QSet@PEAVQAbstractState@kso_qt@@@2@XZ
?connect@QMetaObject@kso_qt@@SA?AVConnection@12@PEBVQObject@2@H0HHPEAH@Z
?connect@QObject@kso_qt@@QEBA?AVConnection@QMetaObject@2@PEBV12@PEBD1W4ConnectionType@Qt@2@@Z
?connect@QObject@kso_qt@@SA?AVConnection@QMetaObject@2@PEBV12@AEBVQMetaMethod@2@01W4ConnectionType@Qt@2@@Z
?connect@QObject@kso_qt@@SA?AVConnection@QMetaObject@2@PEBV12@PEBD01W4ConnectionType@Qt@2@@Z
?connect@QObjectPrivate@kso_qt@@SA?AVConnection@QMetaObject@2@PEBVQObject@2@HPEAVQSlotObjectBase@QtPrivate@2@W4ConnectionType@Qt@2@@Z
?connectImpl@QObject@kso_qt@@CA?AVConnection@QMetaObject@2@PEBV12@PEAPEAX01PEAVQSlotObjectBase@QtPrivate@2@W4ConnectionType@Qt@2@PEBHPEBU42@@Z
?connectImpl@QObjectPrivate@kso_qt@@SA?AVConnection@QMetaObject@2@PEBVQObject@2@H0PEAPEAXPEAVQSlotObjectBase@QtPrivate@2@W4ConnectionType@Qt@2@PEBHPEBU42@@Z
?connectNotify@QBuffer@kso_qt@@MEAAXAEBVQMetaMethod@2@@Z
?connectNotify@QFutureWatcherBase@kso_qt@@MEAAXAEBVQMetaMethod@2@@Z
?connectNotify@QObject@kso_qt@@MEAAXAEBVQMetaMethod@2@@Z
?connectNotify@QObjectPrivate@kso_qt@@QEAAXAEBVQMetaMethod@2@@Z
?connectOutputInterface@QFutureWatcherBase@kso_qt@@IEAAXXZ
?connectSlotsByName@QMetaObject@kso_qt@@SAXPEAVQObject@2@@Z
?constBegin@?$QList@VQItemSelectionRange@kso_qt@@@kso_qt@@QEBA?AVconst_iterator@12@XZ
?constBegin@?$QVector@VQPoint@kso_qt@@@kso_qt@@QEBA?AVconst_iterator@?$QTypedArrayData@VQPoint@kso_qt@@@2@V342@@Z
?constBegin@?$QVector@VQPoint@kso_qt@@@kso_qt@@QEBAPEBVQPoint@2@XZ
?constBegin@?$QVector@VQPointF@kso_qt@@@kso_qt@@QEBA?AVconst_iterator@?$QTypedArrayData@VQPointF@kso_qt@@@2@V342@@Z
?constBegin@?$QVector@VQPointF@kso_qt@@@kso_qt@@QEBAPEBVQPointF@2@XZ
?constBegin@?$QVector@VQXmlStreamAttribute@kso_qt@@@kso_qt@@QEBAPEBVQXmlStreamAttribute@2@XZ
?constBegin@QByteArray@kso_qt@@QEBAPEBDXZ
?constBegin@QCborArray@kso_qt@@QEBA?AVConstIterator@12@XZ
?constBegin@QCborMap@kso_qt@@QEBA?AVConstIterator@12@XZ
?constBegin@QJsonArray@kso_qt@@QEBA?AVconst_iterator@12@XZ
?constBegin@QJsonObject@kso_qt@@QEBA?AVconst_iterator@12@XZ
?constBegin@QString@kso_qt@@QEBAPEBVQChar@2@XZ
?constBegin@QStringRef@kso_qt@@QEBAPEBVQChar@2@XZ
?constData@?$QVector@VQPoint@kso_qt@@@kso_qt@@QEBAPEBVQPoint@2@XZ
?constData@?$QVector@VQPointF@kso_qt@@@kso_qt@@QEBAPEBVQPointF@2@XZ
?constData@?$QVector@VQXmlStreamAttribute@kso_qt@@@kso_qt@@QEBAPEBVQXmlStreamAttribute@2@XZ
?constData@QByteArray@kso_qt@@QEBAPEBDXZ
?constData@QSharedMemory@kso_qt@@QEBAPEBXXZ
?constData@QString@kso_qt@@QEBAPEBVQChar@2@XZ
?constData@QStringRef@kso_qt@@QEBAPEBVQChar@2@XZ
?constData@QVariant@kso_qt@@QEBAPEBXXZ
?constEnd@?$QList@VQItemSelectionRange@kso_qt@@@kso_qt@@QEBA?AVconst_iterator@12@XZ
?constEnd@?$QVector@VQPoint@kso_qt@@@kso_qt@@QEBA?AVconst_iterator@?$QTypedArrayData@VQPoint@kso_qt@@@2@V342@@Z
?constEnd@?$QVector@VQPoint@kso_qt@@@kso_qt@@QEBAPEBVQPoint@2@XZ
?constEnd@?$QVector@VQPointF@kso_qt@@@kso_qt@@QEBA?AVconst_iterator@?$QTypedArrayData@VQPointF@kso_qt@@@2@V342@@Z
?constEnd@?$QVector@VQPointF@kso_qt@@@kso_qt@@QEBAPEBVQPointF@2@XZ
?constEnd@?$QVector@VQXmlStreamAttribute@kso_qt@@@kso_qt@@QEBAPEBVQXmlStreamAttribute@2@XZ
?constEnd@QByteArray@kso_qt@@QEBAPEBDXZ
?constEnd@QCborArray@kso_qt@@QEBA?AVConstIterator@12@XZ
?constEnd@QCborMap@kso_qt@@QEBA?AVConstIterator@12@XZ
?constEnd@QJsonArray@kso_qt@@QEBA?AVconst_iterator@12@XZ
?constEnd@QJsonObject@kso_qt@@QEBA?AVconst_iterator@12@XZ
?constEnd@QString@kso_qt@@QEBAPEBVQChar@2@XZ
?constEnd@QStringRef@kso_qt@@QEBAPEBVQChar@2@XZ
?constFind@QCborMap@kso_qt@@QEBA?AVConstIterator@12@AEBVQCborValue@2@@Z
?constFind@QCborMap@kso_qt@@QEBA?AVConstIterator@12@AEBVQString@2@@Z
?constFind@QCborMap@kso_qt@@QEBA?AVConstIterator@12@VQLatin1String@2@@Z
?constFind@QCborMap@kso_qt@@QEBA?AVConstIterator@12@_J@Z
?constFind@QJsonObject@kso_qt@@QEBA?AVconst_iterator@12@AEBVQString@2@@Z
?constFind@QJsonObject@kso_qt@@QEBA?AVconst_iterator@12@VQLatin1String@2@@Z
?constFirst@?$QList@VQItemSelectionRange@kso_qt@@@kso_qt@@QEBAAEBVQItemSelectionRange@2@XZ
?constFirst@?$QVector@VQPoint@kso_qt@@@kso_qt@@QEBAAEBVQPoint@2@XZ
?constFirst@?$QVector@VQPointF@kso_qt@@@kso_qt@@QEBAAEBVQPointF@2@XZ
?constFirst@?$QVector@VQXmlStreamAttribute@kso_qt@@@kso_qt@@QEBAAEBVQXmlStreamAttribute@2@XZ
?constLast@?$QList@VQItemSelectionRange@kso_qt@@@kso_qt@@QEBAAEBVQItemSelectionRange@2@XZ
?constLast@?$QVector@VQPoint@kso_qt@@@kso_qt@@QEBAAEBVQPoint@2@XZ
?constLast@?$QVector@VQPointF@kso_qt@@@kso_qt@@QEBAAEBVQPointF@2@XZ
?constLast@?$QVector@VQXmlStreamAttribute@kso_qt@@@kso_qt@@QEBAAEBVQXmlStreamAttribute@2@XZ
?construct@QMetaType@kso_qt@@QEBAPEAXPEAXPEBX@Z
?construct@QMetaType@kso_qt@@SAPEAXHPEAXPEBX@Z
?construct@QMetaType@kso_qt@@SAPEAXHPEBX@Z
?constructExtended@QMetaType@kso_qt@@AEBAPEAXPEAXPEBX@Z
?constructor@QMetaObject@kso_qt@@QEBA?AVQMetaMethod@2@H@Z
?constructor@QMetaObjectBuilder@kso_qt@@QEBA?AVQMetaMethodBuilder@2@H@Z
?constructorCount@QMetaObject@kso_qt@@QEBAHXZ
?constructorCount@QMetaObjectBuilder@kso_qt@@QEBAHXZ
?containerDepth@QCborStreamReader@kso_qt@@QEBAHXZ
?contains@?$QList@VQItemSelectionRange@kso_qt@@@kso_qt@@QEBA_NAEBVQItemSelectionRange@2@@Z
?contains@?$QVector@VQPoint@kso_qt@@@kso_qt@@QEBA_NAEBVQPoint@2@@Z
?contains@?$QVector@VQPointF@kso_qt@@@kso_qt@@QEBA_NAEBVQPointF@2@@Z
?contains@?$QVector@VQXmlStreamAttribute@kso_qt@@@kso_qt@@QEBA_NAEBVQXmlStreamAttribute@2@@Z
?contains@QByteArray@kso_qt@@QEBA_NAEBV12@@Z
?contains@QByteArray@kso_qt@@QEBA_ND@Z
?contains@QByteArray@kso_qt@@QEBA_NPEBD@Z
?contains@QCborArray@kso_qt@@QEBA_NAEBVQCborValue@2@@Z
?contains@QCborMap@kso_qt@@QEBA_NAEBVQCborValue@2@@Z
?contains@QCborMap@kso_qt@@QEBA_NAEBVQString@2@@Z
?contains@QCborMap@kso_qt@@QEBA_NVQLatin1String@2@@Z
?contains@QCborMap@kso_qt@@QEBA_N_J@Z
?contains@QItemSelection@kso_qt@@QEBA_NAEBVQModelIndex@2@@Z
?contains@QItemSelectionRange@kso_qt@@QEBA_NAEBVQModelIndex@2@@Z
?contains@QItemSelectionRange@kso_qt@@QEBA_NHHAEBVQModelIndex@2@@Z
?contains@QJsonArray@kso_qt@@QEBA_NAEBVQJsonValue@2@@Z
?contains@QJsonObject@kso_qt@@QEBA_NAEBVQString@2@@Z
?contains@QJsonObject@kso_qt@@QEBA_NVQLatin1String@2@@Z
?contains@QProcessEnvironment@kso_qt@@QEBA_NAEBVQString@2@@Z
?contains@QRect@kso_qt@@QEBA_NAEBV12@_N@Z
?contains@QRect@kso_qt@@QEBA_NAEBVQPoint@2@_N@Z
?contains@QRect@kso_qt@@QEBA_NHH@Z
?contains@QRect@kso_qt@@QEBA_NHH_N@Z
?contains@QRectF@kso_qt@@QEBA_NAEBV12@@Z
?contains@QRectF@kso_qt@@QEBA_NAEBVQPointF@2@@Z
?contains@QRectF@kso_qt@@QEBA_NNN@Z
?contains@QSettings@kso_qt@@QEBA_NAEBVQString@2@@Z
?contains@QString@kso_qt@@QEBA_NAEAVQRegExp@2@@Z
?contains@QString@kso_qt@@QEBA_NAEBV12@W4CaseSensitivity@Qt@2@@Z
?contains@QString@kso_qt@@QEBA_NAEBVQRegExp@2@@Z
?contains@QString@kso_qt@@QEBA_NAEBVQRegularExpression@2@@Z
?contains@QString@kso_qt@@QEBA_NAEBVQRegularExpression@2@PEAVQRegularExpressionMatch@2@@Z
?contains@QString@kso_qt@@QEBA_NAEBVQStringRef@2@W4CaseSensitivity@Qt@2@@Z
?contains@QString@kso_qt@@QEBA_NVQChar@2@W4CaseSensitivity@Qt@2@@Z
?contains@QString@kso_qt@@QEBA_NVQLatin1String@2@W4CaseSensitivity@Qt@2@@Z
?contains@QStringRef@kso_qt@@QEBA_NAEBV12@W4CaseSensitivity@Qt@2@@Z
?contains@QStringRef@kso_qt@@QEBA_NAEBVQString@2@W4CaseSensitivity@Qt@2@@Z
?contains@QStringRef@kso_qt@@QEBA_NVQChar@2@W4CaseSensitivity@Qt@2@@Z
?contains@QStringRef@kso_qt@@QEBA_NVQLatin1String@2@W4CaseSensitivity@Qt@2@@Z
?contains@ResultStoreBase@QtPrivate@kso_qt@@QEBA_NH@Z
?contains_impl@?$QList@VQItemSelectionRange@kso_qt@@@kso_qt@@AEBA_NAEBVQItemSelectionRange@2@UArrayCompatibleLayout@QListData@2@@Z
?contains_impl@?$QList@VQItemSelectionRange@kso_qt@@@kso_qt@@AEBA_NAEBVQItemSelectionRange@2@UNotArrayCompatibleLayout@QListData@2@@Z
?convert@QMetaType@kso_qt@@SA_NPEBXHPEAXH@Z
?convert@QVariant@kso_qt@@QEAA_NH@Z
?convert@QVariant@kso_qt@@QEBA_NHPEAX@Z
?convertFromAscii@QAbstractConcatenable@kso_qt@@KAXDAEAPEAVQChar@2@@Z
?convertFromAscii@QAbstractConcatenable@kso_qt@@KAXPEBDHAEAPEAVQChar@2@@Z
?convertToLatin1@QtPrivate@kso_qt@@YA?AVQByteArray@2@VQStringView@2@@Z
?convertToLocal8Bit@QtPrivate@kso_qt@@YA?AVQByteArray@2@VQStringView@2@@Z
?convertToUcs4@QtPrivate@kso_qt@@YA?AV?$QVector@I@2@VQStringView@2@@Z
?convertToUtf8@QtPrivate@kso_qt@@YA?AVQByteArray@2@VQStringView@2@@Z
?copy@QAbstractFileEngine@kso_qt@@UEAA_NAEBVQString@2@@Z
?copy@QFSFileEngine@kso_qt@@UEAA_NAEBVQString@2@@Z
?copy@QFile@kso_qt@@QEAA_NAEBVQString@2@@Z
?copy@QFile@kso_qt@@SA_NAEBVQString@2@0@Z
?copyConstruct@?$QVector@VQPoint@kso_qt@@@kso_qt@@AEAAXPEBVQPoint@2@0PEAV32@@Z
?copyConstruct@?$QVector@VQPointF@kso_qt@@@kso_qt@@AEAAXPEBVQPointF@2@0PEAV32@@Z
?copyConstruct@?$QVector@VQXmlStreamAttribute@kso_qt@@@kso_qt@@AEAAXPEBVQXmlStreamAttribute@2@0PEAV32@@Z
?count@?$QList@VQItemSelectionRange@kso_qt@@@kso_qt@@QEBAHAEBVQItemSelectionRange@2@@Z
?count@?$QList@VQItemSelectionRange@kso_qt@@@kso_qt@@QEBAHXZ
?count@?$QVector@VQPoint@kso_qt@@@kso_qt@@QEBAHAEBVQPoint@2@@Z
?count@?$QVector@VQPoint@kso_qt@@@kso_qt@@QEBAHXZ
?count@?$QVector@VQPointF@kso_qt@@@kso_qt@@QEBAHAEBVQPointF@2@@Z
?count@?$QVector@VQPointF@kso_qt@@@kso_qt@@QEBAHXZ
?count@?$QVector@VQXmlStreamAttribute@kso_qt@@@kso_qt@@QEBAHAEBVQXmlStreamAttribute@2@@Z
?count@?$QVector@VQXmlStreamAttribute@kso_qt@@@kso_qt@@QEBAHXZ
?count@QBitArray@kso_qt@@QEBAHXZ
?count@QBitArray@kso_qt@@QEBAH_N@Z
?count@QByteArray@kso_qt@@QEBAHAEBV12@@Z
?count@QByteArray@kso_qt@@QEBAHD@Z
?count@QByteArray@kso_qt@@QEBAHPEBD@Z
?count@QByteArray@kso_qt@@QEBAHXZ
?count@QDir@kso_qt@@QEBAIXZ
?count@QJsonArray@kso_qt@@QEBAHXZ
?count@QJsonObject@kso_qt@@QEBAHXZ
?count@QString@kso_qt@@QEBAHAEBV12@W4CaseSensitivity@Qt@2@@Z
?count@QString@kso_qt@@QEBAHAEBVQRegExp@2@@Z
?count@QString@kso_qt@@QEBAHAEBVQRegularExpression@2@@Z
?count@QString@kso_qt@@QEBAHAEBVQStringRef@2@W4CaseSensitivity@Qt@2@@Z
?count@QString@kso_qt@@QEBAHVQChar@2@W4CaseSensitivity@Qt@2@@Z
?count@QString@kso_qt@@QEBAHXZ
?count@QStringRef@kso_qt@@QEBAHAEBV12@W4CaseSensitivity@Qt@2@@Z
?count@QStringRef@kso_qt@@QEBAHAEBVQString@2@W4CaseSensitivity@Qt@2@@Z
?count@QStringRef@kso_qt@@QEBAHVQChar@2@W4CaseSensitivity@Qt@2@@Z
?count@QStringRef@kso_qt@@QEBAHXZ
?count@ResultStoreBase@QtPrivate@kso_qt@@QEBAHXZ
?count_impl@?$QList@VQItemSelectionRange@kso_qt@@@kso_qt@@AEBAHAEBVQItemSelectionRange@2@UArrayCompatibleLayout@QListData@2@@Z
?count_impl@?$QList@VQItemSelectionRange@kso_qt@@@kso_qt@@AEBAHAEBVQItemSelectionRange@2@UNotArrayCompatibleLayout@QListData@2@@Z
?countriesForLanguage@QLocale@kso_qt@@SA?AV?$QList@W4Country@QLocale@kso_qt@@@2@W4Language@12@@Z
?country@QLocale@kso_qt@@QEBA?AW4Country@12@XZ
?country@QTimeZone@kso_qt@@QEBA?AW4Country@QLocale@2@XZ
?country@QTimeZonePrivate@kso_qt@@UEBA?AW4Country@QLocale@2@XZ
?country@QUtcTimeZonePrivate@kso_qt@@UEBA?AW4Country@QLocale@2@XZ
?countryCode@QLocalePrivate@kso_qt@@QEBA?AVQLatin1String@2@XZ
?countryId@QLocalePrivate@kso_qt@@QEBAGXZ
?countryToCode@QLocalePrivate@kso_qt@@SA?AVQLatin1String@2@W4Country@QLocale@2@@Z
?countryToString@QLocale@kso_qt@@SA?AVQString@2@W4Country@12@@Z
?crbegin@?$QList@VQItemSelectionRange@kso_qt@@@kso_qt@@QEBA?AV?$reverse_iterator@Vconst_iterator@?$QList@VQItemSelectionRange@kso_qt@@@kso_qt@@@std@@XZ
?crbegin@?$QVector@VQPoint@kso_qt@@@kso_qt@@QEBA?AV?$reverse_iterator@PEBVQPoint@kso_qt@@@std@@XZ
?crbegin@?$QVector@VQPoint@kso_qt@@@kso_qt@@QEBA?AV?$reverse_iterator@Vconst_iterator@?$QTypedArrayData@VQPoint@kso_qt@@@kso_qt@@@std@@XZ
?crbegin@?$QVector@VQPointF@kso_qt@@@kso_qt@@QEBA?AV?$reverse_iterator@PEBVQPointF@kso_qt@@@std@@XZ
?crbegin@?$QVector@VQPointF@kso_qt@@@kso_qt@@QEBA?AV?$reverse_iterator@Vconst_iterator@?$QTypedArrayData@VQPointF@kso_qt@@@kso_qt@@@std@@XZ
?crbegin@?$QVector@VQXmlStreamAttribute@kso_qt@@@kso_qt@@QEBA?AV?$reverse_iterator@PEBVQXmlStreamAttribute@kso_qt@@@std@@XZ
?crbegin@QByteArray@kso_qt@@QEBA?AV?$reverse_iterator@PEBD@std@@XZ
?crbegin@QString@kso_qt@@QEBA?AV?$reverse_iterator@PEBVQChar@kso_qt@@@std@@XZ
?crbegin@QStringRef@kso_qt@@QEBA?AV?$reverse_iterator@PEBVQChar@kso_qt@@@std@@XZ
?create@QAbstractFileEngine@kso_qt@@SAPEAV12@AEBVQString@2@@Z
?create@QLocalePrivate@kso_qt@@SAPEAV12@PEBUQLocaleData@2@V?$QFlags@W4NumberOption@QLocale@kso_qt@@@2@@Z
?create@QMetaType@kso_qt@@QEBAPEAXPEBX@Z
?create@QMetaType@kso_qt@@SAPEAXHPEBX@Z
?create@QNonContiguousByteDeviceFactory@kso_qt@@SAPEAVQNonContiguousByteDevice@2@PEAVQByteArray@2@@Z
?create@QNonContiguousByteDeviceFactory@kso_qt@@SAPEAVQNonContiguousByteDevice@2@PEAVQIODevice@2@@Z
?create@QNonContiguousByteDeviceFactory@kso_qt@@SAPEAVQNonContiguousByteDevice@2@V?$QSharedPointer@VQRingBuffer@kso_qt@@@2@@Z
?create@QSettingsPrivate@kso_qt@@SAPEAV12@AEBVQString@2@W4Format@QSettings@2@@Z
?create@QSettingsPrivate@kso_qt@@SAPEAV12@W4Format@QSettings@2@W4Scope@42@AEBVQString@2@2@Z
?create@QSharedMemory@kso_qt@@QEAA_NHW4AccessMode@12@@Z
?create@QSharedMemoryPrivate@kso_qt@@QEAA_NH@Z
?create@QVariant@kso_qt@@QEAAXHPEBX@Z
?createData@QMapDataBase@kso_qt@@SAPEAU12@XZ
?createEventDispatcher@QCoreApplicationPrivate@kso_qt@@UEAAXXZ
?createExtended@QMetaType@kso_qt@@AEBAPEAXPEBX@Z
?createIndex@QAbstractItemModel@kso_qt@@IEBA?AVQModelIndex@2@HHPEAX@Z
?createIndex@QAbstractItemModel@kso_qt@@IEBA?AVQModelIndex@2@HH_K@Z
?createIndex@QAbstractItemModelPrivate@kso_qt@@QEBA?AVQModelIndex@2@HHH@Z
?createIndex@QAbstractItemModelPrivate@kso_qt@@QEBA?AVQModelIndex@2@HHPEAX@Z
?createInitialTransition@QStateMachinePrivate@kso_qt@@QEBAPEAVQAbstractTransition@2@XZ
?createInternalHwnd@QEventDispatcherWin32@kso_qt@@IEAAXXZ
?createLocalFile@QTemporaryFile@kso_qt@@SAPEAV12@AEAVQFile@2@@Z
?createLocalFile@QTemporaryFile@kso_qt@@SAPEAV12@AEBVQString@2@@Z
?createMutex@QMutexPool@kso_qt@@AEAAPEAVQMutex@2@H@Z
?createNativeFile@QTemporaryFile@kso_qt@@SAPEAV12@AEAVQFile@2@@Z
?createNativeFile@QTemporaryFile@kso_qt@@SAPEAV12@AEBVQString@2@@Z
?createNode@QMapDataBase@kso_qt@@QEAAPEAUQMapNodeBase@2@HHPEAU32@_N@Z
?createProcessArgumentsModifier@QProcess@kso_qt@@QEBA?AV?$function@$$A6AXPEAUCreateProcessArguments@QProcess@kso_qt@@@Z@std@@XZ
?createProperty@QAbstractDynamicMetaObject@kso_qt@@UEAAHPEBD0@Z
?createSeparatedList@QLocale@kso_qt@@QEBA?AVQString@2@AEBVQStringList@2@@Z
?createShared@QNonContiguousByteDeviceFactory@kso_qt@@SA?AV?$QSharedPointer@VQNonContiguousByteDevice@kso_qt@@@2@PEAVQByteArray@2@@Z
?createShared@QNonContiguousByteDeviceFactory@kso_qt@@SA?AV?$QSharedPointer@VQNonContiguousByteDevice@kso_qt@@@2@PEAVQIODevice@2@@Z
?createShared@QNonContiguousByteDeviceFactory@kso_qt@@SA?AV?$QSharedPointer@VQNonContiguousByteDevice@kso_qt@@@2@V?$QSharedPointer@VQRingBuffer@kso_qt@@@2@@Z
?createThreadImpl@QThread@kso_qt@@CAPEAV12@$$QEAV?$future@X@std@@@Z
?createUuid@QUuid@kso_qt@@SA?AV12@XZ
?createUuidV3@QUuid@kso_qt@@SA?AV12@AEBV12@AEBVQByteArray@2@@Z
?createUuidV3@QUuid@kso_qt@@SA?AV12@AEBV12@AEBVQString@2@@Z
?createUuidV5@QUuid@kso_qt@@SA?AV12@AEBV12@AEBVQByteArray@2@@Z
?createUuidV5@QUuid@kso_qt@@SA?AV12@AEBV12@AEBVQString@2@@Z
?created@QFileInfo@kso_qt@@QEBA?AVQDateTime@2@XZ
?crend@?$QList@VQItemSelectionRange@kso_qt@@@kso_qt@@QEBA?AV?$reverse_iterator@Vconst_iterator@?$QList@VQItemSelectionRange@kso_qt@@@kso_qt@@@std@@XZ
?crend@?$QVector@VQPoint@kso_qt@@@kso_qt@@QEBA?AV?$reverse_iterator@PEBVQPoint@kso_qt@@@std@@XZ
?crend@?$QVector@VQPoint@kso_qt@@@kso_qt@@QEBA?AV?$reverse_iterator@Vconst_iterator@?$QTypedArrayData@VQPoint@kso_qt@@@kso_qt@@@std@@XZ
?crend@?$QVector@VQPointF@kso_qt@@@kso_qt@@QEBA?AV?$reverse_iterator@PEBVQPointF@kso_qt@@@std@@XZ
?crend@?$QVector@VQPointF@kso_qt@@@kso_qt@@QEBA?AV?$reverse_iterator@Vconst_iterator@?$QTypedArrayData@VQPointF@kso_qt@@@kso_qt@@@std@@XZ
?crend@?$QVector@VQXmlStreamAttribute@kso_qt@@@kso_qt@@QEBA?AV?$reverse_iterator@PEBVQXmlStreamAttribute@kso_qt@@@std@@XZ
?crend@QByteArray@kso_qt@@QEBA?AV?$reverse_iterator@PEBD@std@@XZ
?crend@QString@kso_qt@@QEBA?AV?$reverse_iterator@PEBVQChar@kso_qt@@@std@@XZ
?crend@QStringRef@kso_qt@@QEBA?AV?$reverse_iterator@PEBVQChar@kso_qt@@@std@@XZ
?critical@QMessageLogger@kso_qt@@QEBA?AVQDebug@2@AEBVQLoggingCategory@2@@Z
?critical@QMessageLogger@kso_qt@@QEBA?AVQDebug@2@P6AAEBVQLoggingCategory@2@XZ@Z
?critical@QMessageLogger@kso_qt@@QEBA?AVQDebug@2@XZ
?critical@QMessageLogger@kso_qt@@QEBAXAEBVQLoggingCategory@2@PEBDZZ
?critical@QMessageLogger@kso_qt@@QEBAXP6AAEBVQLoggingCategory@2@XZPEBDZZ
?critical@QMessageLogger@kso_qt@@QEBAXPEBDZZ
?ctor@QMetaType@kso_qt@@AEAAXPEBVQMetaTypeInterface@2@@Z
?cubicBezierSpline@QEasingCurve@kso_qt@@QEBA?AV?$QList@VQPointF@kso_qt@@@2@XZ
?currencySymbol@QLocale@kso_qt@@QEBA?AVQString@2@W4CurrencySymbolFormat@12@@Z
?current@QDeadlineTimer@kso_qt@@SA?AV12@W4TimerType@Qt@2@@Z
?current@QDir@kso_qt@@SA?AV12@XZ
?current@QOperatingSystemVersion@kso_qt@@SA?AV12@XZ
?current@QThreadData@kso_qt@@SAPEAV12@_N@Z
?currentAnimation@QSequentialAnimationGroup@kso_qt@@QEBAPEAVQAbstractAnimation@2@XZ
?currentAnimationChanged@QSequentialAnimationGroup@kso_qt@@QEAAXPEAVQAbstractAnimation@2@@Z
?currentChanged@QItemSelectionModel@kso_qt@@QEAAXAEBVQModelIndex@2@0@Z
?currentColumnChanged@QItemSelectionModel@kso_qt@@QEAAXAEBVQModelIndex@2@0@Z
?currentCpuArchitecture@QSysInfo@kso_qt@@SA?AVQString@2@XZ
?currentDate@QDate@kso_qt@@SA?AV12@XZ
?currentDateTime@QDateTime@kso_qt@@SA?AV12@XZ
?currentDateTimeUtc@QDateTime@kso_qt@@SA?AV12@XZ
?currentFileInfo@QAbstractFileEngineIterator@kso_qt@@UEBA?AVQFileInfo@2@XZ
?currentFilePath@QAbstractFileEngineIterator@kso_qt@@QEBA?AVQString@2@XZ
?currentFrame@QTimeLine@kso_qt@@QEBAHXZ
?currentIndex@QItemSelectionModel@kso_qt@@QEBA?AVQModelIndex@2@XZ
?currentLoop@QAbstractAnimation@kso_qt@@QEBAHXZ
?currentLoopChanged@QAbstractAnimation@kso_qt@@QEAAXH@Z
?currentLoopTime@QAbstractAnimation@kso_qt@@QEBAHXZ
?currentMSecsSinceEpoch@QDateTime@kso_qt@@SA_JXZ
?currentOffset@QCborStreamReader@kso_qt@@QEBA_JXZ
?currentPath@QDir@kso_qt@@SA?AVQString@2@XZ
?currentPath@QFSFileEngine@kso_qt@@SA?AVQString@2@AEBV32@@Z
?currentReadChannel@QIODevice@kso_qt@@QEBAHXZ
?currentRowChanged@QItemSelectionModel@kso_qt@@QEAAXAEBVQModelIndex@2@0@Z
?currentSecsSinceEpoch@QDateTime@kso_qt@@SA_JXZ
?currentStringChunkSize@QCborStreamReader@kso_qt@@QEBA_JXZ
?currentThread@QThread@kso_qt@@SAPEAV12@XZ
?currentThreadId@QThread@kso_qt@@SAPEAXXZ
?currentTime@QAbstractAnimation@kso_qt@@QEBAHXZ
?currentTime@QTime@kso_qt@@SA?AV12@XZ
?currentTime@QTimeLine@kso_qt@@QEBAHXZ
?currentType@QOperatingSystemVersion@kso_qt@@SA?AW4OSType@12@XZ
?currentUnicodeVersion@QChar@kso_qt@@SA?AW4UnicodeVersion@12@XZ
?currentValue@QTimeLine@kso_qt@@QEBANXZ
?currentValue@QVariantAnimation@kso_qt@@QEBA?AVQVariant@2@XZ
?currentWriteChannel@QIODevice@kso_qt@@QEBAHXZ
?cursorPosition@QDateTimeParser@kso_qt@@MEBAHXZ
?curveShape@QTimeLine@kso_qt@@QEBA?AW4CurveShape@12@XZ
?customEvent@QObject@kso_qt@@MEAAXPEAVQEvent@2@@Z
?customType@QEasingCurve@kso_qt@@QEBAP6ANN@ZXZ
?d_func@QAbstractAnimation@kso_qt@@AEAAPEAVQAbstractAnimationPrivate@2@XZ
?d_func@QAbstractAnimation@kso_qt@@AEBAPEBVQAbstractAnimationPrivate@2@XZ
?d_func@QAbstractEventDispatcher@kso_qt@@AEAAPEAVQAbstractEventDispatcherPrivate@2@XZ
?d_func@QAbstractEventDispatcher@kso_qt@@AEBAPEBVQAbstractEventDispatcherPrivate@2@XZ
?d_func@QAbstractFileEngine@kso_qt@@AEAAPEAVQAbstractFileEnginePrivate@2@XZ
?d_func@QAbstractFileEngine@kso_qt@@AEBAPEBVQAbstractFileEnginePrivate@2@XZ
?d_func@QAbstractItemModel@kso_qt@@AEAAPEAVQAbstractItemModelPrivate@2@XZ
?d_func@QAbstractItemModel@kso_qt@@AEBAPEBVQAbstractItemModelPrivate@2@XZ
?d_func@QAbstractProxyModel@kso_qt@@AEAAPEAVQAbstractProxyModelPrivate@2@XZ
?d_func@QAbstractProxyModel@kso_qt@@AEBAPEBVQAbstractProxyModelPrivate@2@XZ
?d_func@QAbstractState@kso_qt@@AEAAPEAVQAbstractStatePrivate@2@XZ
?d_func@QAbstractState@kso_qt@@AEBAPEBVQAbstractStatePrivate@2@XZ
?d_func@QAbstractTransition@kso_qt@@AEAAPEAVQAbstractTransitionPrivate@2@XZ
?d_func@QAbstractTransition@kso_qt@@AEBAPEBVQAbstractTransitionPrivate@2@XZ
?d_func@QAnimationDriver@kso_qt@@AEAAPEAVQAnimationDriverPrivate@2@XZ
?d_func@QAnimationDriver@kso_qt@@AEBAPEBVQAnimationDriverPrivate@2@XZ
?d_func@QAnimationGroup@kso_qt@@AEAAPEAVQAnimationGroupPrivate@2@XZ
?d_func@QAnimationGroup@kso_qt@@AEBAPEBVQAnimationGroupPrivate@2@XZ
?d_func@QBuffer@kso_qt@@AEAAPEAVQBufferPrivate@2@XZ
?d_func@QBuffer@kso_qt@@AEBAPEBVQBufferPrivate@2@XZ
?d_func@QCoreApplication@kso_qt@@AEAAPEAVQCoreApplicationPrivate@2@XZ
?d_func@QCoreApplication@kso_qt@@AEBAPEBVQCoreApplicationPrivate@2@XZ
?d_func@QDir@kso_qt@@AEAAPEAVQDirPrivate@2@XZ
?d_func@QDir@kso_qt@@AEBAPEBVQDirPrivate@2@XZ
?d_func@QEventDispatcherWin32@kso_qt@@AEAAPEAVQEventDispatcherWin32Private@2@XZ
?d_func@QEventDispatcherWin32@kso_qt@@AEBAPEBVQEventDispatcherWin32Private@2@XZ
?d_func@QEventLoop@kso_qt@@AEAAPEAVQEventLoopPrivate@2@XZ
?d_func@QEventLoop@kso_qt@@AEBAPEBVQEventLoopPrivate@2@XZ
?d_func@QEventTransition@kso_qt@@AEAAPEAVQEventTransitionPrivate@2@XZ
?d_func@QEventTransition@kso_qt@@AEBAPEBVQEventTransitionPrivate@2@XZ
?d_func@QFSFileEngine@kso_qt@@AEAAPEAVQFSFileEnginePrivate@2@XZ
?d_func@QFSFileEngine@kso_qt@@AEBAPEBVQFSFileEnginePrivate@2@XZ
?d_func@QFactoryLoader@kso_qt@@AEAAPEAVQFactoryLoaderPrivate@2@XZ
?d_func@QFactoryLoader@kso_qt@@AEBAPEBVQFactoryLoaderPrivate@2@XZ
?d_func@QFile@kso_qt@@AEAAPEAVQFilePrivate@2@XZ
?d_func@QFile@kso_qt@@AEBAPEBVQFilePrivate@2@XZ
?d_func@QFileDevice@kso_qt@@AEAAPEAVQFileDevicePrivate@2@XZ
?d_func@QFileDevice@kso_qt@@AEBAPEBVQFileDevicePrivate@2@XZ
?d_func@QFileInfo@kso_qt@@AEAAPEAVQFileInfoPrivate@2@XZ
?d_func@QFileInfo@kso_qt@@AEBAPEBVQFileInfoPrivate@2@XZ
?d_func@QFileSelector@kso_qt@@AEAAPEAVQFileSelectorPrivate@2@XZ
?d_func@QFileSelector@kso_qt@@AEBAPEBVQFileSelectorPrivate@2@XZ
?d_func@QFileSystemWatcher@kso_qt@@AEAAPEAVQFileSystemWatcherPrivate@2@XZ
?d_func@QFileSystemWatcher@kso_qt@@AEBAPEBVQFileSystemWatcherPrivate@2@XZ
?d_func@QFinalState@kso_qt@@AEAAPEAVQFinalStatePrivate@2@XZ
?d_func@QFinalState@kso_qt@@AEBAPEBVQFinalStatePrivate@2@XZ
?d_func@QFutureWatcherBase@kso_qt@@AEAAPEAVQFutureWatcherBasePrivate@2@XZ
?d_func@QFutureWatcherBase@kso_qt@@AEBAPEBVQFutureWatcherBasePrivate@2@XZ
?d_func@QHistoryState@kso_qt@@AEAAPEAVQHistoryStatePrivate@2@XZ
?d_func@QHistoryState@kso_qt@@AEBAPEBVQHistoryStatePrivate@2@XZ
?d_func@QIODevice@kso_qt@@AEAAPEAVQIODevicePrivate@2@XZ
?d_func@QIODevice@kso_qt@@AEBAPEBVQIODevicePrivate@2@XZ
?d_func@QIdentityProxyModel@kso_qt@@AEAAPEAVQIdentityProxyModelPrivate@2@XZ
?d_func@QIdentityProxyModel@kso_qt@@AEBAPEBVQIdentityProxyModelPrivate@2@XZ
?d_func@QItemSelectionModel@kso_qt@@AEAAPEAVQItemSelectionModelPrivate@2@XZ
?d_func@QItemSelectionModel@kso_qt@@AEBAPEBVQItemSelectionModelPrivate@2@XZ
?d_func@QLockFile@kso_qt@@AEAAPEAVQLockFilePrivate@2@XZ
?d_func@QLockFile@kso_qt@@AEBAPEBVQLockFilePrivate@2@XZ
?d_func@QMetaEnumBuilder@kso_qt@@AEBAPEAVQMetaEnumBuilderPrivate@2@XZ
?d_func@QMetaMethodBuilder@kso_qt@@AEBAPEAVQMetaMethodBuilderPrivate@2@XZ
?d_func@QMetaPropertyBuilder@kso_qt@@AEBAPEAVQMetaPropertyBuilderPrivate@2@XZ
?d_func@QMimeData@kso_qt@@AEAAPEAVQMimeDataPrivate@2@XZ
?d_func@QMimeData@kso_qt@@AEBAPEBVQMimeDataPrivate@2@XZ
?d_func@QObject@kso_qt@@AEAAPEAVQObjectPrivate@2@XZ
?d_func@QObject@kso_qt@@AEBAPEBVQObjectPrivate@2@XZ
?d_func@QParallelAnimationGroup@kso_qt@@AEAAPEAVQParallelAnimationGroupPrivate@2@XZ
?d_func@QParallelAnimationGroup@kso_qt@@AEBAPEBVQParallelAnimationGroupPrivate@2@XZ
?d_func@QPauseAnimation@kso_qt@@AEAAPEAVQPauseAnimationPrivate@2@XZ
?d_func@QPauseAnimation@kso_qt@@AEBAPEBVQPauseAnimationPrivate@2@XZ
?d_func@QProcess@kso_qt@@AEAAPEAVQProcessPrivate@2@XZ
?d_func@QProcess@kso_qt@@AEBAPEBVQProcessPrivate@2@XZ
?d_func@QPropertyAnimation@kso_qt@@AEAAPEAVQPropertyAnimationPrivate@2@XZ
?d_func@QPropertyAnimation@kso_qt@@AEBAPEBVQPropertyAnimationPrivate@2@XZ
?d_func@QResource@kso_qt@@AEAAPEAVQResourcePrivate@2@XZ
?d_func@QResource@kso_qt@@AEBAPEBVQResourcePrivate@2@XZ
?d_func@QSaveFile@kso_qt@@AEAAPEAVQSaveFilePrivate@2@XZ
?d_func@QSaveFile@kso_qt@@AEBAPEBVQSaveFilePrivate@2@XZ
?d_func@QSequentialAnimationGroup@kso_qt@@AEAAPEAVQSequentialAnimationGroupPrivate@2@XZ
?d_func@QSequentialAnimationGroup@kso_qt@@AEBAPEBVQSequentialAnimationGroupPrivate@2@XZ
?d_func@QSettings@kso_qt@@AEAAPEAVQSettingsPrivate@2@XZ
?d_func@QSettings@kso_qt@@AEBAPEBVQSettingsPrivate@2@XZ
?d_func@QSharedMemory@kso_qt@@AEAAPEAVQSharedMemoryPrivate@2@XZ
?d_func@QSharedMemory@kso_qt@@AEBAPEBVQSharedMemoryPrivate@2@XZ
?d_func@QSignalMapper@kso_qt@@AEAAPEAVQSignalMapperPrivate@2@XZ
?d_func@QSignalMapper@kso_qt@@AEBAPEBVQSignalMapperPrivate@2@XZ
?d_func@QSignalTransition@kso_qt@@AEAAPEAVQSignalTransitionPrivate@2@XZ
?d_func@QSignalTransition@kso_qt@@AEBAPEBVQSignalTransitionPrivate@2@XZ
?d_func@QSocketNotifier@kso_qt@@AEAAPEAVQSocketNotifierPrivate@2@XZ
?d_func@QSocketNotifier@kso_qt@@AEBAPEBVQSocketNotifierPrivate@2@XZ
?d_func@QSortFilterProxyModel@kso_qt@@AEAAPEAVQSortFilterProxyModelPrivate@2@XZ
?d_func@QSortFilterProxyModel@kso_qt@@AEBAPEBVQSortFilterProxyModelPrivate@2@XZ
?d_func@QState@kso_qt@@AEAAPEAVQStatePrivate@2@XZ
?d_func@QState@kso_qt@@AEBAPEBVQStatePrivate@2@XZ
?d_func@QStateMachine@kso_qt@@AEAAPEAVQStateMachinePrivate@2@XZ
?d_func@QStateMachine@kso_qt@@AEBAPEBVQStateMachinePrivate@2@XZ
?d_func@QTemporaryFile@kso_qt@@AEAAPEAVQTemporaryFilePrivate@2@XZ
?d_func@QTemporaryFile@kso_qt@@AEBAPEBVQTemporaryFilePrivate@2@XZ
?d_func@QTextStream@kso_qt@@AEAAPEAVQTextStreamPrivate@2@XZ
?d_func@QTextStream@kso_qt@@AEBAPEBVQTextStreamPrivate@2@XZ
?d_func@QThread@kso_qt@@AEAAPEAVQThreadPrivate@2@XZ
?d_func@QThread@kso_qt@@AEBAPEBVQThreadPrivate@2@XZ
?d_func@QThreadPool@kso_qt@@AEAAPEAVQThreadPoolPrivate@2@XZ
?d_func@QThreadPool@kso_qt@@AEBAPEBVQThreadPoolPrivate@2@XZ
?d_func@QTimeLine@kso_qt@@AEAAPEAVQTimeLinePrivate@2@XZ
?d_func@QTimeLine@kso_qt@@AEBAPEBVQTimeLinePrivate@2@XZ
?d_func@QTranslator@kso_qt@@AEAAPEAVQTranslatorPrivate@2@XZ
?d_func@QTranslator@kso_qt@@AEBAPEBVQTranslatorPrivate@2@XZ
?d_func@QVariantAnimation@kso_qt@@AEAAPEAVQVariantAnimationPrivate@2@XZ
?d_func@QVariantAnimation@kso_qt@@AEBAPEBVQVariantAnimationPrivate@2@XZ
?d_func@QWinEventNotifier@kso_qt@@AEAAPEAVQWinEventNotifierPrivate@2@XZ
?d_func@QWinEventNotifier@kso_qt@@AEBAPEBVQWinEventNotifierPrivate@2@XZ
?d_func@QXmlStreamReader@kso_qt@@AEAAPEAVQXmlStreamReaderPrivate@2@XZ
?d_func@QXmlStreamReader@kso_qt@@AEBAPEBVQXmlStreamReaderPrivate@2@XZ
?d_func@QXmlStreamWriter@kso_qt@@AEAAPEAVQXmlStreamWriterPrivate@2@XZ
?d_func@QXmlStreamWriter@kso_qt@@AEBAPEBVQXmlStreamWriterPrivate@2@XZ
?data@?$QVector@VQPoint@kso_qt@@@kso_qt@@QEAAPEAVQPoint@2@XZ
?data@?$QVector@VQPoint@kso_qt@@@kso_qt@@QEBAPEBVQPoint@2@XZ
?data@?$QVector@VQPointF@kso_qt@@@kso_qt@@QEAAPEAVQPointF@2@XZ
?data@?$QVector@VQPointF@kso_qt@@@kso_qt@@QEBAPEBVQPointF@2@XZ
?data@?$QVector@VQXmlStreamAttribute@kso_qt@@@kso_qt@@QEAAPEAVQXmlStreamAttribute@2@XZ
?data@?$QVector@VQXmlStreamAttribute@kso_qt@@@kso_qt@@QEBAPEBVQXmlStreamAttribute@2@XZ
?data@QAbstractProxyModel@kso_qt@@UEBA?AVQVariant@2@AEBVQModelIndex@2@H@Z
?data@QArrayData@kso_qt@@QEAAPEAXXZ
?data@QArrayData@kso_qt@@QEBAPEBXXZ
?data@QBuffer@kso_qt@@QEBAAEBVQByteArray@2@XZ
?data@QByteArray@kso_qt@@QEAAPEADXZ
?data@QByteArray@kso_qt@@QEBAPEBDXZ
?data@QGenericArgument@kso_qt@@QEBAPEAXXZ
?data@QMimeData@kso_qt@@QEBA?AVQByteArray@2@AEBVQString@2@@Z
?data@QModelIndex@kso_qt@@QEBA?AVQVariant@2@H@Z
?data@QPersistentModelIndex@kso_qt@@QEBA?AVQVariant@2@H@Z
?data@QResource@kso_qt@@QEBAPEBEXZ
?data@QSharedMemory@kso_qt@@QEAAPEAXXZ
?data@QSharedMemory@kso_qt@@QEBAPEBXXZ
?data@QSortFilterProxyModel@kso_qt@@UEBA?AVQVariant@2@AEBVQModelIndex@2@H@Z
?data@QString@kso_qt@@QEAAPEAVQChar@2@XZ
?data@QString@kso_qt@@QEBAPEBVQChar@2@XZ
?data@QStringListModel@kso_qt@@UEBA?AVQVariant@2@AEBVQModelIndex@2@H@Z
?data@QStringRef@kso_qt@@QEBAPEBVQChar@2@XZ
?data@QTimeZonePrivate@kso_qt@@UEBA?AUData@12@_J@Z
?data@QUtcTimeZonePrivate@kso_qt@@UEBA?AUData@QTimeZonePrivate@2@_J@Z
?data@QVariant@kso_qt@@QEAAPEAXXZ
?data@QVariant@kso_qt@@QEBAPEBXXZ
?data@QWinTimeZonePrivate@kso_qt@@UEBA?AUData@QTimeZonePrivate@2@_J@Z
?dataChanged@QAbstractItemModel@kso_qt@@QEAAXAEBVQModelIndex@2@0AEBV?$QVector@H@2@@Z
?dataForLocalTime@QTimeZonePrivate@kso_qt@@QEBA?AUData@12@_JH@Z
?data_ptr@QBitArray@kso_qt@@QEAAAEAPEAU?$QTypedArrayData@D@2@XZ
?data_ptr@QByteArray@kso_qt@@QEAAAEAPEAU?$QTypedArrayData@D@2@XZ
?data_ptr@QString@kso_qt@@QEAAAEAPEAU?$QTypedArrayData@G@2@XZ
?data_ptr@QUrl@kso_qt@@QEAAAEAPEAVQUrlPrivate@2@XZ
?data_ptr@QUrlQuery@kso_qt@@QEAAAEAV?$QSharedDataPointer@VQUrlQueryPrivate@kso_qt@@@2@XZ
?data_ptr@QVariant@kso_qt@@QEAAAEAUPrivate@12@XZ
?data_ptr@QVariant@kso_qt@@QEBAAEBUPrivate@12@XZ
?date@QDateTime@kso_qt@@QEBA?AVQDate@2@XZ
?dateFormat@QLocale@kso_qt@@QEBA?AVQString@2@W4FormatType@12@@Z
?dateTimeFormat@QLocale@kso_qt@@QEBA?AVQString@2@W4FormatType@12@@Z
?dateTimeToString@QLocalePrivate@kso_qt@@QEBA?AVQString@2@VQStringView@2@AEBVQDateTime@2@AEBVQDate@2@AEBVQTime@2@PEBVQLocale@2@@Z
?day@QDate@kso_qt@@QEBAHXZ
?dayName@QLocale@kso_qt@@QEBA?AVQString@2@HW4FormatType@12@@Z
?dayOfWeek@QDate@kso_qt@@QEBAHXZ
?dayOfYear@QDate@kso_qt@@QEBAHXZ
?daylightTimeOffset@QTimeZone@kso_qt@@QEBAHAEBVQDateTime@2@@Z
?daylightTimeOffset@QTimeZonePrivate@kso_qt@@UEBAH_J@Z
?daylightTimeOffset@QUtcTimeZonePrivate@kso_qt@@UEBAH_J@Z
?daylightTimeOffset@QWinTimeZonePrivate@kso_qt@@UEBAH_J@Z
?daysInMonth@QDate@kso_qt@@QEBAHXZ
?daysInYear@QDate@kso_qt@@QEBAHXZ
?daysTo@QDate@kso_qt@@QEBA_JAEBV12@@Z
?daysTo@QDateTime@kso_qt@@QEBA_JAEBV12@@Z
?deadline@QDeadlineTimer@kso_qt@@QEBA_JXZ
?deadlineNSecs@QDeadlineTimer@kso_qt@@QEBA_JXZ
?dealloc@?$QList@VQItemSelectionRange@kso_qt@@@kso_qt@@AEAAXPEAUData@QListData@2@@Z
?deallocate@QArrayData@kso_qt@@SAXPEAU12@_K1@Z
?debug@QMessageLogger@kso_qt@@QEBA?AVQDebug@2@AEBVQLoggingCategory@2@@Z
?debug@QMessageLogger@kso_qt@@QEBA?AVQDebug@2@P6AAEBVQLoggingCategory@2@XZ@Z
?debug@QMessageLogger@kso_qt@@QEBA?AVQDebug@2@XZ
?debug@QMessageLogger@kso_qt@@QEBAXAEBVQLoggingCategory@2@PEBDZZ
?debug@QMessageLogger@kso_qt@@QEBAXP6AAEBVQLoggingCategory@2@XZPEBDZZ
?debug@QMessageLogger@kso_qt@@QEBAXPEBDZZ
?debugStream@QMetaType@kso_qt@@SA_NAEAVQDebug@2@PEBXH@Z
?dec@kso_qt@@YAAEAVQTextStream@1@AEAV21@@Z
?decimal@QLocalePrivate@kso_qt@@QEBA?AVQChar@2@XZ
?decimalPoint@QLocale@kso_qt@@QEBA?AVQChar@2@XZ
?decodeData@QAbstractItemModel@kso_qt@@IEAA_NHHAEBVQModelIndex@2@AEAVQDataStream@2@@Z
?decodeMSG@kso_qt@@YA?AVQString@1@AEBUtagMSG@@@Z
?decodeName@QFile@kso_qt@@SA?AVQString@2@AEBVQByteArray@2@@Z
?decodeName@QFile@kso_qt@@SA?AVQString@2@PEBD@Z
?decomposition@QChar@kso_qt@@QEBA?AVQString@2@XZ
?decomposition@QChar@kso_qt@@SA?AVQString@2@I@Z
?decomposition@QCharRef@kso_qt@@QEBA?AVQString@2@XZ
?decompositionTag@QChar@kso_qt@@QEBA?AW4Decomposition@12@XZ
?decompositionTag@QChar@kso_qt@@SA?AW4Decomposition@12@I@Z
?decompositionTag@QCharRef@kso_qt@@QEBA?AW4Decomposition@QChar@2@XZ
?defaultAnimations@QStateMachine@kso_qt@@QEBA?AV?$QList@PEAVQAbstractAnimation@kso_qt@@@2@XZ
?defaultCategory@QLoggingCategory@kso_qt@@SAPEAV12@XZ
?defaultCategoryFilter@QLoggingRegistry@kso_qt@@CAXPEAVQLoggingCategory@2@@Z
?defaultConstruct@?$QVector@VQPoint@kso_qt@@@kso_qt@@AEAAXPEAVQPoint@2@0@Z
?defaultConstruct@?$QVector@VQPointF@kso_qt@@@kso_qt@@AEAAXPEAVQPointF@2@0@Z
?defaultConstruct@?$QVector@VQXmlStreamAttribute@kso_qt@@@kso_qt@@AEAAXPEAVQXmlStreamAttribute@2@0@Z
?defaultFormat@QSettings@kso_qt@@SA?AW4Format@12@XZ
?defaultQueryPairDelimiter@QUrlQuery@kso_qt@@SA?AVQChar@2@XZ
?defaultQueryValueDelimiter@QUrlQuery@kso_qt@@SA?AVQChar@2@XZ
?defaultRoleNames@QAbstractItemModelPrivate@kso_qt@@SAAEBV?$QHash@HVQByteArray@kso_qt@@@2@XZ
?defaultState@QHistoryState@kso_qt@@QEBAPEAVQAbstractState@2@XZ
?defaultStateChanged@QHistoryState@kso_qt@@QEAAXUQPrivateSignal@12@@Z
?defaultTransition@QHistoryState@kso_qt@@QEBAPEAVQAbstractTransition@2@XZ
?defaultTransitionChanged@QHistoryState@kso_qt@@QEAAXUQPrivateSignal@12@@Z
?defaultTypeFor@QTimer@kso_qt@@CA?AW4TimerType@Qt@2@H@Z
?defaultTypeFor@QTimer@kso_qt@@CA?AW4TimerType@Qt@2@V?$duration@_JU?$ratio@$00$0DOI@@std@@@chrono@std@@@Z
?defaultValues@QCommandLineOption@kso_qt@@QEBA?AVQStringList@2@XZ
?deleteChildren@QObjectPrivate@kso_qt@@QEAAXXZ
?deleteLater@QObject@kso_qt@@QEAAXXZ
?dequeueExternalEvent@QStateMachinePrivate@kso_qt@@QEAAPEAVQEvent@2@XZ
?dequeueInternalEvent@QStateMachinePrivate@kso_qt@@QEAAPEAVQEvent@2@XZ
?deref@QCoreApplicationPrivate@kso_qt@@QEAAXXZ
?derefT@QFutureInterfaceBase@kso_qt@@IEBA_NXZ
?description@QCommandLineOption@kso_qt@@QEBA?AVQString@2@XZ
?deserialize@QMetaObjectBuilder@kso_qt@@QEAAXAEAVQDataStream@2@AEBV?$QMap@VQByteArray@kso_qt@@PEBUQMetaObject@2@@2@@Z
?destroy@QMetaType@kso_qt@@QEBAXPEAX@Z
?destroy@QMetaType@kso_qt@@SAXHPEAX@Z
?destroyExtended@QMetaType@kso_qt@@AEBAXPEAX@Z
?destroyed@QAbstractDeclarativeData@kso_qt@@2P6AXPEAV12@PEAVQObject@2@@ZEA
?destroyed@QObject@kso_qt@@QEAAXPEAV12@@Z
?destroyed_qml1@QAbstractDeclarativeData@kso_qt@@2P6AXPEAV12@PEAVQObject@2@@ZEA
?destruct@?$QVector@VQPoint@kso_qt@@@kso_qt@@AEAAXPEAVQPoint@2@0@Z
?destruct@?$QVector@VQPointF@kso_qt@@@kso_qt@@AEAAXPEAVQPointF@2@0@Z
?destruct@?$QVector@VQXmlStreamAttribute@kso_qt@@@kso_qt@@AEAAXPEAVQXmlStreamAttribute@2@0@Z
?destruct@QMetaType@kso_qt@@QEBAXPEAX@Z
?destruct@QMetaType@kso_qt@@SAXHPEAX@Z
?destructExtended@QMetaType@kso_qt@@AEBAXPEAX@Z
?detach2@QJsonArray@kso_qt@@AEAA_NI@Z
?detach2@QJsonObject@kso_qt@@AEAA_NI@Z
?detach@?$QList@VQItemSelectionRange@kso_qt@@@kso_qt@@QEAAXXZ
?detach@?$QVector@VQPoint@kso_qt@@@kso_qt@@QEAAXXZ
?detach@?$QVector@VQPointF@kso_qt@@@kso_qt@@QEAAXXZ
?detach@?$QVector@VQXmlStreamAttribute@kso_qt@@@kso_qt@@QEAAXXZ
?detach@QBitArray@kso_qt@@QEAAXXZ
?detach@QByteArray@kso_qt@@QEAAXXZ
?detach@QCborArray@kso_qt@@AEAAX_J@Z
?detach@QCborMap@kso_qt@@AEAAX_J@Z
?detach@QCollator@kso_qt@@AEAAXXZ
?detach@QJsonArray@kso_qt@@AEAAXI@Z
?detach@QJsonObject@kso_qt@@AEAAXI@Z
?detach@QJsonValue@kso_qt@@AEAAXXZ
?detach@QListData@kso_qt@@QEAAPEAUData@12@H@Z
?detach@QRingChunk@kso_qt@@QEAAXXZ
?detach@QSharedMemory@kso_qt@@QEAA_NXZ
?detach@QSharedMemoryPrivate@kso_qt@@QEAA_NXZ
?detach@QString@kso_qt@@QEAAXXZ
?detach@QUrl@kso_qt@@QEAAXXZ
?detach@QVariant@kso_qt@@QEAAXXZ
?detachCapacity@QArrayData@kso_qt@@QEBA_K_K@Z
?detachFlags@QArrayData@kso_qt@@QEBA?AV?$QFlags@W4AllocationOption@QArrayData@kso_qt@@@2@XZ
?detachShared@?$QList@VQItemSelectionRange@kso_qt@@@kso_qt@@QEAAXXZ
?detach_grow@QListData@kso_qt@@QEAAPEAUData@12@PEAHH@Z
?detach_helper@?$QList@VQItemSelectionRange@kso_qt@@@kso_qt@@AEAAXH@Z
?detach_helper@?$QList@VQItemSelectionRange@kso_qt@@@kso_qt@@AEAAXXZ
?detach_helper@QHashData@kso_qt@@QEAAPEAU12@P6AXPEAUNode@12@PEAX@ZP6AX0@ZHH@Z
?detach_helper_grow@?$QList@VQItemSelectionRange@kso_qt@@@kso_qt@@AEAAPEAUNode@12@HH@Z
?device@QCborStreamReader@kso_qt@@QEBAPEAVQIODevice@2@XZ
?device@QCborStreamWriter@kso_qt@@QEBAPEAVQIODevice@2@XZ
?device@QDataStream@kso_qt@@QEBAPEAVQIODevice@2@XZ
?device@QStorageInfo@kso_qt@@QEBA?AVQByteArray@2@XZ
?device@QTextStream@kso_qt@@QEBAPEAVQIODevice@2@XZ
?device@QXmlStreamReader@kso_qt@@QEBAPEAVQIODevice@2@XZ
?device@QXmlStreamWriter@kso_qt@@QEBAPEAVQIODevice@2@XZ
?digitValue@QChar@kso_qt@@QEBAHXZ
?digitValue@QChar@kso_qt@@SAHI@Z
?digitValue@QCharRef@kso_qt@@QEBAHXZ
?dir@QFileInfo@kso_qt@@QEBA?AVQDir@2@XZ
?dirName@QDir@kso_qt@@QEBA?AVQString@2@XZ
?directWriteFallback@QSaveFile@kso_qt@@QEBA_NXZ
?direction@QAbstractAnimation@kso_qt@@QEBA?AW4Direction@12@XZ
?direction@QChar@kso_qt@@QEBA?AW4Direction@12@XZ
?direction@QChar@kso_qt@@SA?AW4Direction@12@I@Z
?direction@QCharRef@kso_qt@@QEBA?AW4Direction@QChar@2@XZ
?direction@QTimeLine@kso_qt@@QEBA?AW4Direction@12@XZ
?directionChanged@QAbstractAnimation@kso_qt@@QEAAXW4Direction@12@@Z
?directories@QFileSystemWatcher@kso_qt@@QEBA?AVQStringList@2@XZ
?directoryChanged@QFileSystemWatcher@kso_qt@@QEAAXAEBVQString@2@UQPrivateSignal@12@@Z
?discard@QRandomGenerator@kso_qt@@QEAAX_K@Z
?disconnect@QMetaObject@kso_qt@@SA_NPEBVQObject@2@H0H@Z
?disconnect@QObject@kso_qt@@QEBA_NPEBDPEBV12@0@Z
?disconnect@QObject@kso_qt@@QEBA_NPEBV12@PEBD@Z
?disconnect@QObject@kso_qt@@SA_NAEBVConnection@QMetaObject@2@@Z
?disconnect@QObject@kso_qt@@SA_NPEBV12@AEBVQMetaMethod@2@01@Z
?disconnect@QObject@kso_qt@@SA_NPEBV12@PEBD01@Z
?disconnect@QObjectPrivate@kso_qt@@SA_NPEBVQObject@2@HPEAPEAX@Z
?disconnectImpl@QObject@kso_qt@@CA_NPEBV12@PEAPEAX01PEBUQMetaObject@2@@Z
?disconnectNotify@QBuffer@kso_qt@@MEAAXAEBVQMetaMethod@2@@Z
?disconnectNotify@QFutureWatcherBase@kso_qt@@MEAAXAEBVQMetaMethod@2@@Z
?disconnectNotify@QObject@kso_qt@@MEAAXAEBVQMetaMethod@2@@Z
?disconnectNotify@QObjectPrivate@kso_qt@@QEAAXAEBVQMetaMethod@2@@Z
?disconnectOne@QMetaObject@kso_qt@@SA_NPEBVQObject@2@H0H@Z
?disconnectOutputInterface@QFutureWatcherBase@kso_qt@@IEAAX_N@Z
?displayName@QStandardPaths@kso_qt@@SA?AVQString@2@W4StandardLocation@12@@Z
?displayName@QStorageInfo@kso_qt@@QEBA?AVQString@2@XZ
?displayName@QTimeZone@kso_qt@@QEBA?AVQString@2@AEBVQDateTime@2@W4NameType@12@AEBVQLocale@2@@Z
?displayName@QTimeZone@kso_qt@@QEBA?AVQString@2@W4TimeType@12@W4NameType@12@AEBVQLocale@2@@Z
?displayName@QTimeZonePrivate@kso_qt@@UEBA?AVQString@2@W4TimeType@QTimeZone@2@W4NameType@52@AEBVQLocale@2@@Z
?displayName@QTimeZonePrivate@kso_qt@@UEBA?AVQString@2@_JW4NameType@QTimeZone@2@AEBVQLocale@2@@Z
?displayName@QUtcTimeZonePrivate@kso_qt@@UEBA?AVQString@2@W4TimeType@QTimeZone@2@W4NameType@52@AEBVQLocale@2@@Z
?displayName@QWinTimeZonePrivate@kso_qt@@UEBA?AVQString@2@W4TimeType@QTimeZone@2@W4NameType@52@AEBVQLocale@2@@Z
?displayText@QDateTimeParser@kso_qt@@UEBA?AVQString@2@XZ
?dispose@QCborValue@kso_qt@@AEAAXXZ
?dispose@QListData@kso_qt@@QEAAXXZ
?dispose@QListData@kso_qt@@SAXPEAUData@12@@Z
?doSetRoleNames@QAbstractItemModel@kso_qt@@AEAAXAEBV?$QHash@HVQByteArray@kso_qt@@@2@@Z
?doSetSupportedDragActions@QAbstractItemModel@kso_qt@@AEAAXV?$QFlags@W4DropAction@Qt@kso_qt@@@2@@Z
?doStat@QFSFileEnginePrivate@kso_qt@@QEBA_NV?$QFlags@W4MetaDataFlag@QFileSystemMetaData@kso_qt@@@2@@Z
?doUnregisterSocketNotifier@QEventDispatcherWin32@kso_qt@@IEAAXPEAVQSocketNotifier@2@@Z
?doWsaAsyncSelect@QEventDispatcherWin32Private@kso_qt@@QEAAXHJ@Z
?documentEncoding@QXmlStreamReader@kso_qt@@QEBA?AVQStringRef@2@XZ
?documentVersion@QXmlStreamReader@kso_qt@@QEBA?AVQStringRef@2@XZ
?dotProduct@QPoint@kso_qt@@SAHAEBV12@0@Z
?dotProduct@QPointF@kso_qt@@SANAEBV12@0@Z
?drives@QDir@kso_qt@@SA?AV?$QList@VQFileInfo@kso_qt@@@2@XZ
?drives@QFSFileEngine@kso_qt@@SA?AV?$QList@VQFileInfo@kso_qt@@@2@XZ
?dropMimeData@QAbstractItemModel@kso_qt@@UEAA_NPEBVQMimeData@2@W4DropAction@Qt@2@HHAEBVQModelIndex@2@@Z
?dropMimeData@QAbstractListModel@kso_qt@@UEAA_NPEBVQMimeData@2@W4DropAction@Qt@2@HHAEBVQModelIndex@2@@Z
?dropMimeData@QAbstractProxyModel@kso_qt@@UEAA_NPEBVQMimeData@2@W4DropAction@Qt@2@HHAEBVQModelIndex@2@@Z
?dropMimeData@QAbstractTableModel@kso_qt@@UEAA_NPEBVQMimeData@2@W4DropAction@Qt@2@HHAEBVQModelIndex@2@@Z
?dropMimeData@QIdentityProxyModel@kso_qt@@UEAA_NPEBVQMimeData@2@W4DropAction@Qt@2@HHAEBVQModelIndex@2@@Z
?dropMimeData@QSortFilterProxyModel@kso_qt@@UEAA_NPEBVQMimeData@2@W4DropAction@Qt@2@HHAEBVQModelIndex@2@@Z
?ds@QTime@kso_qt@@AEBAHXZ
?dtdName@QXmlStreamReader@kso_qt@@QEBA?AVQStringRef@2@XZ
?dtdPublicId@QXmlStreamReader@kso_qt@@QEBA?AVQStringRef@2@XZ
?dtdSystemId@QXmlStreamReader@kso_qt@@QEBA?AVQStringRef@2@XZ
?dtor@QMetaType@kso_qt@@AEAAXXZ
?dummyLocked@QBasicMutex@kso_qt@@CAPEAVQMutexData@2@XZ
?dumpObjectInfo@QObject@kso_qt@@QEAAXXZ
?dumpObjectInfo@QObject@kso_qt@@QEBAXXZ
?dumpObjectTree@QObject@kso_qt@@QEAAXXZ
?dumpObjectTree@QObject@kso_qt@@QEBAXXZ
?duration@QParallelAnimationGroup@kso_qt@@UEBAHXZ
?duration@QPauseAnimation@kso_qt@@UEBAHXZ
?duration@QSequentialAnimationGroup@kso_qt@@UEBAHXZ
?duration@QTimeLine@kso_qt@@QEBAHXZ
?duration@QVariantAnimation@kso_qt@@UEBAHXZ
?dx@QLine@kso_qt@@QEBAHXZ
?dx@QLineF@kso_qt@@QEBANXZ
?dy@QLine@kso_qt@@QEBAHXZ
?dy@QLineF@kso_qt@@QEBANXZ
?dynamicMetaObject@QObjectData@kso_qt@@QEBAPEAUQMetaObject@2@XZ
?dynamicPropertyNames@QObject@kso_qt@@QEBA?AV?$QList@VQByteArray@kso_qt@@@2@XZ
?dynamicSortFilter@QSortFilterProxyModel@kso_qt@@QEBA_NXZ
?easingCurve@QTimeLine@kso_qt@@QEBA?AVQEasingCurve@2@XZ
?easingCurve@QVariantAnimation@kso_qt@@QEBA?AVQEasingCurve@2@XZ
?elapsed@QAnimationDriver@kso_qt@@UEBA_JXZ
?elapsed@QElapsedTimer@kso_qt@@QEBA_JXZ
?elapsed@QTime@kso_qt@@QEBAHXZ
?elapsed@QUnifiedTimer@kso_qt@@QEBA_JXZ
?emitFinished@QStatePrivate@kso_qt@@QEAAXXZ
?emitPendingBytesWrittenValue@QWindowsPipeWriter@kso_qt@@AEAAXXZ
?emitPendingReadyRead@QWindowsPipeReader@kso_qt@@AEAAXXZ
?emitPropertiesAssigned@QStatePrivate@kso_qt@@QEAAXXZ
?emitSelectionChanged@QItemSelectionModel@kso_qt@@IEAAXAEBVQItemSelection@2@0@Z
?emitStateFinished@QStateMachinePrivate@kso_qt@@UEAAXPEAVQState@2@PEAVQFinalState@2@@Z
?emitTriggered@QAbstractTransitionPrivate@kso_qt@@QEAAXXZ
?empty@?$QList@VQItemSelectionRange@kso_qt@@@kso_qt@@QEBA_NXZ
?empty@?$QVector@VQPoint@kso_qt@@@kso_qt@@QEBA_NXZ
?empty@?$QVector@VQPointF@kso_qt@@@kso_qt@@QEBA_NXZ
?empty@?$QVector@VQXmlStreamAttribute@kso_qt@@@kso_qt@@QEBA_NXZ
?empty@QCborArray@kso_qt@@QEBA_NXZ
?empty@QCborMap@kso_qt@@QEBA_NXZ
?empty@QJsonArray@kso_qt@@QEBA_NXZ
?empty@QJsonObject@kso_qt@@QEBA_NXZ
?enableTestMode@QStandardPaths@kso_qt@@SAX_N@Z
?enclosingMetaObject@QMetaClassInfo@kso_qt@@QEBAPEBUQMetaObject@2@XZ
?enclosingMetaObject@QMetaEnum@kso_qt@@QEBAPEBUQMetaObject@2@XZ
?enclosingMetaObject@QMetaMethod@kso_qt@@QEBAPEBUQMetaObject@2@XZ
?enclosingMetaObject@QMetaProperty@kso_qt@@QEBAPEBUQMetaObject@2@XZ
?encodeData@QAbstractItemModel@kso_qt@@IEBAXAEBV?$QList@VQModelIndex@kso_qt@@@2@AEAVQDataStream@2@@Z
?encodeName@QFile@kso_qt@@SA?AVQByteArray@2@AEBVQString@2@@Z
?encodedFragment@QUrl@kso_qt@@QEBA?AVQByteArray@2@XZ
?encodedHost@QUrl@kso_qt@@QEBA?AVQByteArray@2@XZ
?encodedPassword@QUrl@kso_qt@@QEBA?AVQByteArray@2@XZ
?encodedPath@QUrl@kso_qt@@QEBA?AVQByteArray@2@XZ
?encodedQuery@QUrl@kso_qt@@QEBA?AVQByteArray@2@XZ
?encodedQueryItemValue@QUrl@kso_qt@@QEBA?AVQByteArray@2@AEBV32@@Z
?encodedQueryItems@QUrl@kso_qt@@QEBA?AV?$QList@U?$QPair@VQByteArray@kso_qt@@V12@@kso_qt@@@2@XZ
?encodedUserName@QUrl@kso_qt@@QEBA?AVQByteArray@2@XZ
?end@?$QList@VQItemSelectionRange@kso_qt@@@kso_qt@@QEAA?AViterator@12@XZ
?end@?$QList@VQItemSelectionRange@kso_qt@@@kso_qt@@QEBA?AVconst_iterator@12@XZ
?end@?$QVector@VQPoint@kso_qt@@@kso_qt@@QEAA?AViterator@?$QTypedArrayData@VQPoint@kso_qt@@@2@V342@@Z
?end@?$QVector@VQPoint@kso_qt@@@kso_qt@@QEAAPEAVQPoint@2@XZ
?end@?$QVector@VQPoint@kso_qt@@@kso_qt@@QEBA?AVconst_iterator@?$QTypedArrayData@VQPoint@kso_qt@@@2@V342@@Z
?end@?$QVector@VQPoint@kso_qt@@@kso_qt@@QEBAPEBVQPoint@2@XZ
?end@?$QVector@VQPointF@kso_qt@@@kso_qt@@QEAA?AViterator@?$QTypedArrayData@VQPointF@kso_qt@@@2@V342@@Z
?end@?$QVector@VQPointF@kso_qt@@@kso_qt@@QEAAPEAVQPointF@2@XZ
?end@?$QVector@VQPointF@kso_qt@@@kso_qt@@QEBA?AVconst_iterator@?$QTypedArrayData@VQPointF@kso_qt@@@2@V342@@Z
?end@?$QVector@VQPointF@kso_qt@@@kso_qt@@QEBAPEBVQPointF@2@XZ
?end@?$QVector@VQXmlStreamAttribute@kso_qt@@@kso_qt@@QEAAPEAVQXmlStreamAttribute@2@XZ
?end@?$QVector@VQXmlStreamAttribute@kso_qt@@@kso_qt@@QEBAPEBVQXmlStreamAttribute@2@XZ
?end@QAssociativeIterable@kso_qt@@QEBA?AUconst_iterator@12@XZ
?end@QByteArray@kso_qt@@QEAAPEADXZ
?end@QByteArray@kso_qt@@QEBAPEBDXZ
?end@QCborArray@kso_qt@@QEAA?AVIterator@12@XZ
?end@QCborArray@kso_qt@@QEBA?AVConstIterator@12@XZ
?end@QCborMap@kso_qt@@QEAA?AVIterator@12@XZ
?end@QCborMap@kso_qt@@QEBA?AVConstIterator@12@XZ
?end@QJsonArray@kso_qt@@QEAA?AViterator@12@XZ
?end@QJsonArray@kso_qt@@QEBA?AVconst_iterator@12@XZ
?end@QJsonObject@kso_qt@@QEAA?AViterator@12@XZ
?end@QJsonObject@kso_qt@@QEBA?AVconst_iterator@12@XZ
?end@QListData@kso_qt@@QEBAPEAPEAXXZ
?end@QSequentialIterable@kso_qt@@QEBA?AUconst_iterator@12@XZ
?end@QString@kso_qt@@QEAAPEAVQChar@2@XZ
?end@QString@kso_qt@@QEBAPEBVQChar@2@XZ
?end@QStringRef@kso_qt@@QEBAPEBVQChar@2@XZ
?end@ResultStoreBase@QtPrivate@kso_qt@@QEBA?AVResultIteratorBase@23@XZ
?end@const_iterator@QAssociativeIterable@kso_qt@@AEAAXXZ
?end@const_iterator@QSequentialIterable@kso_qt@@AEAAXXZ
?endArray@QCborStreamWriter@kso_qt@@QEAA_NXZ
?endArray@QSettings@kso_qt@@QEAAXXZ
?endEntryList@QAbstractFileEngine@kso_qt@@UEAAPEAVQAbstractFileEngineIterator@2@XZ
?endEntryList@QFSFileEngine@kso_qt@@UEAAPEAVQAbstractFileEngineIterator@2@XZ
?endFrame@QTimeLine@kso_qt@@QEBAHXZ
?endGroup@QSettings@kso_qt@@QEAAXXZ
?endInsertColumns@QAbstractItemModel@kso_qt@@IEAAXXZ
?endInsertRows@QAbstractItemModel@kso_qt@@IEAAXXZ
?endMacrostep@QStateMachinePrivate@kso_qt@@UEAAX_N@Z
?endMap@QCborStreamWriter@kso_qt@@QEAA_NXZ
?endMicrostep@QStateMachine@kso_qt@@MEAAXPEAVQEvent@2@@Z
?endMoveColumns@QAbstractItemModel@kso_qt@@IEAAXXZ
?endMoveRows@QAbstractItemModel@kso_qt@@IEAAXXZ
?endRemoveColumns@QAbstractItemModel@kso_qt@@IEAAXXZ
?endRemoveRows@QAbstractItemModel@kso_qt@@IEAAXXZ
?endResetModel@QAbstractItemModel@kso_qt@@IEAAXXZ
?endSelectTransitions@QStateMachine@kso_qt@@MEAAXPEAVQEvent@2@@Z
?endValue@QVariantAnimation@kso_qt@@QEBA?AVQVariant@2@XZ
?endl@kso_qt@@YAAEAVQTextStream@1@AEAV21@@Z
?endsWith@?$QList@VQItemSelectionRange@kso_qt@@@kso_qt@@QEBA_NAEBVQItemSelectionRange@2@@Z
?endsWith@?$QVector@VQPoint@kso_qt@@@kso_qt@@QEBA_NAEBVQPoint@2@@Z
?endsWith@?$QVector@VQPointF@kso_qt@@@kso_qt@@QEBA_NAEBVQPointF@2@@Z
?endsWith@?$QVector@VQXmlStreamAttribute@kso_qt@@@kso_qt@@QEBA_NAEBVQXmlStreamAttribute@2@@Z
?endsWith@QByteArray@kso_qt@@QEBA_NAEBV12@@Z
?endsWith@QByteArray@kso_qt@@QEBA_ND@Z
?endsWith@QByteArray@kso_qt@@QEBA_NPEBD@Z
?endsWith@QString@kso_qt@@QEBA_NAEBV12@W4CaseSensitivity@Qt@2@@Z
?endsWith@QString@kso_qt@@QEBA_NAEBVQStringRef@2@W4CaseSensitivity@Qt@2@@Z
?endsWith@QString@kso_qt@@QEBA_NVQChar@2@W4CaseSensitivity@Qt@2@@Z
?endsWith@QString@kso_qt@@QEBA_NVQLatin1String@2@W4CaseSensitivity@Qt@2@@Z
?endsWith@QString@kso_qt@@QEBA_NVQStringView@2@W4CaseSensitivity@Qt@2@@Z
?endsWith@QStringRef@kso_qt@@QEBA_NAEBV12@W4CaseSensitivity@Qt@2@@Z
?endsWith@QStringRef@kso_qt@@QEBA_NAEBVQString@2@W4CaseSensitivity@Qt@2@@Z
?endsWith@QStringRef@kso_qt@@QEBA_NVQChar@2@W4CaseSensitivity@Qt@2@@Z
?endsWith@QStringRef@kso_qt@@QEBA_NVQLatin1String@2@W4CaseSensitivity@Qt@2@@Z
?endsWith@QStringRef@kso_qt@@QEBA_NVQStringView@2@W4CaseSensitivity@Qt@2@@Z
?endsWith@QtPrivate@kso_qt@@YA_NVQLatin1String@2@0W4CaseSensitivity@Qt@2@@Z
?endsWith@QtPrivate@kso_qt@@YA_NVQLatin1String@2@VQStringView@2@W4CaseSensitivity@Qt@2@@Z
?endsWith@QtPrivate@kso_qt@@YA_NVQStringView@2@0W4CaseSensitivity@Qt@2@@Z
?endsWith@QtPrivate@kso_qt@@YA_NVQStringView@2@VQLatin1String@2@W4CaseSensitivity@Qt@2@@Z
?enqueueTask@QThreadPoolPrivate@kso_qt@@QEAAXPEAVQRunnable@2@H@Z
?enter@QMetaStringTable@kso_qt@@QEAAHAEBVQByteArray@2@@Z
?enterContainer@QCborStreamReader@kso_qt@@QEAA_NXZ
?enterStates@QStateMachinePrivate@kso_qt@@UEAAXPEAVQEvent@2@AEBV?$QList@PEAVQAbstractState@kso_qt@@@2@1AEBV?$QSet@PEAVQAbstractState@kso_qt@@@2@AEAV?$QHash@PEAVQAbstractState@kso_qt@@V?$QVector@UQPropertyAssignment@kso_qt@@@2@@2@AEBV?$QList@PEAVQAbstractAnimation@kso_qt@@@2@@Z
?entered@QAbstractState@kso_qt@@QEAAXUQPrivateSignal@12@@Z
?entityDeclarations@QXmlStreamReader@kso_qt@@QEBA?AV?$QVector@VQXmlStreamEntityDeclaration@kso_qt@@@2@XZ
?entityResolver@QXmlStreamReader@kso_qt@@QEBAPEAVQXmlStreamEntityResolver@2@XZ
?entryInfo@QAbstractFileEngineIterator@kso_qt@@MEBA?AVQVariant@2@W4EntryInfoType@12@@Z
?entryInfoList@QDir@kso_qt@@QEBA?AV?$QList@VQFileInfo@kso_qt@@@2@AEBVQStringList@2@V?$QFlags@W4Filter@QDir@kso_qt@@@2@V?$QFlags@W4SortFlag@QDir@kso_qt@@@2@@Z
?entryInfoList@QDir@kso_qt@@QEBA?AV?$QList@VQFileInfo@kso_qt@@@2@V?$QFlags@W4Filter@QDir@kso_qt@@@2@V?$QFlags@W4SortFlag@QDir@kso_qt@@@2@@Z
?entryList@QAbstractFileEngine@kso_qt@@UEBA?AVQStringList@2@V?$QFlags@W4Filter@QDir@kso_qt@@@2@AEBV32@@Z
?entryList@QDir@kso_qt@@QEBA?AVQStringList@2@AEBV32@V?$QFlags@W4Filter@QDir@kso_qt@@@2@V?$QFlags@W4SortFlag@QDir@kso_qt@@@2@@Z
?entryList@QDir@kso_qt@@QEBA?AVQStringList@2@V?$QFlags@W4Filter@QDir@kso_qt@@@2@V?$QFlags@W4SortFlag@QDir@kso_qt@@@2@@Z
?entryList@QFSFileEngine@kso_qt@@UEBA?AVQStringList@2@V?$QFlags@W4Filter@QDir@kso_qt@@@2@AEBV32@@Z
?enumName@QMetaEnum@kso_qt@@QEBAPEBDXZ
?enumName@QMetaEnumBuilder@kso_qt@@QEBA?AVQByteArray@2@XZ
?enumerator@QMetaObject@kso_qt@@QEBA?AVQMetaEnum@2@H@Z
?enumerator@QMetaObjectBuilder@kso_qt@@QEBA?AVQMetaEnumBuilder@2@H@Z
?enumerator@QMetaProperty@kso_qt@@QEBA?AVQMetaEnum@2@XZ
?enumeratorCount@QMetaObject@kso_qt@@QEBAHXZ
?enumeratorCount@QMetaObjectBuilder@kso_qt@@QEBAHXZ
?enumeratorOffset@QMetaObject@kso_qt@@QEBAHXZ
?environment@QProcess@kso_qt@@QEBA?AVQStringList@2@XZ
?equals@QMetaType@kso_qt@@SA_NPEBX0HPEAH@Z
?erase@?$QList@VQItemSelectionRange@kso_qt@@@kso_qt@@QEAA?AViterator@12@V312@0@Z
?erase@?$QList@VQItemSelectionRange@kso_qt@@@kso_qt@@QEAA?AViterator@12@V312@@Z
?erase@?$QVector@VQPoint@kso_qt@@@kso_qt@@QEAA?AViterator@?$QTypedArrayData@VQPoint@kso_qt@@@2@V342@0@Z
?erase@?$QVector@VQPoint@kso_qt@@@kso_qt@@QEAA?AViterator@?$QTypedArrayData@VQPoint@kso_qt@@@2@V342@@Z
?erase@?$QVector@VQPoint@kso_qt@@@kso_qt@@QEAAPEAVQPoint@2@PEAV32@0@Z
?erase@?$QVector@VQPoint@kso_qt@@@kso_qt@@QEAAPEAVQPoint@2@PEAV32@@Z
?erase@?$QVector@VQPointF@kso_qt@@@kso_qt@@QEAA?AViterator@?$QTypedArrayData@VQPointF@kso_qt@@@2@V342@0@Z
?erase@?$QVector@VQPointF@kso_qt@@@kso_qt@@QEAA?AViterator@?$QTypedArrayData@VQPointF@kso_qt@@@2@V342@@Z
?erase@?$QVector@VQPointF@kso_qt@@@kso_qt@@QEAAPEAVQPointF@2@PEAV32@0@Z
?erase@?$QVector@VQPointF@kso_qt@@@kso_qt@@QEAAPEAVQPointF@2@PEAV32@@Z
?erase@?$QVector@VQXmlStreamAttribute@kso_qt@@@kso_qt@@QEAAPEAVQXmlStreamAttribute@2@PEAV32@0@Z
?erase@?$QVector@VQXmlStreamAttribute@kso_qt@@@kso_qt@@QEAAPEAVQXmlStreamAttribute@2@PEAV32@@Z
?erase@QCborArray@kso_qt@@QEAA?AVIterator@12@V312@@Z
?erase@QCborArray@kso_qt@@QEAA?AVIterator@12@VConstIterator@12@@Z
?erase@QCborMap@kso_qt@@QEAA?AVIterator@12@V312@@Z
?erase@QCborMap@kso_qt@@QEAA?AVIterator@12@VConstIterator@12@@Z
?erase@QJsonArray@kso_qt@@QEAA?AViterator@12@V312@@Z
?erase@QJsonObject@kso_qt@@QEAA?AViterator@12@V312@@Z
?erase@QListData@kso_qt@@QEAAPEAPEAXPEAPEAX@Z
?error@QAbstractFileEngine@kso_qt@@QEBA?AW4FileError@QFileDevice@2@XZ
?error@QFileDevice@kso_qt@@QEBA?AW4FileError@12@XZ
?error@QLockFile@kso_qt@@QEBA?AW4LockError@12@XZ
?error@QProcess@kso_qt@@QEAAXW4ProcessError@12@@Z
?error@QProcess@kso_qt@@QEBA?AW4ProcessError@12@XZ
?error@QSharedMemory@kso_qt@@QEBA?AW4SharedMemoryError@12@XZ
?error@QStateMachine@kso_qt@@QEBA?AW4Error@12@XZ
?error@QSystemSemaphore@kso_qt@@QEBA?AW4SystemSemaphoreError@12@XZ
?error@QXmlStreamReader@kso_qt@@QEBA?AW4Error@12@XZ
?errorOccurred@QProcess@kso_qt@@QEAAXW4ProcessError@12@@Z
?errorState@QState@kso_qt@@QEBAPEAVQAbstractState@2@XZ
?errorStateChanged@QState@kso_qt@@QEAAXUQPrivateSignal@12@@Z
?errorString@QAbstractFileEngine@kso_qt@@QEBA?AVQString@2@XZ
?errorString@QIODevice@kso_qt@@QEBA?AVQString@2@XZ
?errorString@QJsonParseError@kso_qt@@QEBA?AVQString@2@XZ
?errorString@QLibrary@kso_qt@@QEBA?AVQString@2@XZ
?errorString@QPluginLoader@kso_qt@@QEBA?AVQString@2@XZ
?errorString@QRegExp@kso_qt@@QEAA?AVQString@2@XZ
?errorString@QRegExp@kso_qt@@QEBA?AVQString@2@XZ
?errorString@QRegularExpression@kso_qt@@QEBA?AVQString@2@XZ
?errorString@QSharedMemory@kso_qt@@QEBA?AVQString@2@XZ
?errorString@QStateMachine@kso_qt@@QEBA?AVQString@2@XZ
?errorString@QSystemSemaphore@kso_qt@@QEBA?AVQString@2@XZ
?errorString@QTemporaryDir@kso_qt@@QEBA?AVQString@2@XZ
?errorString@QUrl@kso_qt@@QEBA?AVQString@2@XZ
?errorString@QXmlStreamReader@kso_qt@@QEBA?AVQString@2@XZ
?errorText@QCommandLineParser@kso_qt@@QEBA?AVQString@2@XZ
?escape@QRegExp@kso_qt@@SA?AVQString@2@AEBV32@@Z
?escape@QRegularExpression@kso_qt@@SA?AVQString@2@AEBV32@@Z
?event@QAbstractAnimation@kso_qt@@MEAA_NPEAVQEvent@2@@Z
?event@QAbstractState@kso_qt@@MEAA_NPEAVQEvent@2@@Z
?event@QAbstractTransition@kso_qt@@MEAA_NPEAVQEvent@2@@Z
?event@QAnimationGroup@kso_qt@@MEAA_NPEAVQEvent@2@@Z
?event@QCoreApplication@kso_qt@@MEAA_NPEAVQEvent@2@@Z
?event@QEventDispatcherWin32@kso_qt@@UEAA_NPEAVQEvent@2@@Z
?event@QEventLoop@kso_qt@@UEAA_NPEAVQEvent@2@@Z
?event@QEventTransition@kso_qt@@MEAA_NPEAVQEvent@2@@Z
?event@QFinalState@kso_qt@@MEAA_NPEAVQEvent@2@@Z
?event@QFutureWatcherBase@kso_qt@@UEAA_NPEAVQEvent@2@@Z
?event@QHistoryState@kso_qt@@MEAA_NPEAVQEvent@2@@Z
?event@QObject@kso_qt@@UEAA_NPEAVQEvent@2@@Z
?event@QParallelAnimationGroup@kso_qt@@MEAA_NPEAVQEvent@2@@Z
?event@QPauseAnimation@kso_qt@@MEAA_NPEAVQEvent@2@@Z
?event@QPropertyAnimation@kso_qt@@MEAA_NPEAVQEvent@2@@Z
?event@QSequentialAnimationGroup@kso_qt@@MEAA_NPEAVQEvent@2@@Z
?event@QSettings@kso_qt@@MEAA_NPEAVQEvent@2@@Z
?event@QSignalTransition@kso_qt@@MEAA_NPEAVQEvent@2@@Z
?event@QSocketNotifier@kso_qt@@MEAA_NPEAVQEvent@2@@Z
?event@QState@kso_qt@@MEAA_NPEAVQEvent@2@@Z
?event@QStateMachine@kso_qt@@MEAA_NPEAVQEvent@2@@Z
?event@QThread@kso_qt@@UEAA_NPEAVQEvent@2@@Z
?event@QVariantAnimation@kso_qt@@MEAA_NPEAVQEvent@2@@Z
?event@QWinEventNotifier@kso_qt@@MEAA_NPEAVQEvent@2@@Z
?event@WrappedEvent@QStateMachine@kso_qt@@QEBAPEAVQEvent@3@XZ
?eventDispatcher@QCoreApplication@kso_qt@@SAPEAVQAbstractEventDispatcher@2@XZ
?eventDispatcher@QCoreApplicationPrivate@kso_qt@@2PEAVQAbstractEventDispatcher@2@EA
?eventDispatcher@QThread@kso_qt@@QEBAPEAVQAbstractEventDispatcher@2@XZ
?eventDispatcherReady@QCoreApplicationPrivate@kso_qt@@UEAAXXZ
?eventFilter@QObject@kso_qt@@UEAA_NPEAV12@PEAVQEvent@2@@Z
?eventFilter@QStateMachine@kso_qt@@UEAA_NPEAVQObject@2@PEAVQEvent@2@@Z
?eventSource@QEventTransition@kso_qt@@QEBAPEAVQObject@2@XZ
?eventTest@QEventTransition@kso_qt@@MEAA_NPEAVQEvent@2@@Z
?eventTest@QSignalTransition@kso_qt@@MEAA_NPEAVQEvent@2@@Z
?eventType@QEventTransition@kso_qt@@QEBA?AW4Type@QEvent@2@XZ
?exactMatch@QRegExp@kso_qt@@QEBA_NAEBVQString@2@@Z
?exception@ExceptionHolder@QtPrivate@kso_qt@@QEBAPEAVQException@3@XZ
?exception@ExceptionStore@QtPrivate@kso_qt@@QEAA?AVExceptionHolder@23@XZ
?exceptionStore@QFutureInterfaceBase@kso_qt@@QEAAAEAVExceptionStore@QtPrivate@2@XZ
?exec@QCoreApplication@kso_qt@@SAHXZ
?exec@QEventLoop@kso_qt@@QEAAHV?$QFlags@W4ProcessEventsFlag@QEventLoop@kso_qt@@@2@@Z
?exec@QTextStreamManipulator@kso_qt@@QEAAXAEAVQTextStream@2@@Z
?exec@QThread@kso_qt@@IEAAHXZ
?execCleanup@QCoreApplicationPrivate@kso_qt@@QEAAXXZ
?execute@QProcess@kso_qt@@SAHAEBVQString@2@@Z
?execute@QProcess@kso_qt@@SAHAEBVQString@2@AEBVQStringList@2@@Z
?executeTransitionContent@QStateMachinePrivate@kso_qt@@QEAAXPEAVQEvent@2@AEBV?$QList@PEAVQAbstractTransition@kso_qt@@@2@@Z
?exists@QDir@kso_qt@@QEBA_NAEBVQString@2@@Z
?exists@QDir@kso_qt@@QEBA_NXZ
?exists@QFile@kso_qt@@QEBA_NXZ
?exists@QFile@kso_qt@@SA_NAEBVQString@2@@Z
?exists@QFileInfo@kso_qt@@QEBA_NXZ
?exists@QFileInfo@kso_qt@@SA_NAEBVQString@2@@Z
?exists@QFileSystemMetaData@kso_qt@@QEBA_NXZ
?exit@QCoreApplication@kso_qt@@SAXH@Z
?exit@QEventLoop@kso_qt@@QEAAXH@Z
?exit@QThread@kso_qt@@QEAAXH@Z
?exitCode@QProcess@kso_qt@@QEBAHXZ
?exitInterpreter@QStateMachinePrivate@kso_qt@@UEAAXXZ
?exitStates@QStateMachinePrivate@kso_qt@@UEAAXPEAVQEvent@2@AEBV?$QList@PEAVQAbstractState@kso_qt@@@2@AEBV?$QHash@PEAVQAbstractState@kso_qt@@V?$QVector@UQPropertyAssignment@kso_qt@@@2@@2@@Z
?exitStatus@QProcess@kso_qt@@QEBA?AW4ExitStatus@12@XZ
?exited@QAbstractState@kso_qt@@QEAAXUQPrivateSignal@12@@Z
?expand@QByteArray@kso_qt@@AEAAXH@Z
?expand@QString@kso_qt@@AEAAXH@Z
?expandedTo@QSize@kso_qt@@QEBA?AV12@AEBV12@@Z
?expandedTo@QSizeF@kso_qt@@QEBA?AV12@AEBV12@@Z
?expectedResultCount@QFutureInterfaceBase@kso_qt@@QEAAHXZ
?expiryTimeout@QThreadPool@kso_qt@@QEBAHXZ
?exponential@QLocale@kso_qt@@QEBA?AVQChar@2@XZ
?exponential@QLocalePrivate@kso_qt@@QEBA?AVQChar@2@XZ
?exponenttable@qfloat16@kso_qt@@0QBIB
?extension@QAbstractFileEngine@kso_qt@@UEAA_NW4Extension@12@PEBVExtensionOption@12@PEAVExtensionReturn@12@@Z
?extension@QFSFileEngine@kso_qt@@UEAA_NW4Extension@QAbstractFileEngine@2@PEBVExtensionOption@42@PEAVExtensionReturn@42@@Z
?extraSelectors@QFileSelector@kso_qt@@QEBA?AVQStringList@2@XZ
?extract@QCborArray@kso_qt@@QEAA?AVQCborValue@2@VConstIterator@12@@Z
?extract@QCborArray@kso_qt@@QEAA?AVQCborValue@2@VIterator@12@@Z
?extract@QCborMap@kso_qt@@QEAA?AVQCborValue@2@VConstIterator@12@@Z
?extract@QCborMap@kso_qt@@QEAA?AVQCborValue@2@VIterator@12@@Z
?fallbackUiLocale@QSystemLocale@kso_qt@@UEBA?AVQLocale@2@XZ
?fallbacksEnabled@QSettings@kso_qt@@QEBA_NXZ
?false_element@VectorBoolElements@QtMetaTypePrivate@kso_qt@@2_NB
?fastTryLock@QBasicMutex@kso_qt@@AEAA_NAEAPEAVQMutexData@2@@Z
?fastTryLock@QBasicMutex@kso_qt@@AEAA_NXZ
?fastTryUnlock@QBasicMutex@kso_qt@@AEAA_NAEAPEAVQMutexData@2@@Z
?fastTryUnlock@QBasicMutex@kso_qt@@AEAA_NXZ
?fatal@QMessageLogger@kso_qt@@QEBAXPEBDZZ
?fetchMore@QAbstractItemModel@kso_qt@@UEAAXAEBVQModelIndex@2@@Z
?fetchMore@QAbstractProxyModel@kso_qt@@UEAAXAEBVQModelIndex@2@@Z
?fetchMore@QSortFilterProxyModel@kso_qt@@UEAAXAEBVQModelIndex@2@@Z
?fieldAlignment@QTextStream@kso_qt@@QEBA?AW4FieldAlignment@12@XZ
?fieldInfo@QDateTimeParser@kso_qt@@QEBA?AV?$QFlags@W4FieldInfoFlag@QDateTimeParser@kso_qt@@@2@H@Z
?fieldWidth@QTextStream@kso_qt@@QEBAHXZ
?fileChanged@QFileSystemWatcher@kso_qt@@QEAAXAEBVQString@2@UQPrivateSignal@12@@Z
?fileFlags@QAbstractFileEngine@kso_qt@@UEBA?AV?$QFlags@W4FileFlag@QAbstractFileEngine@kso_qt@@@2@V32@@Z
?fileFlags@QFSFileEngine@kso_qt@@UEBA?AV?$QFlags@W4FileFlag@QAbstractFileEngine@kso_qt@@@2@V32@@Z
?fileInfo@QDirIterator@kso_qt@@QEBA?AVQFileInfo@2@XZ
?fileName@QAbstractFileEngine@kso_qt@@UEBA?AVQString@2@W4FileName@12@@Z
?fileName@QDirIterator@kso_qt@@QEBA?AVQString@2@XZ
?fileName@QFSFileEngine@kso_qt@@UEBA?AVQString@2@W4FileName@QAbstractFileEngine@2@@Z
?fileName@QFile@kso_qt@@UEBA?AVQString@2@XZ
?fileName@QFileDevice@kso_qt@@UEBA?AVQString@2@XZ
?fileName@QFileInfo@kso_qt@@QEBA?AVQString@2@XZ
?fileName@QLibrary@kso_qt@@QEBA?AVQString@2@XZ
?fileName@QPluginLoader@kso_qt@@QEBA?AVQString@2@XZ
?fileName@QResource@kso_qt@@QEBA?AVQString@2@XZ
?fileName@QSaveFile@kso_qt@@UEBA?AVQString@2@XZ
?fileName@QSettings@kso_qt@@QEBA?AVQString@2@XZ
?fileName@QTemporaryFile@kso_qt@@UEBA?AVQString@2@XZ
?fileName@QUrl@kso_qt@@QEBA?AVQString@2@V?$QFlags@W4ComponentFormattingOption@QUrl@kso_qt@@@2@@Z
?filePath@QDir@kso_qt@@QEBA?AVQString@2@AEBV32@@Z
?filePath@QDirIterator@kso_qt@@QEBA?AVQString@2@XZ
?filePath@QFileInfo@kso_qt@@QEBA?AVQString@2@XZ
?filePath@QTemporaryDir@kso_qt@@QEBA?AVQString@2@AEBV32@@Z
?fileSystemType@QStorageInfo@kso_qt@@QEBA?AVQByteArray@2@XZ
?fileTemplate@QTemporaryFile@kso_qt@@QEBA?AVQString@2@XZ
?fileTime@QAbstractFileEngine@kso_qt@@UEBA?AVQDateTime@2@W4FileTime@12@@Z
?fileTime@QFSFileEngine@kso_qt@@UEBA?AVQDateTime@2@W4FileTime@QAbstractFileEngine@2@@Z
?fileTime@QFileDevice@kso_qt@@QEBA?AVQDateTime@2@W4FileTime@12@@Z
?fileTime@QFileInfo@kso_qt@@QEBA?AVQDateTime@2@W4FileTime@QFileDevice@2@@Z
?fileTime@QFileSystemMetaData@kso_qt@@QEBA?AVQDateTime@2@W4FileTime@QAbstractFileEngine@2@@Z
?files@QFileSystemWatcher@kso_qt@@QEBA?AVQStringList@2@XZ
?fill@?$QVector@VQPoint@kso_qt@@@kso_qt@@QEAAAEAV12@AEBVQPoint@2@H@Z
?fill@?$QVector@VQPointF@kso_qt@@@kso_qt@@QEAAAEAV12@AEBVQPointF@2@H@Z
?fill@?$QVector@VQXmlStreamAttribute@kso_qt@@@kso_qt@@QEAAAEAV12@AEBVQXmlStreamAttribute@2@H@Z
?fill@QBitArray@kso_qt@@QEAAX_NHH@Z
?fill@QBitArray@kso_qt@@QEAA_N_NH@Z
?fill@QByteArray@kso_qt@@QEAAAEAV12@DH@Z
?fill@QString@kso_qt@@QEAAAEAV12@VQChar@2@H@Z
?fillFromFileAttribute@QFileSystemMetaData@kso_qt@@QEAAXK_N@Z
?fillFromFindData@QFileSystemMetaData@kso_qt@@QEAAXAEAU_WIN32_FIND_DATAW@@_N1@Z
?fillFromFindInfo@QFileSystemMetaData@kso_qt@@QEAAXAEAU_BY_HANDLE_FILE_INFORMATION@@@Z
?filter@QDir@kso_qt@@QEBA?AV?$QFlags@W4Filter@QDir@kso_qt@@@2@XZ
?filterAcceptsColumn@QSortFilterProxyModel@kso_qt@@MEBA_NHAEBVQModelIndex@2@@Z
?filterAcceptsRow@QSortFilterProxyModel@kso_qt@@MEBA_NHAEBVQModelIndex@2@@Z
?filterCaseSensitivity@QSortFilterProxyModel@kso_qt@@QEBA?AW4CaseSensitivity@Qt@2@XZ
?filterChanged@QSortFilterProxyModel@kso_qt@@IEAAXXZ
?filterEvent@QAbstractEventDispatcher@kso_qt@@QEAA_NPEAX@Z
?filterKeyColumn@QSortFilterProxyModel@kso_qt@@QEBAHXZ
?filterMode@ResultStoreBase@QtPrivate@kso_qt@@QEBA_NXZ
?filterNativeEvent@QAbstractEventDispatcher@kso_qt@@QEAA_NAEBVQByteArray@2@PEAXPEAJ@Z
?filterNativeEvent@QAbstractEventDispatcher@kso_qt@@QEAA_N_NAEBW4AllowNativeEventFilterFlag@QAbstractNativeEventFilter@2@AEBVQByteArray@2@PEAXPEAJ@Z
?filterRegExp@QSortFilterProxyModel@kso_qt@@QEBA?AVQRegExp@2@XZ
?filterRegularExpression@QSortFilterProxyModel@kso_qt@@QEBA?AVQRegularExpression@2@XZ
?filterRole@QSortFilterProxyModel@kso_qt@@QEBAHXZ
?filterString@QMimeType@kso_qt@@QEBA?AVQString@2@XZ
?filters@QAbstractFileEngineIterator@kso_qt@@QEBA?AV?$QFlags@W4Filter@QDir@kso_qt@@@2@XZ
?find@QAssociativeIterable@kso_qt@@QEBA?AUconst_iterator@12@AEBVQVariant@2@@Z
?find@QCborMap@kso_qt@@QEAA?AVIterator@12@AEBVQCborValue@2@@Z
?find@QCborMap@kso_qt@@QEAA?AVIterator@12@AEBVQString@2@@Z
?find@QCborMap@kso_qt@@QEAA?AVIterator@12@VQLatin1String@2@@Z
?find@QCborMap@kso_qt@@QEAA?AVIterator@12@_J@Z
?find@QCborMap@kso_qt@@QEBA?AVConstIterator@12@AEBVQCborValue@2@@Z
?find@QCborMap@kso_qt@@QEBA?AVConstIterator@12@AEBVQString@2@@Z
?find@QCborMap@kso_qt@@QEBA?AVConstIterator@12@VQLatin1String@2@@Z
?find@QCborMap@kso_qt@@QEBA?AVConstIterator@12@_J@Z
?find@QJsonObject@kso_qt@@QEAA?AViterator@12@AEBVQString@2@@Z
?find@QJsonObject@kso_qt@@QEAA?AViterator@12@VQLatin1String@2@@Z
?find@QJsonObject@kso_qt@@QEBA?AVconst_iterator@12@AEBVQString@2@@Z
?find@QJsonObject@kso_qt@@QEBA?AVconst_iterator@12@VQLatin1String@2@@Z
?find@const_iterator@QAssociativeIterable@kso_qt@@AEAAXAEBVQVariant@3@@Z
?findAmPm@QDateTimeParser@kso_qt@@AEBA?AW4AmPmFinder@12@AEAVQString@2@HPEAH@Z
?findDay@QDateTimeParser@kso_qt@@AEBAHAEBVQString@2@HHPEAV32@PEAH@Z
?findErrorState@QStateMachinePrivate@kso_qt@@QEAAPEAVQAbstractState@2@PEAV32@@Z
?findExecutable@QStandardPaths@kso_qt@@SA?AVQString@2@AEBV32@AEBVQStringList@2@@Z
?findLCA@QStateMachinePrivate@kso_qt@@QEBAPEAVQState@2@AEBV?$QList@PEAVQAbstractState@kso_qt@@@2@_N@Z
?findLCCA@QStateMachinePrivate@kso_qt@@QEBAPEAVQState@2@AEBV?$QList@PEAVQAbstractState@kso_qt@@@2@@Z
?findMonth@QDateTimeParser@kso_qt@@AEBAHAEBVQString@2@HHPEAV32@PEAH@Z
?findTimeZone@QDateTimeParser@kso_qt@@AEBA?AUParsedSection@12@VQStringRef@2@AEBVQDateTime@2@HH@Z
?finish@QThreadStorageData@kso_qt@@SAXPEAPEAX@Z
?finished@QAbstractAnimation@kso_qt@@QEAAXXZ
?finished@QFutureWatcherBase@kso_qt@@QEAAXXZ
?finished@QProcess@kso_qt@@QEAAXH@Z
?finished@QProcess@kso_qt@@QEAAXHW4ExitStatus@12@@Z
?finished@QState@kso_qt@@QEAAXUQPrivateSignal@12@@Z
?finished@QThread@kso_qt@@QEAAXUQPrivateSignal@12@@Z
?finished@QTimeLine@kso_qt@@QEAAXUQPrivateSignal@12@@Z
?first@?$QList@VQItemSelectionRange@kso_qt@@@kso_qt@@QEAAAEAVQItemSelectionRange@2@XZ
?first@?$QList@VQItemSelectionRange@kso_qt@@@kso_qt@@QEBAAEBVQItemSelectionRange@2@XZ
?first@?$QVector@VQPoint@kso_qt@@@kso_qt@@QEAAAEAVQPoint@2@XZ
?first@?$QVector@VQPoint@kso_qt@@@kso_qt@@QEBAAEBVQPoint@2@XZ
?first@?$QVector@VQPointF@kso_qt@@@kso_qt@@QEAAAEAVQPointF@2@XZ
?first@?$QVector@VQPointF@kso_qt@@@kso_qt@@QEBAAEBVQPointF@2@XZ
?first@?$QVector@VQXmlStreamAttribute@kso_qt@@@kso_qt@@QEAAAEAVQXmlStreamAttribute@2@XZ
?first@?$QVector@VQXmlStreamAttribute@kso_qt@@@kso_qt@@QEBAAEBVQXmlStreamAttribute@2@XZ
?first@QCborArray@kso_qt@@QEAA?AVQCborValueRef@2@XZ
?first@QCborArray@kso_qt@@QEBA?AVQCborValue@2@XZ
?first@QJsonArray@kso_qt@@QEBA?AVQJsonValue@2@XZ
?firstDayOfWeek@QLocale@kso_qt@@QEBA?AW4DayOfWeek@Qt@2@XZ
?firstNode@QHashData@kso_qt@@QEAAPEAUNode@12@XZ
?fixed@kso_qt@@YAAEAVQTextStream@1@AEAV21@@Z
?flags@QAbstractItemModel@kso_qt@@UEBA?AV?$QFlags@W4ItemFlag@Qt@kso_qt@@@2@AEBVQModelIndex@2@@Z
?flags@QAbstractListModel@kso_qt@@UEBA?AV?$QFlags@W4ItemFlag@Qt@kso_qt@@@2@AEBVQModelIndex@2@@Z
?flags@QAbstractProxyModel@kso_qt@@UEBA?AV?$QFlags@W4ItemFlag@Qt@kso_qt@@@2@AEBVQModelIndex@2@@Z
?flags@QAbstractTableModel@kso_qt@@UEBA?AV?$QFlags@W4ItemFlag@Qt@kso_qt@@@2@AEBVQModelIndex@2@@Z
?flags@QCommandLineOption@kso_qt@@QEBA?AV?$QFlags@W4Flag@QCommandLineOption@kso_qt@@@2@XZ
?flags@QMetaObjectBuilder@kso_qt@@QEBA?AV?$QFlags@W4MetaObjectFlag@QMetaObjectBuilder@kso_qt@@@2@XZ
?flags@QMetaType@kso_qt@@QEBA?AV?$QFlags@W4TypeFlag@QMetaType@kso_qt@@@2@XZ
?flags@QModelIndex@kso_qt@@QEBA?AV?$QFlags@W4ItemFlag@Qt@kso_qt@@@2@XZ
?flags@QPersistentModelIndex@kso_qt@@QEBA?AV?$QFlags@W4ItemFlag@Qt@kso_qt@@@2@XZ
?flags@QSortFilterProxyModel@kso_qt@@UEBA?AV?$QFlags@W4ItemFlag@Qt@kso_qt@@@2@AEBVQModelIndex@2@@Z
?flags@QStringListModel@kso_qt@@UEBA?AV?$QFlags@W4ItemFlag@Qt@kso_qt@@@2@AEBVQModelIndex@2@@Z
?flagsExtended@QMetaType@kso_qt@@AEBA?AV?$QFlags@W4TypeFlag@QMetaType@kso_qt@@@2@XZ
?floatingPointPrecision@QDataStream@kso_qt@@QEBA?AW4FloatingPointPrecision@12@XZ
?flush@QAbstractFileEngine@kso_qt@@UEAA_NXZ
?flush@QCoreApplication@kso_qt@@SAXXZ
?flush@QEventDispatcherWin32@kso_qt@@UEAAXXZ
?flush@QFSFileEngine@kso_qt@@UEAA_NXZ
?flush@QFileDevice@kso_qt@@QEAA_NXZ
?flush@QTextStream@kso_qt@@QEAAXXZ
?flush@kso_qt@@YAAEAVQTextStream@1@AEAV21@@Z
?flushFh@QFSFileEnginePrivate@kso_qt@@QEAA_NXZ
?forcepoint@kso_qt@@YAAEAVQTextStream@1@AEAV21@@Z
?forcesign@kso_qt@@YAAEAVQTextStream@1@AEAV21@@Z
?format@QSettings@kso_qt@@QEBA?AW4Format@12@XZ
?format@SectionNode@QDateTimeParser@kso_qt@@QEBA?AVQString@3@XZ
?formats@QMimeData@kso_qt@@UEBA?AVQStringList@2@XZ
?formattedDataSize@QLocale@kso_qt@@QEAA?AVQString@2@_JHV?$QFlags@W4DataSizeFormat@QLocale@kso_qt@@@2@@Z
?forwardEvent@QCoreApplication@kso_qt@@CA_NPEAVQObject@2@PEAVQEvent@2@1@Z
?fp_helper@QCborValue@kso_qt@@AEBANXZ
?fragment@QUrl@kso_qt@@QEBA?AVQString@2@V?$QFlags@W4ComponentFormattingOption@QUrl@kso_qt@@@2@@Z
?frameChanged@QTimeLine@kso_qt@@QEAAXHUQPrivateSignal@12@@Z
?frameForTime@QTimeLine@kso_qt@@QEBAHH@Z
?free@QRingBuffer@kso_qt@@QEAAX_J@Z
?freeData@?$QVector@VQPoint@kso_qt@@@kso_qt@@AEAAXPEAU?$QTypedArrayData@VQPoint@kso_qt@@@2@@Z
?freeData@?$QVector@VQPointF@kso_qt@@@kso_qt@@AEAAXPEAU?$QTypedArrayData@VQPointF@kso_qt@@@2@@Z
?freeData@?$QVector@VQXmlStreamAttribute@kso_qt@@@kso_qt@@AEAAXPEAU?$QTypedArrayData@VQXmlStreamAttribute@kso_qt@@@2@@Z
?freeData@QContiguousCacheData@kso_qt@@SAXPEAU12@@Z
?freeData@QMapDataBase@kso_qt@@SAXPEAU12@@Z
?freeNode@QHashData@kso_qt@@QEAAXPEAX@Z
?freeNodeAndRebalance@QMapDataBase@kso_qt@@QEAAXPEAUQMapNodeBase@2@@Z
?freeTree@QMapDataBase@kso_qt@@QEAAXPEAUQMapNodeBase@2@H@Z
?free_helper@QHashData@kso_qt@@QEAAXP6AXPEAUNode@12@@Z@Z
?fromAce@QUrl@kso_qt@@SA?AVQString@2@AEBVQByteArray@2@@Z
?fromAscii@QChar@kso_qt@@SA?AV12@D@Z
?fromAscii@QString@kso_qt@@SA?AV12@AEBVQByteArray@2@@Z
?fromAscii@QString@kso_qt@@SA?AV12@PEBDH@Z
?fromAscii_helper@QString@kso_qt@@CAPEAU?$QTypedArrayData@G@2@PEBDH@Z
?fromBase64@QByteArray@kso_qt@@SA?AV12@AEBV12@@Z
?fromBase64@QByteArray@kso_qt@@SA?AV12@AEBV12@V?$QFlags@W4Base64Option@QByteArray@kso_qt@@@2@@Z
?fromBinaryData@QJsonDocument@kso_qt@@SA?AV12@AEBVQByteArray@2@W4DataValidation@12@@Z
?fromBits@QBitArray@kso_qt@@SA?AV12@PEBD_J@Z
?fromCbor@QCborValue@kso_qt@@SA?AV12@AEAVQCborStreamReader@2@@Z
?fromCbor@QCborValue@kso_qt@@SA?AV12@AEBVQByteArray@2@PEAUQCborParserError@2@@Z
?fromCbor@QCborValue@kso_qt@@SA?AV12@PEBD_JPEAUQCborParserError@2@@Z
?fromCbor@QCborValue@kso_qt@@SA?AV12@PEBE_JPEAUQCborParserError@2@@Z
?fromEncoded@QUrl@kso_qt@@SA?AV12@AEBVQByteArray@2@W4ParsingMode@12@@Z
?fromEncodedComponent_helper@QUrl@kso_qt@@SA?AVQString@2@AEBVQByteArray@2@@Z
?fromHex@QByteArray@kso_qt@@SA?AV12@AEBV12@@Z
?fromJson@QJsonDocument@kso_qt@@SA?AV12@AEBVQByteArray@2@PEAUQJsonParseError@2@@Z
?fromJsonArray@QCborArray@kso_qt@@SA?AV12@AEBVQJsonArray@2@@Z
?fromJsonObject@QCborMap@kso_qt@@SA?AV12@AEBVQJsonObject@2@@Z
?fromJsonValue@QCborValue@kso_qt@@SA?AV12@AEBVQJsonValue@2@@Z
?fromJulianDay@QDate@kso_qt@@SA?AV12@_J@Z
?fromLatin1@QChar@kso_qt@@SA?AV12@D@Z
?fromLatin1@QString@kso_qt@@SA?AV12@AEBVQByteArray@2@@Z
?fromLatin1@QString@kso_qt@@SA?AV12@PEBDH@Z
?fromLatin1_helper@QString@kso_qt@@CAPEAU?$QTypedArrayData@G@2@PEBDH@Z
?fromList@?$QVector@VQPoint@kso_qt@@@kso_qt@@SA?AV12@AEBV?$QList@VQPoint@kso_qt@@@2@@Z
?fromList@?$QVector@VQPointF@kso_qt@@@kso_qt@@SA?AV12@AEBV?$QList@VQPointF@kso_qt@@@2@@Z
?fromList@?$QVector@VQXmlStreamAttribute@kso_qt@@@kso_qt@@SA?AV12@AEBV?$QList@VQXmlStreamAttribute@kso_qt@@@2@@Z
?fromLocal8Bit@QString@kso_qt@@SA?AV12@AEBVQByteArray@2@@Z
?fromLocal8Bit@QString@kso_qt@@SA?AV12@PEBDH@Z
?fromLocal8Bit_helper@QString@kso_qt@@CA?AV12@PEBDH@Z
?fromLocalFile@QUrl@kso_qt@@SA?AV12@AEBVQString@2@@Z
?fromMSecsSinceEpoch@QDateTime@kso_qt@@SA?AV12@_J@Z
?fromMSecsSinceEpoch@QDateTime@kso_qt@@SA?AV12@_JAEBVQTimeZone@2@@Z
?fromMSecsSinceEpoch@QDateTime@kso_qt@@SA?AV12@_JW4TimeSpec@Qt@2@H@Z
?fromMSecsSinceStartOfDay@QTime@kso_qt@@SA?AV12@H@Z
?fromName@QConfFile@kso_qt@@SAPEAV12@AEBVQString@2@_N@Z
?fromNativeSeparators@QDir@kso_qt@@SA?AVQString@2@AEBV32@@Z
?fromPercentEncoding@QByteArray@kso_qt@@SA?AV12@AEBV12@D@Z
?fromPercentEncoding@QUrl@kso_qt@@SA?AVQString@2@AEBVQByteArray@2@@Z
?fromPolar@QLineF@kso_qt@@SA?AV12@NN@Z
?fromPunycode@QUrl@kso_qt@@SA?AVQString@2@AEBVQByteArray@2@@Z
?fromRawData@QByteArray@kso_qt@@SA?AV12@PEBDH@Z
?fromRawData@QJsonDocument@kso_qt@@SA?AV12@PEBDHW4DataValidation@12@@Z
?fromRawData@QString@kso_qt@@SA?AV12@PEBVQChar@2@H@Z
?fromRelocatableData@QMetaObjectBuilder@kso_qt@@SAXPEAUQMetaObject@2@PEBU32@AEBVQByteArray@2@@Z
?fromRfc4122@QUuid@kso_qt@@SA?AV12@AEBVQByteArray@2@@Z
?fromSecsSinceEpoch@QDateTime@kso_qt@@SA?AV12@_JAEBVQTimeZone@2@@Z
?fromSecsSinceEpoch@QDateTime@kso_qt@@SA?AV12@_JW4TimeSpec@Qt@2@H@Z
?fromSet@?$QList@VQItemSelectionRange@kso_qt@@@kso_qt@@SA?AV12@AEBV?$QSet@VQItemSelectionRange@kso_qt@@@2@@Z
?fromSignalImpl@QMetaMethod@kso_qt@@CA?AV12@PEBUQMetaObject@2@PEAPEAX@Z
?fromStdList@?$QList@VQItemSelectionRange@kso_qt@@@kso_qt@@SA?AV12@AEBV?$list@VQItemSelectionRange@kso_qt@@V?$allocator@VQItemSelectionRange@kso_qt@@@std@@@std@@@Z
?fromStdString@QByteArray@kso_qt@@SA?AV12@AEBV?$basic_string@DU?$char_traits@D@std@@V?$allocator@D@2@@std@@@Z
?fromStdString@QString@kso_qt@@SA?AV12@AEBV?$basic_string@DU?$char_traits@D@std@@V?$allocator@D@2@@std@@@Z
?fromStdU16String@QString@kso_qt@@SA?AV12@AEBV?$basic_string@_SU?$char_traits@_S@std@@V?$allocator@_S@2@@std@@@Z
?fromStdU32String@QString@kso_qt@@SA?AV12@AEBV?$basic_string@_UU?$char_traits@_U@std@@V?$allocator@_U@2@@std@@@Z
?fromStdVector@?$QVector@VQPoint@kso_qt@@@kso_qt@@SA?AV12@AEBV?$vector@VQPoint@kso_qt@@V?$allocator@VQPoint@kso_qt@@@std@@@std@@@Z
?fromStdVector@?$QVector@VQPointF@kso_qt@@@kso_qt@@SA?AV12@AEBV?$vector@VQPointF@kso_qt@@V?$allocator@VQPointF@kso_qt@@@std@@@std@@@Z
?fromStdVector@?$QVector@VQXmlStreamAttribute@kso_qt@@@kso_qt@@SA?AV12@AEBV?$vector@VQXmlStreamAttribute@kso_qt@@V?$allocator@VQXmlStreamAttribute@kso_qt@@@std@@@std@@@Z
?fromStdWString@QString@kso_qt@@SA?AV12@AEBV?$basic_string@_WU?$char_traits@_W@std@@V?$allocator@_W@2@@std@@@Z
?fromString@QDate@kso_qt@@SA?AV12@AEBVQString@2@0@Z
?fromString@QDate@kso_qt@@SA?AV12@AEBVQString@2@W4DateFormat@Qt@2@@Z
?fromString@QDateTime@kso_qt@@SA?AV12@AEBVQString@2@0@Z
?fromString@QDateTime@kso_qt@@SA?AV12@AEBVQString@2@W4DateFormat@Qt@2@@Z
?fromString@QDateTimeParser@kso_qt@@QEBA_NAEBVQString@2@PEAVQDate@2@PEAVQTime@2@@Z
?fromString@QTime@kso_qt@@SA?AV12@AEBVQString@2@0@Z
?fromString@QTime@kso_qt@@SA?AV12@AEBVQString@2@W4DateFormat@Qt@2@@Z
?fromString@QUuid@kso_qt@@SA?AV12@VQLatin1String@2@@Z
?fromString@QUuid@kso_qt@@SA?AV12@VQStringView@2@@Z
?fromString@QVersionNumber@kso_qt@@SA?AV12@AEBVQString@2@PEAH@Z
?fromString@QVersionNumber@kso_qt@@SA?AV12@VQLatin1String@2@PEAH@Z
?fromString@QVersionNumber@kso_qt@@SA?AV12@VQStringView@2@PEAH@Z
?fromStringList@QCborArray@kso_qt@@SA?AV12@AEBVQStringList@2@@Z
?fromStringList@QJsonArray@kso_qt@@SA?AV12@AEBVQStringList@2@@Z
?fromStringList@QUrl@kso_qt@@SA?AV?$QList@VQUrl@kso_qt@@@2@AEBVQStringList@2@W4ParsingMode@12@@Z
?fromTime_t@QDateTime@kso_qt@@SA?AV12@I@Z
?fromTime_t@QDateTime@kso_qt@@SA?AV12@IAEBVQTimeZone@2@@Z
?fromTime_t@QDateTime@kso_qt@@SA?AV12@IW4TimeSpec@Qt@2@H@Z
?fromUcs4@QString@kso_qt@@SA?AV12@PEBIH@Z
?fromUcs4@QString@kso_qt@@SA?AV12@PEB_UH@Z
?fromUnicode@QTextCodec@kso_qt@@QEBA?AVQByteArray@2@AEBVQString@2@@Z
?fromUnicode@QTextCodec@kso_qt@@QEBA?AVQByteArray@2@PEBVQChar@2@HPEAUConverterState@12@@Z
?fromUnicode@QTextCodec@kso_qt@@QEBA?AVQByteArray@2@VQStringView@2@@Z
?fromUnicode@QTextEncoder@kso_qt@@QEAA?AVQByteArray@2@AEBVQString@2@@Z
?fromUnicode@QTextEncoder@kso_qt@@QEAA?AVQByteArray@2@PEBVQChar@2@H@Z
?fromUnicode@QTextEncoder@kso_qt@@QEAA?AVQByteArray@2@VQStringView@2@@Z
?fromUserInput@QUrl@kso_qt@@SA?AV12@AEBVQString@2@0V?$QFlags@W4UserInputResolutionOption@QUrl@kso_qt@@@2@@Z
?fromUserInput@QUrl@kso_qt@@SA?AV12@AEBVQString@2@@Z
?fromUtf16@QString@kso_qt@@SA?AV12@PEBGH@Z
?fromUtf16@QString@kso_qt@@SA?AV12@PEB_SH@Z
?fromUtf8@QString@kso_qt@@SA?AV12@AEBVQByteArray@2@@Z
?fromUtf8@QString@kso_qt@@SA?AV12@PEBDH@Z
?fromUtf8_helper@QString@kso_qt@@CA?AV12@PEBDH@Z
?fromVariant@QCborValue@kso_qt@@SA?AV12@AEBVQVariant@2@@Z
?fromVariant@QJsonDocument@kso_qt@@SA?AV12@AEBVQVariant@2@@Z
?fromVariant@QJsonValue@kso_qt@@SA?AV12@AEBVQVariant@2@@Z
?fromVariantHash@QCborMap@kso_qt@@SA?AV12@AEBV?$QHash@VQString@kso_qt@@VQVariant@2@@2@@Z
?fromVariantHash@QJsonObject@kso_qt@@SA?AV12@AEBV?$QHash@VQString@kso_qt@@VQVariant@2@@2@@Z
?fromVariantList@QCborArray@kso_qt@@SA?AV12@AEBV?$QList@VQVariant@kso_qt@@@2@@Z
?fromVariantList@QJsonArray@kso_qt@@SA?AV12@AEBV?$QList@VQVariant@kso_qt@@@2@@Z
?fromVariantMap@QCborMap@kso_qt@@SA?AV12@AEBV?$QMap@VQString@kso_qt@@VQVariant@2@@2@@Z
?fromVariantMap@QJsonObject@kso_qt@@SA?AV12@AEBV?$QMap@VQString@kso_qt@@VQVariant@2@@2@@Z
?fromVector@?$QList@VQItemSelectionRange@kso_qt@@@kso_qt@@SA?AV12@AEBV?$QVector@VQItemSelectionRange@kso_qt@@@2@@Z
?fromWCharArray@QString@kso_qt@@SA?AV12@PEB_WH@Z
?front@?$QList@VQItemSelectionRange@kso_qt@@@kso_qt@@QEAAAEAVQItemSelectionRange@2@XZ
?front@?$QList@VQItemSelectionRange@kso_qt@@@kso_qt@@QEBAAEBVQItemSelectionRange@2@XZ
?front@?$QVector@VQPoint@kso_qt@@@kso_qt@@QEAAAEAVQPoint@2@XZ
?front@?$QVector@VQPoint@kso_qt@@@kso_qt@@QEBAAEBVQPoint@2@XZ
?front@?$QVector@VQPointF@kso_qt@@@kso_qt@@QEAAAEAVQPointF@2@XZ
?front@?$QVector@VQPointF@kso_qt@@@kso_qt@@QEBAAEBVQPointF@2@XZ
?front@?$QVector@VQXmlStreamAttribute@kso_qt@@@kso_qt@@QEAAAEAVQXmlStreamAttribute@2@XZ
?front@?$QVector@VQXmlStreamAttribute@kso_qt@@@kso_qt@@QEBAAEBVQXmlStreamAttribute@2@XZ
?front@QByteArray@kso_qt@@QEAA?AVQByteRef@2@XZ
?front@QByteArray@kso_qt@@QEBADXZ
?front@QString@kso_qt@@QEAA?AVQCharRef@2@XZ
?front@QString@kso_qt@@QEBA?AVQChar@2@XZ
?front@QStringRef@kso_qt@@QEBA?AVQChar@2@XZ
?generateByteOrderMark@QTextStream@kso_qt@@QEBA_NXZ
?genericIconName@QMimeType@kso_qt@@QEBA?AVQString@2@XZ
?get@QAbstractTransitionPrivate@kso_qt@@SAPEAV12@PEAVQAbstractTransition@2@@Z
?get@QEventDispatcherWin32Private@kso_qt@@SAPEAV12@PEAVQEventDispatcherWin32@2@@Z
?get@QEventTransitionPrivate@kso_qt@@SAPEAV12@PEAVQEventTransition@2@@Z
?get@QLocalePrivate@kso_qt@@SAPEAV12@AEAVQLocale@2@@Z
?get@QLocalePrivate@kso_qt@@SAPEBV12@AEBVQLocale@2@@Z
?get@QMutexPool@kso_qt@@QEAAPEAVQMutex@2@PEBX@Z
?get@QObjectPrivate@kso_qt@@SAPEAV12@PEAVQObject@2@@Z
?get@QObjectPrivate@kso_qt@@SAPEBV12@PEBVQObject@2@@Z
?get@QStateMachinePrivate@kso_qt@@SAPEAV12@PEAVQStateMachine@2@@Z
?get@QStatePrivate@kso_qt@@SAPEAV12@PEAVQState@2@@Z
?get@QStatePrivate@kso_qt@@SAPEBV12@PEBVQState@2@@Z
?get@QThreadStorageData@kso_qt@@QEBAPEAPEAXXZ
?getAmPmText@QDateTimeParser@kso_qt@@MEBA?AVQString@2@W4AmPm@12@W4Case@12@@Z
?getAndRef@ExternalRefCountData@QtSharedPointer@kso_qt@@SAPEAU123@PEBVQObject@3@@Z
?getChar@QIODevice@kso_qt@@QEAA_NPEAD@Z
?getCoords@QRect@kso_qt@@QEBAXPEAH000@Z
?getCoords@QRectF@kso_qt@@QEBAXPEAN000@Z
?getDate@QDate@kso_qt@@QEAAXPEAH00@Z
?getDate@QDate@kso_qt@@QEBAXPEAH00@Z
?getDigit@QDateTimeParser@kso_qt@@IEBAHAEBVQDateTime@2@H@Z
?getInterpolator@QVariantAnimationPrivate@kso_qt@@SAP6A?AVQVariant@2@PEBX0N@ZH@Z
?getLangAndCountry@QLocalePrivate@kso_qt@@SAXAEBVQString@2@AEAW4Language@QLocale@2@AEAW4Script@52@AEAW4Country@52@@Z
?getLockInfo@QLockFile@kso_qt@@QEBA_NPEA_JPEAVQString@2@1@Z
?getMaximum@QDateTimeParser@kso_qt@@MEBA?AVQDateTime@2@XZ
?getMinimum@QDateTimeParser@kso_qt@@MEBA?AVQDateTime@2@XZ
?getParameterTypes@QMetaMethod@kso_qt@@QEBAXPEAH@Z
?getRect@QRect@kso_qt@@QEBAXPEAH000@Z
?getRect@QRectF@kso_qt@@QEBAXPEAN000@Z
?getTransitionDomain@QStateMachinePrivate@kso_qt@@QEBAPEAVQAbstractState@2@PEAVQAbstractTransition@2@AEBV?$QList@PEAVQAbstractState@kso_qt@@@2@PEAUCalculationCache@2@@Z
?globPatterns@QMimeType@kso_qt@@QEBA?AVQStringList@2@XZ
?global@QRandomGenerator64@kso_qt@@SAPEAV12@XZ
?globalInstance@QThreadPool@kso_qt@@SAPEAV12@XZ
?globalInstanceGet@QMutexPool@kso_qt@@SAPEAVQMutex@2@PEBX@Z
?globalMatch@QRegularExpression@kso_qt@@QEBA?AVQRegularExpressionMatchIterator@2@AEBVQString@2@HW4MatchType@12@V?$QFlags@W4MatchOption@QRegularExpression@kso_qt@@@2@@Z
?globalMatch@QRegularExpression@kso_qt@@QEBA?AVQRegularExpressionMatchIterator@2@AEBVQStringRef@2@HW4MatchType@12@V?$QFlags@W4MatchOption@QRegularExpression@kso_qt@@@2@@Z
?globalRestorePolicy@QStateMachine@kso_qt@@QEBA?AW4RestorePolicy@QState@2@XZ
?goToState@QStateMachinePrivate@kso_qt@@QEAAXPEAVQAbstractState@2@@Z
?graphemeBreakClass@QUnicodeTables@kso_qt@@YA?AW4GraphemeBreakClass@12@I@Z
?group@QAbstractAnimation@kso_qt@@QEBAPEAVQAnimationGroup@2@XZ
?group@QFileInfo@kso_qt@@QEBA?AVQString@2@XZ
?group@QLocalePrivate@kso_qt@@QEBA?AVQChar@2@XZ
?group@QSettings@kso_qt@@QEBA?AVQString@2@XZ
?groupId@QFileInfo@kso_qt@@QEBAIXZ
?groupId@QFileSystemMetaData@kso_qt@@QEBAIXZ
?groupSeparator@QLocale@kso_qt@@QEBA?AVQChar@2@XZ
?handle@QAbstractFileEngine@kso_qt@@UEBAHXZ
?handle@QFSFileEngine@kso_qt@@UEBAHXZ
?handle@QFileDevice@kso_qt@@QEBAHXZ
?handle@QSharedMemoryPrivate@kso_qt@@QEAAPEAXXZ
?handle@QWinEventNotifier@kso_qt@@QEBAPEAXXZ
?handleFilteredEvent@QStateMachinePrivate@kso_qt@@QEAAXPEAVQObject@2@PEAVQEvent@2@@Z
?handleTransitionSignal@QStateMachinePrivate@kso_qt@@QEAAXPEAVQObject@2@HPEAPEAX@Z
?handler@QStateMachinePrivate@kso_qt@@2PEBUHandler@12@EB
?hasAttribute@QXmlStreamAttributes@kso_qt@@QEBA_NAEBVQString@2@0@Z
?hasAttribute@QXmlStreamAttributes@kso_qt@@QEBA_NAEBVQString@2@@Z
?hasAttribute@QXmlStreamAttributes@kso_qt@@QEBA_NVQLatin1String@2@@Z
?hasChildren@QAbstractItemModel@kso_qt@@UEBA_NAEBVQModelIndex@2@@Z
?hasChildren@QAbstractListModel@kso_qt@@EEBA_NAEBVQModelIndex@2@@Z
?hasChildren@QAbstractProxyModel@kso_qt@@UEBA_NAEBVQModelIndex@2@@Z
?hasChildren@QAbstractTableModel@kso_qt@@EEBA_NAEBVQModelIndex@2@@Z
?hasChildren@QSortFilterProxyModel@kso_qt@@UEBA_NAEBVQModelIndex@2@@Z
?hasColor@QMimeData@kso_qt@@QEBA_NXZ
?hasDaylightTime@QTimeZone@kso_qt@@QEBA_NXZ
?hasDaylightTime@QTimeZonePrivate@kso_qt@@UEBA_NXZ
?hasDaylightTime@QWinTimeZonePrivate@kso_qt@@UEBA_NXZ
?hasEncodedQueryItem@QUrl@kso_qt@@QEBA_NAEBVQByteArray@2@@Z
?hasError@QXmlStreamReader@kso_qt@@QEBA_NXZ
?hasError@QXmlStreamWriter@kso_qt@@QEBA_NXZ
?hasException@ExceptionStore@QtPrivate@kso_qt@@QEBA_NXZ
?hasExpired@QDeadlineTimer@kso_qt@@QEBA_NXZ
?hasExpired@QElapsedTimer@kso_qt@@QEBA_N_J@Z
?hasFailure@QTextDecoder@kso_qt@@QEBA_NXZ
?hasFailure@QTextEncoder@kso_qt@@QEBA_NXZ
?hasFlags@QFileSystemMetaData@kso_qt@@QEBA_NV?$QFlags@W4MetaDataFlag@QFileSystemMetaData@kso_qt@@@2@@Z
?hasFormat@QMimeData@kso_qt@@UEBA_NAEBVQString@2@@Z
?hasFragment@QUrl@kso_qt@@QEBA_NXZ
?hasHtml@QMimeData@kso_qt@@QEBA_NXZ
?hasImage@QMimeData@kso_qt@@QEBA_NXZ
?hasIndex@QAbstractItemModel@kso_qt@@QEBA_NHHAEBVQModelIndex@2@@Z
?hasMatch@QRegularExpressionMatch@kso_qt@@QEBA_NXZ
?hasMirrored@QChar@kso_qt@@QEBA_NXZ
?hasMirrored@QChar@kso_qt@@SA_NI@Z
?hasMirrored@QCharRef@kso_qt@@QEBA_NXZ
?hasNext@QCborStreamReader@kso_qt@@QEBA_NXZ
?hasNext@QDirIterator@kso_qt@@QEBA_NXZ
?hasNext@QRegularExpressionMatchIterator@kso_qt@@QEBA_NXZ
?hasNextResult@ResultStoreBase@QtPrivate@kso_qt@@QEBA_NXZ
?hasNotifySignal@QMetaProperty@kso_qt@@QEBA_NXZ
?hasNotifySignal@QMetaPropertyBuilder@kso_qt@@QEBA_NXZ
?hasPartialMatch@QRegularExpressionMatch@kso_qt@@QEBA_NXZ
?hasPendingEvents@QCoreApplication@kso_qt@@SA_NXZ
?hasPendingEvents@QEventDispatcherWin32@kso_qt@@UEAA_NXZ
?hasQuery@QUrl@kso_qt@@QEBA_NXZ
?hasQueryItem@QUrl@kso_qt@@QEBA_NAEBVQString@2@@Z
?hasQueryItem@QUrlQuery@kso_qt@@QEBA_NAEBVQString@2@@Z
?hasRegisteredComparators@QMetaType@kso_qt@@SA_NH@Z
?hasRegisteredConverterFunction@QMetaType@kso_qt@@SA_NHH@Z
?hasRegisteredDebugStreamOperator@QMetaType@kso_qt@@SA_NH@Z
?hasRestorable@QStateMachinePrivate@kso_qt@@QEBA_NPEAVQAbstractState@2@PEAVQObject@2@AEBVQByteArray@2@@Z
?hasSelection@QItemSelectionModel@kso_qt@@QEBA_NXZ
?hasShrunk@QHashData@kso_qt@@QEAAXXZ
?hasStdCppSet@QMetaProperty@kso_qt@@QEBA_NXZ
?hasStdCppSet@QMetaPropertyBuilder@kso_qt@@QEBA_NXZ
?hasText@QMimeData@kso_qt@@QEBA_NXZ
?hasThrown@ExceptionStore@QtPrivate@kso_qt@@QEBA_NXZ
?hasTransitions@QTimeZone@kso_qt@@QEBA_NXZ
?hasTransitions@QTimeZonePrivate@kso_qt@@UEBA_NXZ
?hasTransitions@QWinTimeZonePrivate@kso_qt@@UEBA_NXZ
?hasUrls@QMimeData@kso_qt@@QEBA_NXZ
?hash@QCryptographicHash@kso_qt@@SA?AVQByteArray@2@AEBV32@W4Algorithm@12@@Z
?hash@QMessageAuthenticationCode@kso_qt@@SA?AVQByteArray@2@AEBV32@0W4Algorithm@QCryptographicHash@2@@Z
?hashLength@QCryptographicHash@kso_qt@@SAHW4Algorithm@12@@Z
?headerData@QAbstractItemModel@kso_qt@@UEBA?AVQVariant@2@HW4Orientation@Qt@2@H@Z
?headerData@QAbstractProxyModel@kso_qt@@UEBA?AVQVariant@2@HW4Orientation@Qt@2@H@Z
?headerData@QIdentityProxyModel@kso_qt@@UEBA?AVQVariant@2@HW4Orientation@Qt@2@H@Z
?headerData@QSortFilterProxyModel@kso_qt@@UEBA?AVQVariant@2@HW4Orientation@Qt@2@H@Z
?headerDataChanged@QAbstractItemModel@kso_qt@@QEAAXW4Orientation@Qt@2@HH@Z
?height@QItemSelectionRange@kso_qt@@QEBAHXZ
?height@QRect@kso_qt@@QEBAHXZ
?height@QRectF@kso_qt@@QEBANXZ
?height@QSize@kso_qt@@QEBAHXZ
?height@QSizeF@kso_qt@@QEBANXZ
?helpText@QCommandLineParser@kso_qt@@QEBA?AVQString@2@XZ
?hex@kso_qt@@YAAEAVQTextStream@1@AEAV21@@Z
?highSurrogate@QChar@kso_qt@@SAGI@Z
?historyStates@QStatePrivate@kso_qt@@QEBA?AV?$QList@PEAVQHistoryState@kso_qt@@@2@XZ
?historyType@QHistoryState@kso_qt@@QEBA?AW4HistoryType@12@XZ
?historyTypeChanged@QHistoryState@kso_qt@@QEAAXUQPrivateSignal@12@@Z
?home@QDir@kso_qt@@SA?AV12@XZ
?homePath@QDir@kso_qt@@SA?AVQString@2@XZ
?homePath@QFSFileEngine@kso_qt@@SA?AVQString@2@XZ
?host@QUrl@kso_qt@@QEBA?AVQString@2@V?$QFlags@W4ComponentFormattingOption@QUrl@kso_qt@@@2@@Z
?hour@QTime@kso_qt@@QEBAHXZ
?html@QMimeData@kso_qt@@QEBA?AVQString@2@XZ
?ianaIdToWindowsId@QTimeZone@kso_qt@@SA?AVQByteArray@2@AEBV32@@Z
?ianaIdToWindowsId@QTimeZonePrivate@kso_qt@@SA?AVQByteArray@2@AEBV32@@Z
?iconName@QMimeType@kso_qt@@QEBA?AVQString@2@XZ
?id@QAbstractFileEngine@kso_qt@@UEBA?AVQByteArray@2@XZ
?id@QFSFileEngine@kso_qt@@UEBA?AVQByteArray@2@XZ
?id@QMetaCallEvent@kso_qt@@QEBAHXZ
?id@QTimeZone@kso_qt@@QEBA?AVQByteArray@2@XZ
?id@QTimeZonePrivate@kso_qt@@QEBA?AVQByteArray@2@XZ
?idealThreadCount@QThread@kso_qt@@SAHXZ
?idnWhitelist@QUrl@kso_qt@@SA?AVQStringList@2@XZ
?ignore@QEvent@kso_qt@@QEAAXXZ
?ignorePunctuation@QCollator@kso_qt@@QEBA_NXZ
?imageData@QMimeData@kso_qt@@QEBA?AVQVariant@2@XZ
?index@QAbstractListModel@kso_qt@@UEBA?AVQModelIndex@2@HHAEBV32@@Z
?index@QAbstractTableModel@kso_qt@@UEBA?AVQModelIndex@2@HHAEBV32@@Z
?index@QIdentityProxyModel@kso_qt@@UEBA?AVQModelIndex@2@HHAEBV32@@Z
?index@QMetaEnumBuilder@kso_qt@@QEBAHXZ
?index@QMetaMethodBuilder@kso_qt@@QEBAHXZ
?index@QMetaPropertyBuilder@kso_qt@@QEBAHXZ
?index@QSortFilterProxyModel@kso_qt@@UEBA?AVQModelIndex@2@HHAEBV32@@Z
?indexIn@QByteArrayMatcher@kso_qt@@QEBAHAEBVQByteArray@2@H@Z
?indexIn@QByteArrayMatcher@kso_qt@@QEBAHPEBDHH@Z
?indexIn@QRegExp@kso_qt@@QEBAHAEBVQString@2@HW4CaretMode@12@@Z
?indexIn@QStringMatcher@kso_qt@@QEBAHAEBVQString@2@H@Z
?indexIn@QStringMatcher@kso_qt@@QEBAHPEBVQChar@2@HH@Z
?indexOf@?$QList@VQItemSelectionRange@kso_qt@@@kso_qt@@QEBAHAEBVQItemSelectionRange@2@H@Z
?indexOf@?$QVector@VQPoint@kso_qt@@@kso_qt@@QEBAHAEBVQPoint@2@H@Z
?indexOf@?$QVector@VQPointF@kso_qt@@@kso_qt@@QEBAHAEBVQPointF@2@H@Z
?indexOf@?$QVector@VQXmlStreamAttribute@kso_qt@@@kso_qt@@QEBAHAEBVQXmlStreamAttribute@2@H@Z
?indexOf@QByteArray@kso_qt@@QEBAHAEBV12@H@Z
?indexOf@QByteArray@kso_qt@@QEBAHAEBVQString@2@H@Z
?indexOf@QByteArray@kso_qt@@QEBAHDH@Z
?indexOf@QByteArray@kso_qt@@QEBAHPEBDH@Z
?indexOf@QFactoryLoader@kso_qt@@QEBAHAEBVQString@2@@Z
?indexOf@QRingBuffer@kso_qt@@QEBA_JD_J0@Z
?indexOf@QString@kso_qt@@QEBAHAEAVQRegExp@2@H@Z
?indexOf@QString@kso_qt@@QEBAHAEBV12@HW4CaseSensitivity@Qt@2@@Z
?indexOf@QString@kso_qt@@QEBAHAEBVQRegExp@2@H@Z
?indexOf@QString@kso_qt@@QEBAHAEBVQRegularExpression@2@H@Z
?indexOf@QString@kso_qt@@QEBAHAEBVQRegularExpression@2@HPEAVQRegularExpressionMatch@2@@Z
?indexOf@QString@kso_qt@@QEBAHAEBVQStringRef@2@HW4CaseSensitivity@Qt@2@@Z
?indexOf@QString@kso_qt@@QEBAHVQChar@2@HW4CaseSensitivity@Qt@2@@Z
?indexOf@QString@kso_qt@@QEBAHVQLatin1String@2@HW4CaseSensitivity@Qt@2@@Z
?indexOf@QStringRef@kso_qt@@QEBAHAEBV12@HW4CaseSensitivity@Qt@2@@Z
?indexOf@QStringRef@kso_qt@@QEBAHAEBVQString@2@HW4CaseSensitivity@Qt@2@@Z
?indexOf@QStringRef@kso_qt@@QEBAHVQChar@2@HW4CaseSensitivity@Qt@2@@Z
?indexOf@QStringRef@kso_qt@@QEBAHVQLatin1String@2@HW4CaseSensitivity@Qt@2@@Z
?indexOfAnimation@QAnimationGroup@kso_qt@@QEBAHPEAVQAbstractAnimation@2@@Z
?indexOfClassInfo@QMetaObject@kso_qt@@QEBAHPEBD@Z
?indexOfClassInfo@QMetaObjectBuilder@kso_qt@@QEAAHAEBVQByteArray@2@@Z
?indexOfConstructor@QMetaObject@kso_qt@@QEBAHPEBD@Z
?indexOfConstructor@QMetaObjectBuilder@kso_qt@@QEAAHAEBVQByteArray@2@@Z
?indexOfEnumerator@QMetaObject@kso_qt@@QEBAHPEBD@Z
?indexOfEnumerator@QMetaObjectBuilder@kso_qt@@QEAAHAEBVQByteArray@2@@Z
?indexOfIn@QStaticByteArrayMatcherBase@kso_qt@@IEBAHPEBDI0HH@Z
?indexOfMethod@QMetaObject@kso_qt@@QEBAHPEBD@Z
?indexOfMethod@QMetaObjectBuilder@kso_qt@@QEAAHAEBVQByteArray@2@@Z
?indexOfProperty@QMetaObject@kso_qt@@QEBAHPEBD@Z
?indexOfProperty@QMetaObjectBuilder@kso_qt@@QEAAHAEBVQByteArray@2@@Z
?indexOfSignal@QMetaObject@kso_qt@@QEBAHPEBD@Z
?indexOfSignal@QMetaObjectBuilder@kso_qt@@QEAAHAEBVQByteArray@2@@Z
?indexOfSlot@QMetaObject@kso_qt@@QEBAHPEBD@Z
?indexOfSlot@QMetaObjectBuilder@kso_qt@@QEAAHAEBVQByteArray@2@@Z
?indexValid@QAbstractItemModelPrivate@kso_qt@@QEBA_NAEBVQModelIndex@2@@Z
?indexes@QItemSelection@kso_qt@@QEBA?AV?$QList@VQModelIndex@kso_qt@@@2@XZ
?indexes@QItemSelectionRange@kso_qt@@QEBA?AV?$QList@VQModelIndex@kso_qt@@@2@XZ
?info@QMessageLogger@kso_qt@@QEBA?AVQDebug@2@AEBVQLoggingCategory@2@@Z
?info@QMessageLogger@kso_qt@@QEBA?AVQDebug@2@P6AAEBVQLoggingCategory@2@XZ@Z
?info@QMessageLogger@kso_qt@@QEBA?AVQDebug@2@XZ
?info@QMessageLogger@kso_qt@@QEBAXAEBVQLoggingCategory@2@PEBDZZ
?info@QMessageLogger@kso_qt@@QEBAXP6AAEBVQLoggingCategory@2@XZPEBDZZ
?info@QMessageLogger@kso_qt@@QEBAXPEBDZZ
?inherits@QMetaObject@kso_qt@@QEBA_NPEBU12@@Z
?inherits@QMimeType@kso_qt@@QEBA_NAEBVQString@2@@Z
?inherits@QObject@kso_qt@@QEBA_NPEBD@Z
?iniCodec@QSettings@kso_qt@@QEBAPEAVQTextCodec@2@XZ
?iniEscapedKey@QSettingsPrivate@kso_qt@@SAXAEBVQString@2@AEAVQByteArray@2@@Z
?iniEscapedString@QSettingsPrivate@kso_qt@@SAXAEBVQString@2@AEAVQByteArray@2@PEAVQTextCodec@2@@Z
?iniEscapedStringList@QSettingsPrivate@kso_qt@@SAXAEBVQStringList@2@AEAVQByteArray@2@PEAVQTextCodec@2@@Z
?iniUnescapedKey@QSettingsPrivate@kso_qt@@SA_NAEBVQByteArray@2@HHAEAVQString@2@@Z
?iniUnescapedStringList@QSettingsPrivate@kso_qt@@SA_NAEBVQByteArray@2@HHAEAVQString@2@AEAVQStringList@2@PEAVQTextCodec@2@@Z
?init@QCoreApplicationPrivate@kso_qt@@QEAAXXZ
?init@QFSFileEnginePrivate@kso_qt@@IEAAXXZ
?init@QLoggingCategory@kso_qt@@AEAAXPEBDW4QtMsgType@2@@Z
?init@QUtcTimeZonePrivate@kso_qt@@AEAAXAEBVQByteArray@2@@Z
?init@QUtcTimeZonePrivate@kso_qt@@AEAAXAEBVQByteArray@2@HAEBVQString@2@1W4Country@QLocale@2@1@Z
?init@QWinTimeZonePrivate@kso_qt@@AEAAXAEBVQByteArray@2@@Z
?initCharAttributes@QUnicodeTools@kso_qt@@YAXPEBGHPEBUScriptItem@12@HPEAUQCharAttributes@2@V?$QFlags@W4CharAttributeOption@QUnicodeTools@kso_qt@@@2@@Z
?initKey@QSharedMemoryPrivate@kso_qt@@QEAA_NXZ
?initLocale@QCoreApplicationPrivate@kso_qt@@SAXXZ
?initScripts@QUnicodeTools@kso_qt@@YAXPEBGHPEAE@Z
?initialState@QState@kso_qt@@QEBAPEAVQAbstractState@2@XZ
?initialStateChanged@QState@kso_qt@@QEAAXUQPrivateSignal@12@@Z
?initialize@QJsonArray@kso_qt@@AEAAXXZ
?initialize@QJsonObject@kso_qt@@AEAAXXZ
?initializeAnimation@QStateMachinePrivate@kso_qt@@QEAA?AUInitializeAnimationResult@12@PEAVQAbstractAnimation@2@AEBUQPropertyAssignment@2@@Z
?initializeAnimations@QStateMachinePrivate@kso_qt@@QEAAXPEAVQAbstractState@2@AEBV?$QList@PEAVQAbstractAnimation@kso_qt@@@2@AEBV?$QList@PEAVQAbstractState@kso_qt@@@2@AEAV?$QHash@PEAVQAbstractState@kso_qt@@V?$QVector@UQPropertyAssignment@kso_qt@@@2@@2@@Z
?initializeRules@QLoggingRegistry@kso_qt@@QEAAXXZ
?inputChannelMode@QProcess@kso_qt@@QEBA?AW4InputChannelMode@12@XZ
?insert@?$QList@VQItemSelectionRange@kso_qt@@@kso_qt@@QEAA?AViterator@12@V312@AEBVQItemSelectionRange@2@@Z
?insert@?$QList@VQItemSelectionRange@kso_qt@@@kso_qt@@QEAAXHAEBVQItemSelectionRange@2@@Z
?insert@?$QVector@VQPoint@kso_qt@@@kso_qt@@QEAA?AViterator@?$QTypedArrayData@VQPoint@kso_qt@@@2@V342@$$QEAVQPoint@2@@Z
?insert@?$QVector@VQPoint@kso_qt@@@kso_qt@@QEAA?AViterator@?$QTypedArrayData@VQPoint@kso_qt@@@2@V342@AEBVQPoint@2@@Z
?insert@?$QVector@VQPoint@kso_qt@@@kso_qt@@QEAA?AViterator@?$QTypedArrayData@VQPoint@kso_qt@@@2@V342@HAEBVQPoint@2@@Z
?insert@?$QVector@VQPoint@kso_qt@@@kso_qt@@QEAAPEAVQPoint@2@PEAV32@$$QEAV32@@Z
?insert@?$QVector@VQPoint@kso_qt@@@kso_qt@@QEAAPEAVQPoint@2@PEAV32@AEBV32@@Z
?insert@?$QVector@VQPoint@kso_qt@@@kso_qt@@QEAAPEAVQPoint@2@PEAV32@HAEBV32@@Z
?insert@?$QVector@VQPoint@kso_qt@@@kso_qt@@QEAAXH$$QEAVQPoint@2@@Z
?insert@?$QVector@VQPoint@kso_qt@@@kso_qt@@QEAAXHAEBVQPoint@2@@Z
?insert@?$QVector@VQPoint@kso_qt@@@kso_qt@@QEAAXHHAEBVQPoint@2@@Z
?insert@?$QVector@VQPointF@kso_qt@@@kso_qt@@QEAA?AViterator@?$QTypedArrayData@VQPointF@kso_qt@@@2@V342@$$QEAVQPointF@2@@Z
?insert@?$QVector@VQPointF@kso_qt@@@kso_qt@@QEAA?AViterator@?$QTypedArrayData@VQPointF@kso_qt@@@2@V342@AEBVQPointF@2@@Z
?insert@?$QVector@VQPointF@kso_qt@@@kso_qt@@QEAA?AViterator@?$QTypedArrayData@VQPointF@kso_qt@@@2@V342@HAEBVQPointF@2@@Z
?insert@?$QVector@VQPointF@kso_qt@@@kso_qt@@QEAAPEAVQPointF@2@PEAV32@$$QEAV32@@Z
?insert@?$QVector@VQPointF@kso_qt@@@kso_qt@@QEAAPEAVQPointF@2@PEAV32@AEBV32@@Z
?insert@?$QVector@VQPointF@kso_qt@@@kso_qt@@QEAAPEAVQPointF@2@PEAV32@HAEBV32@@Z
?insert@?$QVector@VQPointF@kso_qt@@@kso_qt@@QEAAXH$$QEAVQPointF@2@@Z
?insert@?$QVector@VQPointF@kso_qt@@@kso_qt@@QEAAXHAEBVQPointF@2@@Z
?insert@?$QVector@VQPointF@kso_qt@@@kso_qt@@QEAAXHHAEBVQPointF@2@@Z
?insert@?$QVector@VQXmlStreamAttribute@kso_qt@@@kso_qt@@QEAAPEAVQXmlStreamAttribute@2@PEAV32@$$QEAV32@@Z
?insert@?$QVector@VQXmlStreamAttribute@kso_qt@@@kso_qt@@QEAAPEAVQXmlStreamAttribute@2@PEAV32@AEBV32@@Z
?insert@?$QVector@VQXmlStreamAttribute@kso_qt@@@kso_qt@@QEAAPEAVQXmlStreamAttribute@2@PEAV32@HAEBV32@@Z
?insert@?$QVector@VQXmlStreamAttribute@kso_qt@@@kso_qt@@QEAAXH$$QEAVQXmlStreamAttribute@2@@Z
?insert@?$QVector@VQXmlStreamAttribute@kso_qt@@@kso_qt@@QEAAXHAEBVQXmlStreamAttribute@2@@Z
?insert@?$QVector@VQXmlStreamAttribute@kso_qt@@@kso_qt@@QEAAXHHAEBVQXmlStreamAttribute@2@@Z
?insert@QByteArray@kso_qt@@QEAAAEAV12@HAEBV12@@Z
?insert@QByteArray@kso_qt@@QEAAAEAV12@HAEBVQString@2@@Z
?insert@QByteArray@kso_qt@@QEAAAEAV12@HD@Z
?insert@QByteArray@kso_qt@@QEAAAEAV12@HHD@Z
?insert@QByteArray@kso_qt@@QEAAAEAV12@HPEBD@Z
?insert@QByteArray@kso_qt@@QEAAAEAV12@HPEBDH@Z
?insert@QCborArray@kso_qt@@QEAA?AVIterator@12@V312@AEBVQCborValue@2@@Z
?insert@QCborArray@kso_qt@@QEAA?AVIterator@12@VConstIterator@12@AEBVQCborValue@2@@Z
?insert@QCborArray@kso_qt@@QEAAX_J$$QEAVQCborValue@2@@Z
?insert@QCborArray@kso_qt@@QEAAX_JAEBVQCborValue@2@@Z
?insert@QCborMap@kso_qt@@QEAA?AVIterator@12@AEBVQCborValue@2@0@Z
?insert@QCborMap@kso_qt@@QEAA?AVIterator@12@AEBVQString@2@AEBVQCborValue@2@@Z
?insert@QCborMap@kso_qt@@QEAA?AVIterator@12@U?$QPair@VQCborValue@kso_qt@@V12@@2@@Z
?insert@QCborMap@kso_qt@@QEAA?AVIterator@12@VQLatin1String@2@AEBVQCborValue@2@@Z
?insert@QCborMap@kso_qt@@QEAA?AVIterator@12@_JAEBVQCborValue@2@@Z
?insert@QJsonArray@kso_qt@@QEAA?AViterator@12@V312@AEBVQJsonValue@2@@Z
?insert@QJsonArray@kso_qt@@QEAAXHAEBVQJsonValue@2@@Z
?insert@QJsonObject@kso_qt@@QEAA?AViterator@12@AEBVQString@2@AEBVQJsonValue@2@@Z
?insert@QListData@kso_qt@@QEAAPEAPEAXH@Z
?insert@QProcessEnvironment@kso_qt@@QEAAXAEBV12@@Z
?insert@QProcessEnvironment@kso_qt@@QEAAXAEBVQString@2@0@Z
?insert@QString@kso_qt@@QEAAAEAV12@HAEBV12@@Z
?insert@QString@kso_qt@@QEAAAEAV12@HAEBVQByteArray@2@@Z
?insert@QString@kso_qt@@QEAAAEAV12@HAEBVQStringRef@2@@Z
?insert@QString@kso_qt@@QEAAAEAV12@HPEBD@Z
?insert@QString@kso_qt@@QEAAAEAV12@HPEBVQChar@2@H@Z
?insert@QString@kso_qt@@QEAAAEAV12@HVQChar@2@@Z
?insert@QString@kso_qt@@QEAAAEAV12@HVQLatin1String@2@@Z
?insertAnimation@QAnimationGroup@kso_qt@@QEAAXHPEAVQAbstractAnimation@2@@Z
?insertColumn@QAbstractItemModel@kso_qt@@QEAA_NHAEBVQModelIndex@2@@Z
?insertColumns@QAbstractItemModel@kso_qt@@UEAA_NHHAEBVQModelIndex@2@@Z
?insertColumns@QIdentityProxyModel@kso_qt@@UEAA_NHHAEBVQModelIndex@2@@Z
?insertColumns@QSortFilterProxyModel@kso_qt@@UEAA_NHHAEBVQModelIndex@2@@Z
?insertPause@QSequentialAnimationGroup@kso_qt@@QEAAPEAVQPauseAnimation@2@HH@Z
?insertResultItem@ResultStoreBase@QtPrivate@kso_qt@@IEAAHHAEAVResultItem@23@@Z
?insertResultItemIfValid@ResultStoreBase@QtPrivate@kso_qt@@IEAAXHAEAVResultItem@23@@Z
?insertRow@QAbstractItemModel@kso_qt@@QEAA_NHAEBVQModelIndex@2@@Z
?insertRows@QAbstractItemModel@kso_qt@@UEAA_NHHAEBVQModelIndex@2@@Z
?insertRows@QIdentityProxyModel@kso_qt@@UEAA_NHHAEBVQModelIndex@2@@Z
?insertRows@QSortFilterProxyModel@kso_qt@@UEAA_NHHAEBVQModelIndex@2@@Z
?insertRows@QStringListModel@kso_qt@@UEAA_NHHAEBVQModelIndex@2@@Z
?install@QAnimationDriver@kso_qt@@QEAAXXZ
?installAnimationDriver@QUnifiedTimer@kso_qt@@QEAAXPEAVQAnimationDriver@2@@Z
?installEventFilter@QObject@kso_qt@@QEAAXPEAV12@@Z
?installFilter@QLoggingCategory@kso_qt@@SAP6AXPEAV12@@ZP6AX0@Z@Z
?installFilter@QLoggingRegistry@kso_qt@@QEAAP6AXPEAVQLoggingCategory@2@@ZP6AX0@Z@Z
?installMessageHook@QEventDispatcherWin32@kso_qt@@IEAAXXZ
?installNativeEventFilter@QAbstractEventDispatcher@kso_qt@@QEAAXPEAVQAbstractNativeEventFilter@2@@Z
?installNativeEventFilter@QCoreApplication@kso_qt@@QEAAXPEAVQAbstractNativeEventFilter@2@@Z
?installTranslator@QCoreApplication@kso_qt@@SA_NPEAVQTranslator@2@@Z
?instance@QAbstractEventDispatcher@kso_qt@@SAPEAV12@PEAVQThread@2@@Z
?instance@QCoreApplication@kso_qt@@SAPEAV12@XZ
?instance@QFactoryLoader@kso_qt@@QEBAPEAVQObject@2@H@Z
?instance@QLoggingRegistry@kso_qt@@SAPEAV12@XZ
?instance@QMutexPool@kso_qt@@SAPEAV12@XZ
?instance@QPluginLoader@kso_qt@@QEAAPEAVQObject@2@XZ
?instance@QUnifiedTimer@kso_qt@@SAPEAV12@XZ
?instance@QUnifiedTimer@kso_qt@@SAPEAV12@_N@Z
?integerBase@QTextStream@kso_qt@@QEBAHXZ
?internalHwnd@QEventDispatcherWin32@kso_qt@@QEAAPEAUHWND__@@XZ
?internalId@QModelIndex@kso_qt@@QEBA_KXZ
?internalId@QPersistentModelIndex@kso_qt@@QEBA_KXZ
?internalPointer@QModelIndex@kso_qt@@QEBAPEAXXZ
?internalPointer@QPersistentModelIndex@kso_qt@@QEBAPEAXXZ
?internalSafetyCheckAdd@QtSharedPointer@kso_qt@@YAXPEBXPEDX@Z
?internalSafetyCheckCleanCheck@QtSharedPointer@kso_qt@@YAXXZ
?internalSafetyCheckRemove@QtSharedPointer@kso_qt@@YAXPEBX@Z
?interpolated@QVariantAnimation@kso_qt@@MEBA?AVQVariant@2@AEBV32@0N@Z
?interrupt@QEventDispatcherWin32@kso_qt@@UEAAXXZ
?intersect@QItemSelectionRange@kso_qt@@QEBA?AV12@AEBV12@@Z
?intersect@QLineF@kso_qt@@QEBA?AW4IntersectType@12@AEBV12@PEAVQPointF@2@@Z
?intersect@QRect@kso_qt@@QEBA?AV12@AEBV12@@Z
?intersect@QRectF@kso_qt@@QEBA?AV12@AEBV12@@Z
?intersected@QItemSelectionRange@kso_qt@@QEBA?AV12@AEBV12@@Z
?intersected@QRect@kso_qt@@QEBA?AV12@AEBV12@@Z
?intersected@QRectF@kso_qt@@QEBA?AV12@AEBV12@@Z
?intersects@QItemSelectionRange@kso_qt@@QEBA_NAEBV12@@Z
?intersects@QRect@kso_qt@@QEBA_NAEBV12@@Z
?intersects@QRectF@kso_qt@@QEBA_NAEBV12@@Z
?interval@QTimer@kso_qt@@QEBAHXZ
?intervalAsDuration@QTimer@kso_qt@@QEBA?AV?$duration@_JU?$ratio@$00$0DOI@@std@@@chrono@std@@XZ
?invalidData@QTimeZonePrivate@kso_qt@@SA?AUData@12@XZ
?invalidMSecs@QTimeZonePrivate@kso_qt@@SA_JXZ
?invalidOffsetData@QTimeZonePrivate@kso_qt@@SA?AUOffsetData@QTimeZone@2@XZ
?invalidSeconds@QTimeZonePrivate@kso_qt@@SA_JXZ
?invalidate@QElapsedTimer@kso_qt@@QEAAXXZ
?invalidate@QSortFilterProxyModel@kso_qt@@QEAAXXZ
?invalidateFilter@QSortFilterProxyModel@kso_qt@@IEAAXXZ
?invalidatePersistentIndex@QAbstractItemModelPrivate@kso_qt@@QEAAXAEBVQModelIndex@2@@Z
?invalidatePersistentIndexes@QAbstractItemModelPrivate@kso_qt@@QEAAXXZ
?invoke@QMetaMethod@kso_qt@@QEBA_NPEAVQObject@2@VQGenericArgument@2@111111111@Z
?invoke@QMetaMethod@kso_qt@@QEBA_NPEAVQObject@2@VQGenericReturnArgument@2@VQGenericArgument@2@222222222@Z
?invoke@QMetaMethod@kso_qt@@QEBA_NPEAVQObject@2@W4ConnectionType@Qt@2@VQGenericArgument@2@222222222@Z
?invoke@QMetaMethod@kso_qt@@QEBA_NPEAVQObject@2@W4ConnectionType@Qt@2@VQGenericReturnArgument@2@VQGenericArgument@2@333333333@Z
?invokeMethod@QMetaObject@kso_qt@@SA_NPEAVQObject@2@PEBDVQGenericArgument@2@222222222@Z
?invokeMethod@QMetaObject@kso_qt@@SA_NPEAVQObject@2@PEBDVQGenericReturnArgument@2@VQGenericArgument@2@333333333@Z
?invokeMethod@QMetaObject@kso_qt@@SA_NPEAVQObject@2@PEBDW4ConnectionType@Qt@2@VQGenericArgument@2@333333333@Z
?invokeMethod@QMetaObject@kso_qt@@SA_NPEAVQObject@2@PEBDW4ConnectionType@Qt@2@VQGenericReturnArgument@2@VQGenericArgument@2@444444444@Z
?invokeMethodImpl@QMetaObject@kso_qt@@CA_NPEAVQObject@2@PEAVQSlotObjectBase@QtPrivate@2@W4ConnectionType@Qt@2@PEAX@Z
?invokeOnGadget@QMetaMethod@kso_qt@@QEBA_NPEAXVQGenericArgument@2@111111111@Z
?invokeOnGadget@QMetaMethod@kso_qt@@QEBA_NPEAXVQGenericReturnArgument@2@VQGenericArgument@2@222222222@Z
?isAbsolute@QDir@kso_qt@@QEBA_NXZ
?isAbsolute@QFileInfo@kso_qt@@QEBA_NXZ
?isAbsolutePath@QDir@kso_qt@@SA_NAEBVQString@2@@Z
?isAccepted@QEvent@kso_qt@@QEBA_NXZ
?isActive@QBasicTimer@kso_qt@@QEBA_NXZ
?isActive@QTimer@kso_qt@@QEBA_NXZ
?isAlias@QFileSystemMetaData@kso_qt@@QEBA_NXZ
?isAnimated@QStateMachine@kso_qt@@QEBA_NXZ
?isAnyOfType@QOperatingSystemVersion@kso_qt@@QEBA_NV?$initializer_list@W4OSType@QOperatingSystemVersion@kso_qt@@@std@@@Z
?isArray@QCborStreamReader@kso_qt@@QEBA_NXZ
?isArray@QCborValue@kso_qt@@QEBA_NXZ
?isArray@QCborValueRef@kso_qt@@QEBA_NXZ
?isArray@QJsonDocument@kso_qt@@QEBA_NXZ
?isArray@QJsonValue@kso_qt@@QEBA_NXZ
?isArray@QJsonValueRef@kso_qt@@QEBA_NXZ
?isAscii@QtPrivate@kso_qt@@YA_NVQLatin1String@2@@Z
?isAscii@QtPrivate@kso_qt@@YA_NVQStringView@2@@Z
?isAtBoundary@QTextBoundaryFinder@kso_qt@@QEBA_NXZ
?isAtomic@QStateMachinePrivate@kso_qt@@QEBA_NPEBVQAbstractState@2@@Z
?isAtomicSyncRequired@QSettings@kso_qt@@QEBA_NXZ
?isAttached@QSharedMemory@kso_qt@@QEBA_NXZ
?isBaseChar@QXmlUtils@kso_qt@@CA_NVQChar@2@@Z
?isBool@QCborStreamReader@kso_qt@@QEBA_NXZ
?isBool@QCborValue@kso_qt@@QEBA_NXZ
?isBool@QCborValueRef@kso_qt@@QEBA_NXZ
?isBool@QJsonValue@kso_qt@@QEBA_NXZ
?isBool@QJsonValueRef@kso_qt@@QEBA_NXZ
?isBufferEmpty@QIODevicePrivate@kso_qt@@QEBA_NXZ
?isBuiltinType@QtPrivate@kso_qt@@YA_NAEBVQByteArray@2@@Z
?isBundle@QFileInfo@kso_qt@@QEBA_NXZ
?isBundle@QFileSystemMetaData@kso_qt@@QEBA_NXZ
?isByteArray@QCborStreamReader@kso_qt@@QEBA_NXZ
?isByteArray@QCborValue@kso_qt@@QEBA_NXZ
?isByteArray@QCborValueRef@kso_qt@@QEBA_NXZ
?isCDATA@QXmlStreamReader@kso_qt@@QEBA_NXZ
?isCanceled@QFutureInterfaceBase@kso_qt@@QEBA_NXZ
?isCanceled@QFutureWatcherBase@kso_qt@@QEBA_NXZ
?isChar@QXmlUtils@kso_qt@@SA_NVQChar@2@@Z
?isCharacters@QXmlStreamReader@kso_qt@@QEBA_NXZ
?isColumnSelected@QItemSelectionModel@kso_qt@@QEBA_NHAEBVQModelIndex@2@@Z
?isCombiningChar@QXmlUtils@kso_qt@@CA_NVQChar@2@@Z
?isComment@QXmlStreamReader@kso_qt@@QEBA_NXZ
?isCompound@QStateMachinePrivate@kso_qt@@QEBA_NPEBVQAbstractState@2@@Z
?isCompressed@QResource@kso_qt@@QEBA_NXZ
?isConnected_helper@Connection@QMetaObject@kso_qt@@AEBA_NXZ
?isConstant@QMetaProperty@kso_qt@@QEBA_NXZ
?isConstant@QMetaPropertyBuilder@kso_qt@@QEBA_NXZ
?isContainer@QCborStreamReader@kso_qt@@QEBA_NXZ
?isContainer@QCborValue@kso_qt@@QEBA_NXZ
?isContainer@QCborValueRef@kso_qt@@QEBA_NXZ
?isCriticalEnabled@QLoggingCategory@kso_qt@@QEBA_NXZ
?isDTD@QXmlStreamReader@kso_qt@@QEBA_NXZ
?isDateTime@QCborValue@kso_qt@@QEBA_NXZ
?isDateTime@QCborValueRef@kso_qt@@QEBA_NXZ
?isDaylightTime@QDateTime@kso_qt@@QEBA_NXZ
?isDaylightTime@QTimeZone@kso_qt@@QEBA_NAEBVQDateTime@2@@Z
?isDaylightTime@QTimeZonePrivate@kso_qt@@UEBA_N_J@Z
?isDaylightTime@QWinTimeZonePrivate@kso_qt@@UEBA_N_J@Z
?isDebugBuild@QLibraryInfo@kso_qt@@SA_NXZ
?isDebugEnabled@QLoggingCategory@kso_qt@@QEBA_NXZ
?isDeclarativeSignalConnected@QObjectPrivate@kso_qt@@QEBA_NI@Z
?isDefault@QMimeType@kso_qt@@QEBA_NXZ
?isDefault@QXmlStreamAttribute@kso_qt@@QEBA_NXZ
?isDesignable@QMetaProperty@kso_qt@@QEBA_NPEBVQObject@2@@Z
?isDesignable@QMetaPropertyBuilder@kso_qt@@QEBA_NXZ
?isDetached@?$QList@VQItemSelectionRange@kso_qt@@@kso_qt@@QEBA_NXZ
?isDetached@?$QVector@VQPoint@kso_qt@@@kso_qt@@QEBA_NXZ
?isDetached@?$QVector@VQPointF@kso_qt@@@kso_qt@@QEBA_NXZ
?isDetached@?$QVector@VQXmlStreamAttribute@kso_qt@@@kso_qt@@QEBA_NXZ
?isDetached@QBitArray@kso_qt@@QEBA_NXZ
?isDetached@QByteArray@kso_qt@@QEBA_NXZ
?isDetached@QString@kso_qt@@QEBA_NXZ
?isDetached@QUrl@kso_qt@@QEBA_NXZ
?isDetached@QUrlQuery@kso_qt@@QEBA_NXZ
?isDetached@QVariant@kso_qt@@QEBA_NXZ
?isDigit@QChar@kso_qt@@QEBA_NXZ
?isDigit@QChar@kso_qt@@SA_NI@Z
?isDigit@QCharRef@kso_qt@@QEBA_NXZ
?isDigit@QXmlUtils@kso_qt@@CA_NVQChar@2@@Z
?isDir@QFileInfo@kso_qt@@QEBA_NXZ
?isDir@QResource@kso_qt@@IEBA_NXZ
?isDirectory@QFileSystemMetaData@kso_qt@@QEBA_NXZ
?isDouble@QCborStreamReader@kso_qt@@QEBA_NXZ
?isDouble@QCborValue@kso_qt@@QEBA_NXZ
?isDouble@QCborValueRef@kso_qt@@QEBA_NXZ
?isDouble@QJsonValue@kso_qt@@QEBA_NXZ
?isDouble@QJsonValueRef@kso_qt@@QEBA_NXZ
?isEditable@QMetaProperty@kso_qt@@QEBA_NPEBVQObject@2@@Z
?isEditable@QMetaPropertyBuilder@kso_qt@@QEBA_NXZ
?isEmpty@?$QList@VQItemSelectionRange@kso_qt@@@kso_qt@@QEBA_NXZ
?isEmpty@?$QVector@VQPoint@kso_qt@@@kso_qt@@QEBA_NXZ
?isEmpty@?$QVector@VQPointF@kso_qt@@@kso_qt@@QEBA_NXZ
?isEmpty@?$QVector@VQXmlStreamAttribute@kso_qt@@@kso_qt@@QEBA_NXZ
?isEmpty@QBitArray@kso_qt@@QEBA_NXZ
?isEmpty@QByteArray@kso_qt@@QEBA_NXZ
?isEmpty@QCborArray@kso_qt@@QEBA_NXZ
?isEmpty@QCborMap@kso_qt@@QEBA_NXZ
?isEmpty@QDir@kso_qt@@QEBA_NV?$QFlags@W4Filter@QDir@kso_qt@@@2@@Z
?isEmpty@QItemSelectionRange@kso_qt@@QEBA_NXZ
?isEmpty@QJsonArray@kso_qt@@QEBA_NXZ
?isEmpty@QJsonDocument@kso_qt@@QEBA_NXZ
?isEmpty@QJsonObject@kso_qt@@QEBA_NXZ
?isEmpty@QListData@kso_qt@@QEBA_NXZ
?isEmpty@QObjectCleanupHandler@kso_qt@@QEBA_NXZ
?isEmpty@QProcessEnvironment@kso_qt@@QEBA_NXZ
?isEmpty@QRect@kso_qt@@QEBA_NXZ
?isEmpty@QRectF@kso_qt@@QEBA_NXZ
?isEmpty@QRegExp@kso_qt@@QEBA_NXZ
?isEmpty@QSize@kso_qt@@QEBA_NXZ
?isEmpty@QSizeF@kso_qt@@QEBA_NXZ
?isEmpty@QString@kso_qt@@QEBA_NXZ
?isEmpty@QStringRef@kso_qt@@QEBA_NXZ
?isEmpty@QTranslator@kso_qt@@UEBA_NXZ
?isEmpty@QUrl@kso_qt@@QEBA_NXZ
?isEmpty@QUrlQuery@kso_qt@@QEBA_NXZ
?isEnabled@QLoggingCategory@kso_qt@@QEBA_NW4QtMsgType@2@@Z
?isEnabled@QSocketNotifier@kso_qt@@QEBA_NXZ
?isEnabled@QWinEventNotifier@kso_qt@@QEBA_NXZ
?isEncName@QXmlUtils@kso_qt@@SA_NVQStringView@2@@Z
?isEndDocument@QXmlStreamReader@kso_qt@@QEBA_NXZ
?isEndElement@QXmlStreamReader@kso_qt@@QEBA_NXZ
?isEntityReference@QXmlStreamReader@kso_qt@@QEBA_NXZ
?isEnumOrFlag@QMetaPropertyBuilder@kso_qt@@QEBA_NXZ
?isEnumType@QMetaProperty@kso_qt@@QEBA_NXZ
?isExecutable@QFileInfo@kso_qt@@QEBA_NXZ
?isExtended@QMetaType@kso_qt@@AEBA_NW4ExtensionFlag@12@@Z
?isExtender@QXmlUtils@kso_qt@@CA_NVQChar@2@@Z
?isExternalEventQueueEmpty@QStateMachinePrivate@kso_qt@@QEAA_NXZ
?isFalse@QCborStreamReader@kso_qt@@QEBA_NXZ
?isFalse@QCborValue@kso_qt@@QEBA_NXZ
?isFalse@QCborValueRef@kso_qt@@QEBA_NXZ
?isFile@QFileInfo@kso_qt@@QEBA_NXZ
?isFile@QFileSystemMetaData@kso_qt@@QEBA_NXZ
?isFile@QResource@kso_qt@@IEBA_NXZ
?isFinal@QMetaProperty@kso_qt@@QEBA_NXZ
?isFinal@QMetaPropertyBuilder@kso_qt@@QEBA_NXZ
?isFinal@QStateMachinePrivate@kso_qt@@SA_NPEBVQAbstractState@2@@Z
?isFinished@QFutureInterfaceBase@kso_qt@@QEBA_NXZ
?isFinished@QFutureWatcherBase@kso_qt@@QEBA_NXZ
?isFinished@QThread@kso_qt@@QEBA_NXZ
?isFlag@QMetaEnum@kso_qt@@QEBA_NXZ
?isFlag@QMetaEnumBuilder@kso_qt@@QEBA_NXZ
?isFlagType@QMetaProperty@kso_qt@@QEBA_NXZ
?isFloat16@QCborStreamReader@kso_qt@@QEBA_NXZ
?isFloat@QCborStreamReader@kso_qt@@QEBA_NXZ
?isForever@QDeadlineTimer@kso_qt@@QEBA_NXZ
?isHidden@QCommandLineOption@kso_qt@@QEBA_NXZ
?isHidden@QFileInfo@kso_qt@@QEBA_NXZ
?isHidden@QFileSystemMetaData@kso_qt@@QEBA_NXZ
?isHighSurrogate@QChar@kso_qt@@QEBA_NXZ
?isHighSurrogate@QChar@kso_qt@@SA_NI@Z
?isIdeographic@QXmlUtils@kso_qt@@CA_NVQChar@2@@Z
?isInFinalState@QStateMachinePrivate@kso_qt@@QEBA_NPEAVQAbstractState@2@@Z
?isInfoEnabled@QLoggingCategory@kso_qt@@QEBA_NXZ
?isInteger@QCborStreamReader@kso_qt@@QEBA_NXZ
?isInteger@QCborValue@kso_qt@@QEBA_NXZ
?isInteger@QCborValueRef@kso_qt@@QEBA_NXZ
?isInternalEventQueueEmpty@QStateMachinePrivate@kso_qt@@QEAA_NXZ
?isInterruptionRequested@QThread@kso_qt@@QEBA_NXZ
?isInvalid@QCborStreamReader@kso_qt@@QEBA_NXZ
?isInvalid@QCborValue@kso_qt@@QEBA_NXZ
?isInvalid@QCborValueRef@kso_qt@@QEBA_NXZ
?isLatin1@QtPrivate@kso_qt@@YA_NVQStringView@2@@Z
?isLeapYear@QDate@kso_qt@@SA_NH@Z
?isLegacyLink@QFileSystemMetaData@kso_qt@@QEBA_NXZ
?isLengthKnown@QCborStreamReader@kso_qt@@QEBA_NXZ
?isLetter@QChar@kso_qt@@QEBA_NXZ
?isLetter@QChar@kso_qt@@SA_NI@Z
?isLetter@QCharRef@kso_qt@@QEBA_NXZ
?isLetter@QXmlUtils@kso_qt@@SA_NVQChar@2@@Z
?isLetterOrNumber@QChar@kso_qt@@QEBA_NXZ
?isLetterOrNumber@QChar@kso_qt@@SA_NI@Z
?isLetterOrNumber@QCharRef@kso_qt@@QEAA_NXZ
?isLetterOrNumber_helper@QChar@kso_qt@@CA_NI@Z
?isLetter_helper@QChar@kso_qt@@CA_NI@Z
?isLibrary@QLibrary@kso_qt@@SA_NAEBVQString@2@@Z
?isLink@QFileSystemMetaData@kso_qt@@QEBA_NXZ
?isLnkFile@QFileSystemMetaData@kso_qt@@QEBA_NXZ
?isLoaded@QLibrary@kso_qt@@QEBA_NXZ
?isLoaded@QPluginLoader@kso_qt@@QEBA_NXZ
?isLocalFile@QUrl@kso_qt@@QEBA_NXZ
?isLocked@QLockFile@kso_qt@@QEBA_NXZ
?isLowSurrogate@QChar@kso_qt@@QEBA_NXZ
?isLowSurrogate@QChar@kso_qt@@SA_NI@Z
?isLower@QByteArray@kso_qt@@QEBA_NXZ
?isLower@QChar@kso_qt@@QEBA_NXZ
?isLower@QChar@kso_qt@@SA_NI@Z
?isLower@QCharRef@kso_qt@@QEBA_NXZ
?isLower@QString@kso_qt@@QEBA_NXZ
?isMap@QCborStreamReader@kso_qt@@QEBA_NXZ
?isMap@QCborValue@kso_qt@@QEBA_NXZ
?isMap@QCborValueRef@kso_qt@@QEBA_NXZ
?isMark@QChar@kso_qt@@QEBA_NXZ
?isMark@QChar@kso_qt@@SA_NI@Z
?isMark@QCharRef@kso_qt@@QEBA_NXZ
?isMinimal@QRegExp@kso_qt@@QEBA_NXZ
?isMonotonic@QElapsedTimer@kso_qt@@SA_NXZ
?isMutable@QArrayData@kso_qt@@QEBA_NXZ
?isNCName@QXmlUtils@kso_qt@@SA_NVQStringView@2@@Z
?isNameChar@QXmlUtils@kso_qt@@SA_NVQChar@2@@Z
?isNativePath@QFileInfo@kso_qt@@QEBA_NXZ
?isNegativeInteger@QCborStreamReader@kso_qt@@QEBA_NXZ
?isNonCharacter@QChar@kso_qt@@QEBA_NXZ
?isNonCharacter@QChar@kso_qt@@SA_NI@Z
?isNull@QBitArray@kso_qt@@QEBA_NXZ
?isNull@QByteArray@kso_qt@@QEBA_NXZ
?isNull@QCborStreamReader@kso_qt@@QEBA_NXZ
?isNull@QCborValue@kso_qt@@QEBA_NXZ
?isNull@QCborValueRef@kso_qt@@QEBA_NXZ
?isNull@QChar@kso_qt@@QEBA_NXZ
?isNull@QCharRef@kso_qt@@QEBA_NXZ
?isNull@QDate@kso_qt@@QEBA_NXZ
?isNull@QDateTime@kso_qt@@QEBA_NXZ
?isNull@QJsonDocument@kso_qt@@QEBA_NXZ
?isNull@QJsonValue@kso_qt@@QEBA_NXZ
?isNull@QJsonValueRef@kso_qt@@QEBA_NXZ
?isNull@QLine@kso_qt@@QEBA_NXZ
?isNull@QLineF@kso_qt@@QEBA_NXZ
?isNull@QPoint@kso_qt@@QEBA_NXZ
?isNull@QPointF@kso_qt@@QEBA_NXZ
?isNull@QRect@kso_qt@@QEBA_NXZ
?isNull@QRectF@kso_qt@@QEBA_NXZ
?isNull@QSize@kso_qt@@QEBA_NXZ
?isNull@QSizeF@kso_qt@@QEBA_NXZ
?isNull@QString@kso_qt@@QEBA_NXZ
?isNull@QStringRef@kso_qt@@QEBA_NXZ
?isNull@QTime@kso_qt@@QEBA_NXZ
?isNull@QUuid@kso_qt@@QEBA_NXZ
?isNull@QVariant@kso_qt@@QEBA_NXZ
?isNumber@QChar@kso_qt@@QEBA_NXZ
?isNumber@QChar@kso_qt@@SA_NI@Z
?isNumber@QCharRef@kso_qt@@QEBA_NXZ
?isNumber_helper@QChar@kso_qt@@CA_NI@Z
?isObject@QJsonDocument@kso_qt@@QEBA_NXZ
?isObject@QJsonValue@kso_qt@@QEBA_NXZ
?isObject@QJsonValueRef@kso_qt@@QEBA_NXZ
?isOpen@QIODevice@kso_qt@@QEBA_NXZ
?isParallel@QStateMachinePrivate@kso_qt@@SA_NPEBVQAbstractState@2@@Z
?isParentOf@QUrl@kso_qt@@QEBA_NAEBV12@@Z
?isPaused@QFutureInterfaceBase@kso_qt@@QEBA_NXZ
?isPaused@QFutureWatcherBase@kso_qt@@QEBA_NXZ
?isPipeClosed@QWindowsPipeReader@kso_qt@@QEBA_NXZ
?isPrefixOf@QVersionNumber@kso_qt@@QEBA_NAEBV12@@Z
?isPrint@QChar@kso_qt@@QEBA_NXZ
?isPrint@QChar@kso_qt@@SA_NI@Z
?isPrint@QCharRef@kso_qt@@QEBA_NXZ
?isProcessingInstruction@QXmlStreamReader@kso_qt@@QEBA_NXZ
?isProgressUpdateNeeded@QFutureInterfaceBase@kso_qt@@QEBA_NXZ
?isPublicID@QXmlUtils@kso_qt@@SA_NVQStringView@2@@Z
?isPunct@QChar@kso_qt@@QEBA_NXZ
?isPunct@QChar@kso_qt@@SA_NI@Z
?isPunct@QCharRef@kso_qt@@QEBA_NXZ
?isQuitLockEnabled@QCoreApplication@kso_qt@@SA_NXZ
?isReadOnly@QStorageInfo@kso_qt@@QEBA_NXZ
?isReadOperationActive@QWindowsPipeReader@kso_qt@@QEBA_NXZ
?isReadable@QDir@kso_qt@@QEBA_NXZ
?isReadable@QFileInfo@kso_qt@@QEBA_NXZ
?isReadable@QIODevice@kso_qt@@QEBA_NXZ
?isReadable@QMetaProperty@kso_qt@@QEBA_NXZ
?isReadable@QMetaPropertyBuilder@kso_qt@@QEBA_NXZ
?isReady@QStorageInfo@kso_qt@@QEBA_NXZ
?isRecursive@QBasicMutex@kso_qt@@QEAA_NXZ
?isRecursive@QBasicMutex@kso_qt@@QEBA_NXZ
?isRecursive@QMutex@kso_qt@@QEBA_NXZ
?isRecursiveFilteringEnabled@QSortFilterProxyModel@kso_qt@@QEBA_NXZ
?isRegistered@QMetaType@kso_qt@@QEBA_NXZ
?isRegistered@QMetaType@kso_qt@@SA_NH@Z
?isRegularExpression@QCborValue@kso_qt@@QEBA_NXZ
?isRegularExpression@QCborValueRef@kso_qt@@QEBA_NXZ
?isRelative@QDir@kso_qt@@QEBA_NXZ
?isRelative@QFileInfo@kso_qt@@QEBA_NXZ
?isRelative@QUrl@kso_qt@@QEBA_NXZ
?isRelativePath@QAbstractFileEngine@kso_qt@@UEBA_NXZ
?isRelativePath@QDir@kso_qt@@SA_NAEBVQString@2@@Z
?isRelativePath@QFSFileEngine@kso_qt@@UEBA_NXZ
?isResettable@QMetaProperty@kso_qt@@QEBA_NXZ
?isResettable@QMetaPropertyBuilder@kso_qt@@QEBA_NXZ
?isResultReadyAt@QFutureInterfaceBase@kso_qt@@QEBA_NH@Z
?isRightToLeft@QString@kso_qt@@QEBA_NXZ
?isRightToLeft@QStringRef@kso_qt@@QEBA_NXZ
?isRightToLeft@QtPrivate@kso_qt@@YA_NVQStringView@2@@Z
?isRoot@QDir@kso_qt@@QEBA_NXZ
?isRoot@QFileInfo@kso_qt@@QEBA_NXZ
?isRoot@QStorageInfo@kso_qt@@QEBA_NXZ
?isRootPath@QFileSystemEntry@kso_qt@@SA_NAEBVQString@2@@Z
?isRowSelected@QItemSelectionModel@kso_qt@@QEBA_NHAEBVQModelIndex@2@@Z
?isRunning@QAnimationDriver@kso_qt@@QEBA_NXZ
?isRunning@QEventLoop@kso_qt@@QEBA_NXZ
?isRunning@QFutureInterfaceBase@kso_qt@@QEBA_NXZ
?isRunning@QFutureWatcherBase@kso_qt@@QEBA_NXZ
?isRunning@QStateMachine@kso_qt@@QEBA_NXZ
?isRunning@QThread@kso_qt@@QEBA_NXZ
?isScoped@QMetaEnum@kso_qt@@QEBA_NXZ
?isScoped@QMetaEnumBuilder@kso_qt@@QEBA_NXZ
?isScriptable@QMetaProperty@kso_qt@@QEBA_NPEBVQObject@2@@Z
?isScriptable@QMetaPropertyBuilder@kso_qt@@QEBA_NXZ
?isSelected@QItemSelectionModel@kso_qt@@QEBA_NAEBVQModelIndex@2@@Z
?isSender@QObjectPrivate@kso_qt@@QEBA_NPEBVQObject@2@PEBD@Z
?isSequential@QAbstractFileEngine@kso_qt@@UEBA_NXZ
?isSequential@QFSFileEngine@kso_qt@@UEBA_NXZ
?isSequential@QFileDevice@kso_qt@@UEBA_NXZ
?isSequential@QFileSystemMetaData@kso_qt@@QEBA_NXZ
?isSequential@QIODevice@kso_qt@@UEBA_NXZ
?isSequential@QIODevicePrivate@kso_qt@@QEBA_NXZ
?isSequential@QProcess@kso_qt@@UEBA_NXZ
?isSet@QCommandLineParser@kso_qt@@QEBA_NAEBVQCommandLineOption@2@@Z
?isSet@QCommandLineParser@kso_qt@@QEBA_NAEBVQString@2@@Z
?isSetuidAllowed@QCoreApplication@kso_qt@@SA_NXZ
?isSharedWith@?$QList@VQItemSelectionRange@kso_qt@@@kso_qt@@QEBA_NAEBV12@@Z
?isSharedWith@?$QVector@VQPoint@kso_qt@@@kso_qt@@QEBA_NAEBV12@@Z
?isSharedWith@?$QVector@VQPointF@kso_qt@@@kso_qt@@QEBA_NAEBV12@@Z
?isSharedWith@?$QVector@VQXmlStreamAttribute@kso_qt@@@kso_qt@@QEBA_NAEBV12@@Z
?isSharedWith@QByteArray@kso_qt@@QEBA_NAEBV12@@Z
?isSharedWith@QString@kso_qt@@QEBA_NAEBV12@@Z
?isSignalConnected@QAbstractDeclarativeData@kso_qt@@2P6A_NPEAV12@PEBVQObject@2@H@ZEA
?isSignalConnected@QObject@kso_qt@@IEBA_NAEBVQMetaMethod@2@@Z
?isSignalConnected@QObjectPrivate@kso_qt@@QEBA_NI_N@Z
?isSimpleText@QString@kso_qt@@QEBA_NXZ
?isSimpleType@QCborStreamReader@kso_qt@@QEBA_NW4QCborSimpleType@2@@Z
?isSimpleType@QCborStreamReader@kso_qt@@QEBA_NXZ
?isSimpleType@QCborValue@kso_qt@@QEBA_NW4QCborSimpleType@2@@Z
?isSimpleType@QCborValue@kso_qt@@QEBA_NXZ
?isSimpleType@QCborValueRef@kso_qt@@QEBA_NW4QCborSimpleType@2@@Z
?isSimpleType@QCborValueRef@kso_qt@@QEBA_NXZ
?isSingleShot@QTimer@kso_qt@@QEBA_NXZ
?isSortLocaleAware@QSortFilterProxyModel@kso_qt@@QEBA_NXZ
?isSpace@QChar@kso_qt@@QEBA_NXZ
?isSpace@QChar@kso_qt@@SA_NI@Z
?isSpace@QCharRef@kso_qt@@QEBA_NXZ
?isSpace_helper@QChar@kso_qt@@CA_NI@Z
?isStandaloneDocument@QXmlStreamReader@kso_qt@@QEBA_NXZ
?isStartDocument@QXmlStreamReader@kso_qt@@QEBA_NXZ
?isStartElement@QXmlStreamReader@kso_qt@@QEBA_NXZ
?isStarted@QFutureInterfaceBase@kso_qt@@QEBA_NXZ
?isStarted@QFutureWatcherBase@kso_qt@@QEBA_NXZ
?isStored@QMetaProperty@kso_qt@@QEBA_NPEBVQObject@2@@Z
?isStored@QMetaPropertyBuilder@kso_qt@@QEBA_NXZ
?isString@QCborStreamReader@kso_qt@@QEBA_NXZ
?isString@QCborValue@kso_qt@@QEBA_NXZ
?isString@QCborValueRef@kso_qt@@QEBA_NXZ
?isString@QJsonValue@kso_qt@@QEBA_NXZ
?isString@QJsonValueRef@kso_qt@@QEBA_NXZ
?isSurrogate@QChar@kso_qt@@QEBA_NXZ
?isSurrogate@QChar@kso_qt@@SA_NI@Z
?isSymLink@QFileInfo@kso_qt@@QEBA_NXZ
?isSymbol@QChar@kso_qt@@QEBA_NXZ
?isSymbol@QChar@kso_qt@@SA_NI@Z
?isTag@QCborStreamReader@kso_qt@@QEBA_NXZ
?isTag@QCborValue@kso_qt@@QEBA_NXZ
?isTag@QCborValueRef@kso_qt@@QEBA_NXZ
?isTag_helper@QCborValue@kso_qt@@CA_NW4Type@12@@Z
?isTestModeEnabled@QStandardPaths@kso_qt@@SA_NXZ
?isTextModeEnabled@QIODevice@kso_qt@@QEBA_NXZ
?isThrottled@QFutureInterfaceBase@kso_qt@@QEBA_NXZ
?isTimeZoneIdAvailable@QTimeZone@kso_qt@@SA_NAEBVQByteArray@2@@Z
?isTimeZoneIdAvailable@QTimeZonePrivate@kso_qt@@UEBA_NAEBVQByteArray@2@@Z
?isTimeZoneIdAvailable@QUtcTimeZonePrivate@kso_qt@@UEBA_NAEBVQByteArray@2@@Z
?isTitleCase@QChar@kso_qt@@QEBA_NXZ
?isTitleCase@QChar@kso_qt@@SA_NI@Z
?isTitleCase@QCharRef@kso_qt@@QEBA_NXZ
?isTransactionStarted@QIODevice@kso_qt@@QEBA_NXZ
?isTranslatorInstalled@QCoreApplicationPrivate@kso_qt@@SA_NPEAVQTranslator@2@@Z
?isTrue@QCborStreamReader@kso_qt@@QEBA_NXZ
?isTrue@QCborValue@kso_qt@@QEBA_NXZ
?isTrue@QCborValueRef@kso_qt@@QEBA_NXZ
?isUndefined@QCborStreamReader@kso_qt@@QEBA_NXZ
?isUndefined@QCborValue@kso_qt@@QEBA_NXZ
?isUndefined@QCborValueRef@kso_qt@@QEBA_NXZ
?isUndefined@QJsonValue@kso_qt@@QEBA_NXZ
?isUndefined@QJsonValueRef@kso_qt@@QEBA_NXZ
?isUnnamedFile@QFSFileEngine@kso_qt@@UEBA_NXZ
?isUnsignedInteger@QCborStreamReader@kso_qt@@QEBA_NXZ
?isUpper@QByteArray@kso_qt@@QEBA_NXZ
?isUpper@QChar@kso_qt@@QEBA_NXZ
?isUpper@QChar@kso_qt@@SA_NI@Z
?isUpper@QCharRef@kso_qt@@QEBA_NXZ
?isUpper@QString@kso_qt@@QEBA_NXZ
?isUrl@QCborValue@kso_qt@@QEBA_NXZ
?isUrl@QCborValueRef@kso_qt@@QEBA_NXZ
?isUser@QMetaProperty@kso_qt@@QEBA_NPEBVQObject@2@@Z
?isUser@QMetaPropertyBuilder@kso_qt@@QEBA_NXZ
?isUuid@QCborValue@kso_qt@@QEBA_NXZ
?isUuid@QCborValueRef@kso_qt@@QEBA_NXZ
?isValid@QCborStreamReader@kso_qt@@QEBA_NXZ
?isValid@QDate@kso_qt@@QEBA_NXZ
?isValid@QDate@kso_qt@@SA_NHHH@Z
?isValid@QDateTime@kso_qt@@QEBA_NXZ
?isValid@QElapsedTimer@kso_qt@@QEBA_NXZ
?isValid@QItemSelectionRange@kso_qt@@QEBA_NXZ
?isValid@QMetaEnum@kso_qt@@QEBA_NXZ
?isValid@QMetaMethod@kso_qt@@QEBA_NXZ
?isValid@QMetaProperty@kso_qt@@QEBA_NXZ
?isValid@QMetaType@kso_qt@@QEBA_NXZ
?isValid@QMimeType@kso_qt@@QEBA_NXZ
?isValid@QModelIndex@kso_qt@@QEBA_NXZ
?isValid@QPersistentModelIndex@kso_qt@@QEBA_NXZ
?isValid@QRect@kso_qt@@QEBA_NXZ
?isValid@QRectF@kso_qt@@QEBA_NXZ
?isValid@QRegExp@kso_qt@@QEBA_NXZ
?isValid@QRegularExpression@kso_qt@@QEBA_NXZ
?isValid@QRegularExpressionMatch@kso_qt@@QEBA_NXZ
?isValid@QRegularExpressionMatchIterator@kso_qt@@QEBA_NXZ
?isValid@QResource@kso_qt@@QEBA_NXZ
?isValid@QSize@kso_qt@@QEBA_NXZ
?isValid@QSizeF@kso_qt@@QEBA_NXZ
?isValid@QStorageInfo@kso_qt@@QEBA_NXZ
?isValid@QTemporaryDir@kso_qt@@QEBA_NXZ
?isValid@QTextBoundaryFinder@kso_qt@@QEBA_NXZ
?isValid@QTime@kso_qt@@QEBA_NXZ
?isValid@QTime@kso_qt@@SA_NHHHH@Z
?isValid@QTimeZone@kso_qt@@QEBA_NXZ
?isValid@QTimeZonePrivate@kso_qt@@QEBA_NXZ
?isValid@QUrl@kso_qt@@QEBA_NXZ
?isValid@QVariant@kso_qt@@QEBA_NXZ
?isValidId@QTimeZonePrivate@kso_qt@@SA_NAEBVQByteArray@2@@Z
?isValidIterator@?$QList@VQItemSelectionRange@kso_qt@@@kso_qt@@AEBA_NAEBViterator@12@@Z
?isValidIterator@?$QVector@VQPoint@kso_qt@@@kso_qt@@AEBA_NAEBQEAVQPoint@2@@Z
?isValidIterator@?$QVector@VQPoint@kso_qt@@@kso_qt@@AEBA_NAEBViterator@?$QTypedArrayData@VQPoint@kso_qt@@@2@@Z
?isValidIterator@?$QVector@VQPointF@kso_qt@@@kso_qt@@AEBA_NAEBQEAVQPointF@2@@Z
?isValidIterator@?$QVector@VQPointF@kso_qt@@@kso_qt@@AEBA_NAEBViterator@?$QTypedArrayData@VQPointF@kso_qt@@@2@@Z
?isValidIterator@?$QVector@VQXmlStreamAttribute@kso_qt@@@kso_qt@@AEBA_NAEBQEAVQXmlStreamAttribute@2@@Z
?isVariantLessThan@QAbstractItemModelPrivate@kso_qt@@SA_NAEBVQVariant@2@0W4CaseSensitivity@Qt@2@_N@Z
?isVector@ResultIteratorBase@QtPrivate@kso_qt@@QEBA_NXZ
?isWarningEnabled@QLoggingCategory@kso_qt@@QEBA_NXZ
?isWhitespace@QXmlStreamReader@kso_qt@@QEBA_NXZ
?isWidgetType@QObject@kso_qt@@QEBA_NXZ
?isWindowType@QObject@kso_qt@@QEBA_NXZ
?isWritable@QConfFile@kso_qt@@QEBA_NXZ
?isWritable@QFileInfo@kso_qt@@QEBA_NXZ
?isWritable@QIODevice@kso_qt@@QEBA_NXZ
?isWritable@QMetaProperty@kso_qt@@QEBA_NXZ
?isWritable@QMetaPropertyBuilder@kso_qt@@QEBA_NXZ
?isWritable@QSettings@kso_qt@@QEBA_NXZ
?isWriteOperationActive@QWindowsPipeWriter@kso_qt@@QEBA_NXZ
?is_app_closing@QCoreApplicationPrivate@kso_qt@@2_NA
?is_app_running@QCoreApplicationPrivate@kso_qt@@2_NA
?isoOffsetFormat@QTimeZonePrivate@kso_qt@@SA?AVQString@2@H@Z
?itemData@QAbstractItemModel@kso_qt@@UEBA?AV?$QMap@HVQVariant@kso_qt@@@2@AEBVQModelIndex@2@@Z
?itemData@QAbstractProxyModel@kso_qt@@UEBA?AV?$QMap@HVQVariant@kso_qt@@@2@AEBVQModelIndex@2@@Z
?itemsAboutToBeMoved@QAbstractItemModelPrivate@kso_qt@@QEAAXAEBVQModelIndex@2@HH0HW4Orientation@Qt@2@@Z
?itemsMoved@QAbstractItemModelPrivate@kso_qt@@QEAAXAEBVQModelIndex@2@HH0HW4Orientation@Qt@2@@Z
?joining@QChar@kso_qt@@QEBA?AW4Joining@12@XZ
?joining@QChar@kso_qt@@SA?AW4Joining@12@I@Z
?joining@QCharRef@kso_qt@@QEBA?AW4Joining@QChar@2@XZ
?joiningType@QChar@kso_qt@@QEBA?AW4JoiningType@12@XZ
?joiningType@QChar@kso_qt@@SA?AW4JoiningType@12@I@Z
?joiningType@QCharRef@kso_qt@@QEBA?AW4JoiningType@QChar@2@XZ
?kernelType@QSysInfo@kso_qt@@SA?AVQString@2@XZ
?kernelVersion@QSysInfo@kso_qt@@SA?AVQString@2@XZ
?key@QMetaEnum@kso_qt@@QEBAPEBDH@Z
?key@QMetaEnumBuilder@kso_qt@@QEBA?AVQByteArray@2@H@Z
?key@QSharedMemory@kso_qt@@QEBA?AVQString@2@XZ
?key@QSystemSemaphore@kso_qt@@QEBA?AVQString@2@XZ
?key@const_iterator@QAssociativeIterable@kso_qt@@QEBA?BVQVariant@3@XZ
?keyAt@QJsonObject@kso_qt@@AEBA?AVQString@2@H@Z
?keyCount@QMetaEnum@kso_qt@@QEBAHXZ
?keyCount@QMetaEnumBuilder@kso_qt@@QEBAHXZ
?keyInputSourceID@QLocale@kso_qt@@QEBA?AVQString@2@XZ
?keyInputSourceID@QLocalePrivate@kso_qt@@QEBA?AVQString@2@XZ
?keyMap@QFactoryLoader@kso_qt@@QEBA?AV?$QMultiMap@HVQString@kso_qt@@@2@XZ
?keyToValue@QMetaEnum@kso_qt@@QEBAHPEBDPEA_N@Z
?keyValueAt@QVariantAnimation@kso_qt@@QEBA?AVQVariant@2@N@Z
?keyValues@QVariantAnimation@kso_qt@@QEBA?AV?$QVector@U?$QPair@NVQVariant@kso_qt@@@kso_qt@@@2@XZ
?keys@QCborMap@kso_qt@@QEBA?AV?$QVector@VQCborValue@kso_qt@@@2@XZ
?keys@QJsonObject@kso_qt@@QEBA?AVQStringList@2@XZ
?keys@QProcessEnvironment@kso_qt@@QEBA?AVQStringList@2@XZ
?keysToValue@QMetaEnum@kso_qt@@QEBAHPEBDPEA_N@Z
?kill@QProcess@kso_qt@@QEAAXXZ
?killTimer@QObject@kso_qt@@QEAAXH@Z
?killTimer@QTimer@kso_qt@@AEAAXH@Z
?language@QLocale@kso_qt@@QEBA?AW4Language@12@XZ
?languageCode@QLocalePrivate@kso_qt@@QEBA?AVQLatin1String@2@XZ
?languageId@QLocalePrivate@kso_qt@@QEBAGXZ
?languageToCode@QLocalePrivate@kso_qt@@SA?AVQLatin1String@2@W4Language@QLocale@2@@Z
?languageToString@QLocale@kso_qt@@SA?AVQString@2@W4Language@12@@Z
?last@?$QList@VQItemSelectionRange@kso_qt@@@kso_qt@@QEAAAEAVQItemSelectionRange@2@XZ
?last@?$QList@VQItemSelectionRange@kso_qt@@@kso_qt@@QEBAAEBVQItemSelectionRange@2@XZ
?last@?$QVector@VQPoint@kso_qt@@@kso_qt@@QEAAAEAVQPoint@2@XZ
?last@?$QVector@VQPoint@kso_qt@@@kso_qt@@QEBAAEBVQPoint@2@XZ
?last@?$QVector@VQPointF@kso_qt@@@kso_qt@@QEAAAEAVQPointF@2@XZ
?last@?$QVector@VQPointF@kso_qt@@@kso_qt@@QEBAAEBVQPointF@2@XZ
?last@?$QVector@VQXmlStreamAttribute@kso_qt@@@kso_qt@@QEAAAEAVQXmlStreamAttribute@2@XZ
?last@?$QVector@VQXmlStreamAttribute@kso_qt@@@kso_qt@@QEBAAEBVQXmlStreamAttribute@2@XZ
?last@QCborArray@kso_qt@@QEAA?AVQCborValueRef@2@XZ
?last@QCborArray@kso_qt@@QEBA?AVQCborValue@2@XZ
?last@QJsonArray@kso_qt@@QEBA?AVQJsonValue@2@XZ
?lastCapturedIndex@QRegularExpressionMatch@kso_qt@@QEBAHXZ
?lastError@QCborStreamReader@kso_qt@@QEAA?AUQCborError@2@XZ
?lastIndexIn@QRegExp@kso_qt@@QEBAHAEBVQString@2@HW4CaretMode@12@@Z
?lastIndexOf@?$QList@VQItemSelectionRange@kso_qt@@@kso_qt@@QEBAHAEBVQItemSelectionRange@2@H@Z
?lastIndexOf@?$QVector@VQPoint@kso_qt@@@kso_qt@@QEBAHAEBVQPoint@2@H@Z
?lastIndexOf@?$QVector@VQPointF@kso_qt@@@kso_qt@@QEBAHAEBVQPointF@2@H@Z
?lastIndexOf@?$QVector@VQXmlStreamAttribute@kso_qt@@@kso_qt@@QEBAHAEBVQXmlStreamAttribute@2@H@Z
?lastIndexOf@QByteArray@kso_qt@@QEBAHAEBV12@H@Z
?lastIndexOf@QByteArray@kso_qt@@QEBAHAEBVQString@2@H@Z
?lastIndexOf@QByteArray@kso_qt@@QEBAHDH@Z
?lastIndexOf@QByteArray@kso_qt@@QEBAHPEBDH@Z
?lastIndexOf@QString@kso_qt@@QEBAHAEAVQRegExp@2@H@Z
?lastIndexOf@QString@kso_qt@@QEBAHAEBV12@HW4CaseSensitivity@Qt@2@@Z
?lastIndexOf@QString@kso_qt@@QEBAHAEBVQRegExp@2@H@Z
?lastIndexOf@QString@kso_qt@@QEBAHAEBVQRegularExpression@2@H@Z
?lastIndexOf@QString@kso_qt@@QEBAHAEBVQRegularExpression@2@HPEAVQRegularExpressionMatch@2@@Z
?lastIndexOf@QString@kso_qt@@QEBAHAEBVQStringRef@2@HW4CaseSensitivity@Qt@2@@Z
?lastIndexOf@QString@kso_qt@@QEBAHVQChar@2@HW4CaseSensitivity@Qt@2@@Z
?lastIndexOf@QString@kso_qt@@QEBAHVQLatin1String@2@HW4CaseSensitivity@Qt@2@@Z
?lastIndexOf@QStringRef@kso_qt@@QEBAHAEBV12@HW4CaseSensitivity@Qt@2@@Z
?lastIndexOf@QStringRef@kso_qt@@QEBAHAEBVQString@2@HW4CaseSensitivity@Qt@2@@Z
?lastIndexOf@QStringRef@kso_qt@@QEBAHVQChar@2@HW4CaseSensitivity@Qt@2@@Z
?lastIndexOf@QStringRef@kso_qt@@QEBAHVQLatin1String@2@HW4CaseSensitivity@Qt@2@@Z
?lastModified@QFileInfo@kso_qt@@QEBA?AVQDateTime@2@XZ
?lastModified@QResource@kso_qt@@QEBA?AVQDateTime@2@XZ
?lastRead@QFileInfo@kso_qt@@QEBA?AVQDateTime@2@XZ
?layoutAboutToBeChanged@QAbstractItemModel@kso_qt@@QEAAXAEBV?$QList@VQPersistentModelIndex@kso_qt@@@2@W4LayoutChangeHint@12@@Z
?layoutChanged@QAbstractItemModel@kso_qt@@QEAAXAEBV?$QList@VQPersistentModelIndex@kso_qt@@@2@W4LayoutChangeHint@12@@Z
?leaveContainer@QCborStreamReader@kso_qt@@QEAA_NXZ
?left@QByteArray@kso_qt@@QEBA?AV12@H@Z
?left@QItemSelectionRange@kso_qt@@QEBAHXZ
?left@QRect@kso_qt@@QEBAHXZ
?left@QRectF@kso_qt@@QEBANXZ
?left@QString@kso_qt@@QEBA?AV12@H@Z
?left@QStringRef@kso_qt@@QEBA?AV12@H@Z
?left@kso_qt@@YAAEAVQTextStream@1@AEAV21@@Z
?leftJustified@QByteArray@kso_qt@@QEBA?AV12@HD_N@Z
?leftJustified@QString@kso_qt@@QEBA?AV12@HVQChar@2@_N@Z
?leftRef@QString@kso_qt@@QEBA?AVQStringRef@2@H@Z
?length@?$QList@VQItemSelectionRange@kso_qt@@@kso_qt@@QEBAHXZ
?length@?$QVector@VQPoint@kso_qt@@@kso_qt@@QEBAHXZ
?length@?$QVector@VQPointF@kso_qt@@@kso_qt@@QEBAHXZ
?length@?$QVector@VQXmlStreamAttribute@kso_qt@@@kso_qt@@QEBAHXZ
?length@QByteArray@kso_qt@@QEBAHXZ
?length@QCborStreamReader@kso_qt@@QEBA_KXZ
?length@QJsonObject@kso_qt@@QEBAHXZ
?length@QLineF@kso_qt@@QEBANXZ
?length@QString@kso_qt@@QEBAHXZ
?length@QStringRef@kso_qt@@QEBAHXZ
?lessThan@QSortFilterProxyModel@kso_qt@@MEBA_NAEBVQModelIndex@2@0@Z
?libraryPaths@QCoreApplication@kso_qt@@SA?AVQStringList@2@XZ
?licensedProducts@QLibraryInfo@kso_qt@@SA?AVQString@2@XZ
?licensee@QLibraryInfo@kso_qt@@SA?AVQString@2@XZ
?lineBreakClass@QUnicodeTables@kso_qt@@YA?AW4LineBreakClass@12@I@Z
?lineNumber@QXmlStreamReader@kso_qt@@QEBA_JXZ
?link@QAbstractFileEngine@kso_qt@@UEAA_NAEBVQString@2@@Z
?link@QFSFileEngine@kso_qt@@UEAA_NAEBVQString@2@@Z
?link@QFile@kso_qt@@QEAA_NAEBVQString@2@@Z
?link@QFile@kso_qt@@SA_NAEBVQString@2@0@Z
?list@QLocalePrivate@kso_qt@@QEBA?AVQChar@2@XZ
?listSeparator@QDir@kso_qt@@SA?AVQChar@2@XZ
?load@QLibrary@kso_qt@@QEAA_NXZ
?load@QMetaType@kso_qt@@SA_NAEAVQDataStream@2@HPEAX@Z
?load@QPluginLoader@kso_qt@@QEAA_NXZ
?load@QSystemLibrary@kso_qt@@SAPEAUHINSTANCE__@@PEB_W_N@Z
?load@QTranslator@kso_qt@@QEAA_NAEBVQLocale@2@AEBVQString@2@111@Z
?load@QTranslator@kso_qt@@QEAA_NAEBVQString@2@000@Z
?load@QTranslator@kso_qt@@QEAA_NPEBEHAEBVQString@2@@Z
?load@QVariant@kso_qt@@QEAAXAEAVQDataStream@2@@Z
?loadHints@QLibrary@kso_qt@@QEBA?AV?$QFlags@W4LoadHint@QLibrary@kso_qt@@@2@XZ
?loadHints@QPluginLoader@kso_qt@@QEBA?AV?$QFlags@W4LoadHint@QLibrary@kso_qt@@@2@XZ
?localRestart@QUnifiedTimer@kso_qt@@AEAAXXZ
?locale@QCollator@kso_qt@@QEBA?AVQLocale@2@XZ
?locale@QDateTimeParser@kso_qt@@MEBA?AVQLocale@2@XZ
?locale@QResource@kso_qt@@QEBA?AVQLocale@2@XZ
?locale@QTextStream@kso_qt@@QEBA?AVQLocale@2@XZ
?localeAwareCompare@QString@kso_qt@@QEBAHAEBV12@@Z
?localeAwareCompare@QString@kso_qt@@QEBAHAEBVQStringRef@2@@Z
?localeAwareCompare@QString@kso_qt@@SAHAEBV12@0@Z
?localeAwareCompare@QString@kso_qt@@SAHAEBV12@AEBVQStringRef@2@@Z
?localeAwareCompare@QStringRef@kso_qt@@QEBAHAEBV12@@Z
?localeAwareCompare@QStringRef@kso_qt@@QEBAHAEBVQString@2@@Z
?localeAwareCompare@QStringRef@kso_qt@@SAHAEBV12@0@Z
?localeAwareCompare@QStringRef@kso_qt@@SAHAEBV12@AEBVQString@2@@Z
?localeAwareCompare_helper@QString@kso_qt@@CAHPEBVQChar@2@H0H@Z
?locate@QStandardPaths@kso_qt@@SA?AVQString@2@W4StandardLocation@12@AEBV32@V?$QFlags@W4LocateOption@QStandardPaths@kso_qt@@@2@@Z
?locateAll@QStandardPaths@kso_qt@@SA?AVQStringList@2@W4StandardLocation@12@AEBVQString@2@V?$QFlags@W4LocateOption@QStandardPaths@kso_qt@@@2@@Z
?location@QLibraryInfo@kso_qt@@SA?AVQString@2@W4LibraryLocation@12@@Z
?lock@QBasicMutex@kso_qt@@QEAAXXZ
?lock@QLockFile@kso_qt@@QEAA_NXZ
?lock@QMutex@kso_qt@@QEAAXXZ
?lock@QSharedMemory@kso_qt@@QEAA_NXZ
?lockForRead@QReadWriteLock@kso_qt@@QEAAXXZ
?lockForWrite@QReadWriteLock@kso_qt@@QEAAXXZ
?lockInternal@QBasicMutex@kso_qt@@AEAAXXZ
?lockInternal@QBasicMutex@kso_qt@@AEAA_NH@Z
?longDayName@QDate@kso_qt@@SA?AVQString@2@HW4MonthNameType@12@@Z
?longFileName@QFSFileEnginePrivate@kso_qt@@SA?AVQString@2@AEBV32@@Z
?longMonthName@QDate@kso_qt@@SA?AVQString@2@HW4MonthNameType@12@@Z
?loopCount@QAbstractAnimation@kso_qt@@QEBAHXZ
?loopCount@QTimeLine@kso_qt@@QEBAHXZ
?loopLevel@QDeferredDeleteEvent@kso_qt@@QEBAHXZ
?loopLevel@QThread@kso_qt@@QEBAHXZ
?lowSurrogate@QChar@kso_qt@@SAGI@Z
?lowercasebase@kso_qt@@YAAEAVQTextStream@1@AEAV21@@Z
?lowercasedigits@kso_qt@@YAAEAVQTextStream@1@AEAV21@@Z
?macVersion@QSysInfo@kso_qt@@SA?AW4MacVersion@12@XZ
?machine@QAbstractState@kso_qt@@QEBAPEAVQStateMachine@2@XZ
?machine@QAbstractTransition@kso_qt@@QEBAPEAVQStateMachine@2@XZ
?machine@QAbstractTransitionPrivate@kso_qt@@QEBAPEAVQStateMachine@2@XZ
?machineHostName@QSysInfo@kso_qt@@SA?AVQString@2@XZ
?machineUniqueId@QSysInfo@kso_qt@@SA?AVQByteArray@2@XZ
?mainThread@QCoreApplicationPrivate@kso_qt@@SAPEAVQThread@2@XZ
?majorVersion@QOperatingSystemVersion@kso_qt@@QEBAHXZ
?makeAbsolute@QDir@kso_qt@@QEAA_NXZ
?makeAbsolute@QFileInfo@kso_qt@@QEAA_NXZ
?makeDecoder@QTextCodec@kso_qt@@QEBAPEAVQTextDecoder@2@V?$QFlags@W4ConversionFlag@QTextCodec@kso_qt@@@2@@Z
?makeEncoder@QTextCodec@kso_qt@@QEBAPEAVQTextEncoder@2@V?$QFlags@W4ConversionFlag@QTextCodec@kso_qt@@@2@@Z
?makePlatformSafeKey@QSharedMemoryPrivate@kso_qt@@SA?AVQString@2@AEBV32@0@Z
?manhattanLength@QPoint@kso_qt@@QEBAHXZ
?manhattanLength@QPointF@kso_qt@@QEBANXZ
?mantissatable@qfloat16@kso_qt@@0QBIB
?map@QAbstractFileEngine@kso_qt@@QEAAPEAE_J0W4MemoryMapFlags@QFileDevice@2@@Z
?map@QFSFileEnginePrivate@kso_qt@@QEAAPEAE_J0W4MemoryMapFlags@QFileDevice@2@@Z
?map@QFileDevice@kso_qt@@QEAAPEAE_J0W4MemoryMapFlags@12@@Z
?map@QSignalMapper@kso_qt@@QEAAXPEAVQObject@2@@Z
?map@QSignalMapper@kso_qt@@QEAAXXZ
?mapDropCoordinatesToSource@QAbstractProxyModelPrivate@kso_qt@@QEBAXHHAEBVQModelIndex@2@PEAH1PEAV32@@Z
?mapFromSource@QIdentityProxyModel@kso_qt@@UEBA?AVQModelIndex@2@AEBV32@@Z
?mapFromSource@QSortFilterProxyModel@kso_qt@@UEBA?AVQModelIndex@2@AEBV32@@Z
?mapSelectionFromSource@QAbstractProxyModel@kso_qt@@UEBA?AVQItemSelection@2@AEBV32@@Z
?mapSelectionFromSource@QIdentityProxyModel@kso_qt@@UEBA?AVQItemSelection@2@AEBV32@@Z
?mapSelectionFromSource@QSortFilterProxyModel@kso_qt@@UEBA?AVQItemSelection@2@AEBV32@@Z
?mapSelectionToSource@QAbstractProxyModel@kso_qt@@UEBA?AVQItemSelection@2@AEBV32@@Z
?mapSelectionToSource@QIdentityProxyModel@kso_qt@@UEBA?AVQItemSelection@2@AEBV32@@Z
?mapSelectionToSource@QSortFilterProxyModel@kso_qt@@UEBA?AVQItemSelection@2@AEBV32@@Z
?mapToSource@QIdentityProxyModel@kso_qt@@UEBA?AVQModelIndex@2@AEBV32@@Z
?mapToSource@QSortFilterProxyModel@kso_qt@@UEBA?AVQModelIndex@2@AEBV32@@Z
?mapped@QSignalMapper@kso_qt@@QEAAXAEBVQString@2@@Z
?mapped@QSignalMapper@kso_qt@@QEAAXH@Z
?mapped@QSignalMapper@kso_qt@@QEAAXPEAVQObject@2@@Z
?mapped@QSignalMapper@kso_qt@@QEAAXPEAVQWidget@2@@Z
?mapping@QSignalMapper@kso_qt@@QEBAPEAVQObject@2@AEBVQString@2@@Z
?mapping@QSignalMapper@kso_qt@@QEBAPEAVQObject@2@H@Z
?mapping@QSignalMapper@kso_qt@@QEBAPEAVQObject@2@PEAV32@@Z
?mapping@QSignalMapper@kso_qt@@QEBAPEAVQObject@2@PEAVQWidget@2@@Z
?marginsAdded@QRect@kso_qt@@QEBA?AV12@AEBVQMargins@2@@Z
?marginsAdded@QRectF@kso_qt@@QEBA?AV12@AEBVQMarginsF@2@@Z
?marginsRemoved@QRect@kso_qt@@QEBA?AV12@AEBVQMargins@2@@Z
?marginsRemoved@QRectF@kso_qt@@QEBA?AV12@AEBVQMarginsF@2@@Z
?match@QAbstractItemModel@kso_qt@@UEBA?AV?$QList@VQModelIndex@kso_qt@@@2@AEBVQModelIndex@2@HAEBVQVariant@2@HV?$QFlags@W4MatchFlag@Qt@kso_qt@@@2@@Z
?match@QDir@kso_qt@@SA_NAEBVQString@2@0@Z
?match@QDir@kso_qt@@SA_NAEBVQStringList@2@AEBVQString@2@@Z
?match@QIdentityProxyModel@kso_qt@@UEBA?AV?$QList@VQModelIndex@kso_qt@@@2@AEBVQModelIndex@2@HAEBVQVariant@2@HV?$QFlags@W4MatchFlag@Qt@kso_qt@@@2@@Z
?match@QRegularExpression@kso_qt@@QEBA?AVQRegularExpressionMatch@2@AEBVQString@2@HW4MatchType@12@V?$QFlags@W4MatchOption@QRegularExpression@kso_qt@@@2@@Z
?match@QRegularExpression@kso_qt@@QEBA?AVQRegularExpressionMatch@2@AEBVQStringRef@2@HW4MatchType@12@V?$QFlags@W4MatchOption@QRegularExpression@kso_qt@@@2@@Z
?match@QSortFilterProxyModel@kso_qt@@UEBA?AV?$QList@VQModelIndex@kso_qt@@@2@AEBVQModelIndex@2@HAEBVQVariant@2@HV?$QFlags@W4MatchFlag@Qt@kso_qt@@@2@@Z
?matchOptions@QRegularExpressionMatch@kso_qt@@QEBA?AV?$QFlags@W4MatchOption@QRegularExpression@kso_qt@@@2@XZ
?matchOptions@QRegularExpressionMatchIterator@kso_qt@@QEBA?AV?$QFlags@W4MatchOption@QRegularExpression@kso_qt@@@2@XZ
?matchType@QRegularExpressionMatch@kso_qt@@QEBA?AW4MatchType@QRegularExpression@2@XZ
?matchType@QRegularExpressionMatchIterator@kso_qt@@QEBA?AW4MatchType@QRegularExpression@2@XZ
?matchedLength@QRegExp@kso_qt@@QEBAHXZ
?matches@QUrl@kso_qt@@QEBA_NAEBV12@V?$QUrlTwoFlags@W4UrlFormattingOption@QUrl@kso_qt@@W4ComponentFormattingOption@23@@2@@Z
?matchingLocales@QLocale@kso_qt@@SA?AV?$QList@VQLocale@kso_qt@@@2@W4Language@12@W4Script@12@W4Country@12@@Z
?maxChange@SectionNode@QDateTimeParser@kso_qt@@QEBAHXZ
?maxJd@QDate@kso_qt@@CA_JXZ
?maxMSecs@QTimeZonePrivate@kso_qt@@SA_JXZ
?maxReadBufferSize@QWindowsPipeReader@kso_qt@@QEBA_JXZ
?maxThreadCount@QThreadPool@kso_qt@@QEBAHXZ
?maybeQuit@QCoreApplicationPrivate@kso_qt@@QEAAXXZ
?maybeQuote@QDebug@kso_qt@@QEAAAEAV12@D@Z
?maybeRegister@QEventTransitionPrivate@kso_qt@@QEAAXXZ
?maybeRegisterEventTransition@QStateMachinePrivate@kso_qt@@QEAAXPEAVQEventTransition@2@@Z
?maybeRegisterSignalTransition@QStateMachinePrivate@kso_qt@@QEAAXPEAVQSignalTransition@2@@Z
?maybeRegisterTransition@QStateMachinePrivate@kso_qt@@QEAAXPEAVQAbstractTransition@2@@Z
?maybeSpace@QDebug@kso_qt@@QEAAAEAV12@XZ
?maybeUpdateAnimationsToCurrentTime@QUnifiedTimer@kso_qt@@QEAAXXZ
?measurementSystem@QLocale@kso_qt@@QEBA?AW4MeasurementSystem@12@XZ
?measurementSystem@QLocalePrivate@kso_qt@@QEBA?AW4MeasurementSystem@QLocale@2@XZ
?merge@QItemSelection@kso_qt@@QEAAXAEBV12@V?$QFlags@W4SelectionFlag@QItemSelectionModel@kso_qt@@@2@@Z
?mergedKeyMap@QConfFile@kso_qt@@QEBA?AV?$QMap@VQSettingsKey@kso_qt@@VQVariant@2@@2@XZ
?metaCall@QAbstractDynamicMetaObject@kso_qt@@UEAAHPEAVQObject@2@W4Call@QMetaObject@2@HPEAPEAX@Z
?metaCall@QAbstractDynamicMetaObject@kso_qt@@UEAAHW4Call@QMetaObject@2@HPEAPEAX@Z
?metaData@QFactoryLoader@kso_qt@@QEBA?AV?$QList@VQJsonObject@kso_qt@@@2@XZ
?metaData@QPluginLoader@kso_qt@@QEBA?AVQJsonObject@2@XZ
?metaData@QStaticPlugin@kso_qt@@QEBA?AVQJsonObject@2@XZ
?metaObject@QAbstractAnimation@kso_qt@@UEBAPEBUQMetaObject@2@XZ
?metaObject@QAbstractAnimationTimer@kso_qt@@UEBAPEBUQMetaObject@2@XZ
?metaObject@QAbstractEventDispatcher@kso_qt@@UEBAPEBUQMetaObject@2@XZ
?metaObject@QAbstractItemModel@kso_qt@@UEBAPEBUQMetaObject@2@XZ
?metaObject@QAbstractListModel@kso_qt@@UEBAPEBUQMetaObject@2@XZ
?metaObject@QAbstractProxyModel@kso_qt@@UEBAPEBUQMetaObject@2@XZ
?metaObject@QAbstractState@kso_qt@@UEBAPEBUQMetaObject@2@XZ
?metaObject@QAbstractTableModel@kso_qt@@UEBAPEBUQMetaObject@2@XZ
?metaObject@QAbstractTransition@kso_qt@@UEBAPEBUQMetaObject@2@XZ
?metaObject@QAnimationDriver@kso_qt@@UEBAPEBUQMetaObject@2@XZ
?metaObject@QAnimationGroup@kso_qt@@UEBAPEBUQMetaObject@2@XZ
?metaObject@QBuffer@kso_qt@@UEBAPEBUQMetaObject@2@XZ
?metaObject@QCoreApplication@kso_qt@@UEBAPEBUQMetaObject@2@XZ
?metaObject@QEventDispatcherWin32@kso_qt@@UEBAPEBUQMetaObject@2@XZ
?metaObject@QEventLoop@kso_qt@@UEBAPEBUQMetaObject@2@XZ
?metaObject@QEventTransition@kso_qt@@UEBAPEBUQMetaObject@2@XZ
?metaObject@QFactoryLoader@kso_qt@@UEBAPEBUQMetaObject@2@XZ
?metaObject@QFile@kso_qt@@UEBAPEBUQMetaObject@2@XZ
?metaObject@QFileDevice@kso_qt@@UEBAPEBUQMetaObject@2@XZ
?metaObject@QFileSelector@kso_qt@@UEBAPEBUQMetaObject@2@XZ
?metaObject@QFileSystemWatcher@kso_qt@@UEBAPEBUQMetaObject@2@XZ
?metaObject@QFinalState@kso_qt@@UEBAPEBUQMetaObject@2@XZ
?metaObject@QFutureWatcherBase@kso_qt@@UEBAPEBUQMetaObject@2@XZ
?metaObject@QHistoryState@kso_qt@@UEBAPEBUQMetaObject@2@XZ
?metaObject@QIODevice@kso_qt@@UEBAPEBUQMetaObject@2@XZ
?metaObject@QIdentityProxyModel@kso_qt@@UEBAPEBUQMetaObject@2@XZ
?metaObject@QItemSelectionModel@kso_qt@@UEBAPEBUQMetaObject@2@XZ
?metaObject@QLibrary@kso_qt@@UEBAPEBUQMetaObject@2@XZ
?metaObject@QMetaType@kso_qt@@QEBAPEBUQMetaObject@2@XZ
?metaObject@QMimeData@kso_qt@@UEBAPEBUQMetaObject@2@XZ
?metaObject@QNonContiguousByteDevice@kso_qt@@UEBAPEBUQMetaObject@2@XZ
?metaObject@QObject@kso_qt@@UEBAPEBUQMetaObject@2@XZ
?metaObject@QObjectCleanupHandler@kso_qt@@UEBAPEBUQMetaObject@2@XZ
?metaObject@QParallelAnimationGroup@kso_qt@@UEBAPEBUQMetaObject@2@XZ
?metaObject@QPauseAnimation@kso_qt@@UEBAPEBUQMetaObject@2@XZ
?metaObject@QPluginLoader@kso_qt@@UEBAPEBUQMetaObject@2@XZ
?metaObject@QProcess@kso_qt@@UEBAPEBUQMetaObject@2@XZ
?metaObject@QPropertyAnimation@kso_qt@@UEBAPEBUQMetaObject@2@XZ
?metaObject@QSaveFile@kso_qt@@UEBAPEBUQMetaObject@2@XZ
?metaObject@QSequentialAnimationGroup@kso_qt@@UEBAPEBUQMetaObject@2@XZ
?metaObject@QSettings@kso_qt@@UEBAPEBUQMetaObject@2@XZ
?metaObject@QSharedMemory@kso_qt@@UEBAPEBUQMetaObject@2@XZ
?metaObject@QSignalMapper@kso_qt@@UEBAPEBUQMetaObject@2@XZ
?metaObject@QSignalTransition@kso_qt@@UEBAPEBUQMetaObject@2@XZ
?metaObject@QSocketNotifier@kso_qt@@UEBAPEBUQMetaObject@2@XZ
?metaObject@QSortFilterProxyModel@kso_qt@@UEBAPEBUQMetaObject@2@XZ
?metaObject@QState@kso_qt@@UEBAPEBUQMetaObject@2@XZ
?metaObject@QStateMachine@kso_qt@@UEBAPEBUQMetaObject@2@XZ
?metaObject@QStringListModel@kso_qt@@UEBAPEBUQMetaObject@2@XZ
?metaObject@QTemporaryFile@kso_qt@@UEBAPEBUQMetaObject@2@XZ
?metaObject@QThread@kso_qt@@UEBAPEBUQMetaObject@2@XZ
?metaObject@QThreadPool@kso_qt@@UEBAPEBUQMetaObject@2@XZ
?metaObject@QTimeLine@kso_qt@@UEBAPEBUQMetaObject@2@XZ
?metaObject@QTimer@kso_qt@@UEBAPEBUQMetaObject@2@XZ
?metaObject@QTranslator@kso_qt@@UEBAPEBUQMetaObject@2@XZ
?metaObject@QUnifiedTimer@kso_qt@@UEBAPEBUQMetaObject@2@XZ
?metaObject@QVariantAnimation@kso_qt@@UEBAPEBUQMetaObject@2@XZ
?metaObject@QWinEventNotifier@kso_qt@@UEBAPEBUQMetaObject@2@XZ
?metaObject@QWindowsPipeReader@kso_qt@@UEBAPEBUQMetaObject@2@XZ
?metaObject@QWindowsPipeWriter@kso_qt@@UEBAPEBUQMetaObject@2@XZ
?metaObjectExtended@QMetaType@kso_qt@@AEBAPEBUQMetaObject@2@XZ
?metaObjectForType@QMetaType@kso_qt@@SAPEBUQMetaObject@2@H@Z
?metacall@QMetaObject@kso_qt@@SAHPEAVQObject@2@W4Call@12@HPEAPEAX@Z
?metadataChangeTime@QFileInfo@kso_qt@@QEBA?AVQDateTime@2@XZ
?metadataChangeTime@QFileSystemMetaData@kso_qt@@QEBA?AVQDateTime@2@XZ
?method@QMetaObject@kso_qt@@QEBA?AVQMetaMethod@2@H@Z
?method@QMetaObjectBuilder@kso_qt@@QEBA?AVQMetaMethodBuilder@2@H@Z
?methodCount@QMetaObject@kso_qt@@QEBAHXZ
?methodCount@QMetaObjectBuilder@kso_qt@@QEBAHXZ
?methodIndex@QMetaMethod@kso_qt@@QEBAHXZ
?methodOffset@QMetaObject@kso_qt@@QEBAHXZ
?methodSignature@QMetaMethod@kso_qt@@QEBA?AVQByteArray@2@XZ
?methodType@QMetaMethod@kso_qt@@QEBA?AW4MethodType@12@XZ
?methodType@QMetaMethodBuilder@kso_qt@@QEBA?AW4MethodType@QMetaMethod@2@XZ
?microVersion@QOperatingSystemVersion@kso_qt@@QEBAHXZ
?microstep@QStateMachinePrivate@kso_qt@@QEAAXPEAVQEvent@2@AEBV?$QList@PEAVQAbstractTransition@kso_qt@@@2@PEAUCalculationCache@2@@Z
?mid@?$QList@VQItemSelectionRange@kso_qt@@@kso_qt@@QEBA?AV12@HH@Z
?mid@?$QVector@VQPoint@kso_qt@@@kso_qt@@QEBA?AV12@HH@Z
?mid@?$QVector@VQPointF@kso_qt@@@kso_qt@@QEBA?AV12@HH@Z
?mid@?$QVector@VQXmlStreamAttribute@kso_qt@@@kso_qt@@QEBA?AV12@HH@Z
?mid@QByteArray@kso_qt@@QEBA?AV12@HH@Z
?mid@QContainerImplHelper@QtPrivate@kso_qt@@SA?AW4CutResult@123@HPEAH0@Z
?mid@QString@kso_qt@@QEBA?AV12@HH@Z
?mid@QStringRef@kso_qt@@QEBA?AV12@HH@Z
?midRef@QString@kso_qt@@QEBA?AVQStringRef@2@HH@Z
?mimeData@QAbstractItemModel@kso_qt@@UEBAPEAVQMimeData@2@AEBV?$QList@VQModelIndex@kso_qt@@@2@@Z
?mimeData@QAbstractProxyModel@kso_qt@@UEBAPEAVQMimeData@2@AEBV?$QList@VQModelIndex@kso_qt@@@2@@Z
?mimeData@QSortFilterProxyModel@kso_qt@@UEBAPEAVQMimeData@2@AEBV?$QList@VQModelIndex@kso_qt@@@2@@Z
?mimeTypeForData@QMimeDatabase@kso_qt@@QEBA?AVQMimeType@2@AEBVQByteArray@2@@Z
?mimeTypeForData@QMimeDatabase@kso_qt@@QEBA?AVQMimeType@2@PEAVQIODevice@2@@Z
?mimeTypeForFile@QMimeDatabase@kso_qt@@QEBA?AVQMimeType@2@AEBVQFileInfo@2@W4MatchMode@12@@Z
?mimeTypeForFile@QMimeDatabase@kso_qt@@QEBA?AVQMimeType@2@AEBVQString@2@W4MatchMode@12@@Z
?mimeTypeForFileNameAndData@QMimeDatabase@kso_qt@@QEBA?AVQMimeType@2@AEBVQString@2@AEBVQByteArray@2@@Z
?mimeTypeForFileNameAndData@QMimeDatabase@kso_qt@@QEBA?AVQMimeType@2@AEBVQString@2@PEAVQIODevice@2@@Z
?mimeTypeForName@QMimeDatabase@kso_qt@@QEBA?AVQMimeType@2@AEBVQString@2@@Z
?mimeTypeForUrl@QMimeDatabase@kso_qt@@QEBA?AVQMimeType@2@AEBVQUrl@2@@Z
?mimeTypes@QAbstractItemModel@kso_qt@@UEBA?AVQStringList@2@XZ
?mimeTypes@QAbstractProxyModel@kso_qt@@UEBA?AVQStringList@2@XZ
?mimeTypes@QSortFilterProxyModel@kso_qt@@UEBA?AVQStringList@2@XZ
?mimeTypesForFileName@QMimeDatabase@kso_qt@@QEBA?AV?$QList@VQMimeType@kso_qt@@@2@AEBVQString@2@@Z
?minJd@QDate@kso_qt@@CA_JXZ
?minMSecs@QTimeZonePrivate@kso_qt@@SA_JXZ
?minorVersion@QOperatingSystemVersion@kso_qt@@QEBAHXZ
?minus@QLocalePrivate@kso_qt@@QEBA?AVQChar@2@XZ
?minute@QTime@kso_qt@@QEBAHXZ
?mirroredChar@QChar@kso_qt@@QEBA?AV12@XZ
?mirroredChar@QChar@kso_qt@@SAII@Z
?mirroredChar@QCharRef@kso_qt@@QEBA?AVQChar@2@XZ
?missingFlags@QFileSystemMetaData@kso_qt@@QEAA?AV?$QFlags@W4MetaDataFlag@QFileSystemMetaData@kso_qt@@@2@V32@@Z
?mkdir@QAbstractFileEngine@kso_qt@@UEBA_NAEBVQString@2@_N@Z
?mkdir@QDir@kso_qt@@QEBA_NAEBVQString@2@@Z
?mkdir@QFSFileEngine@kso_qt@@UEBA_NAEBVQString@2@_N@Z
?mkpath@QDir@kso_qt@@QEBA_NAEBVQString@2@@Z
?model@QItemSelectionModel@kso_qt@@QEAAPEAVQAbstractItemModel@2@XZ
?model@QItemSelectionModel@kso_qt@@QEBAPEBVQAbstractItemModel@2@XZ
?model@QItemSelectionRange@kso_qt@@QEBAPEBVQAbstractItemModel@2@XZ
?model@QModelIndex@kso_qt@@QEBAPEBVQAbstractItemModel@2@XZ
?model@QPersistentModelIndex@kso_qt@@QEBAPEBVQAbstractItemModel@2@XZ
?modelAboutToBeReset@QAbstractItemModel@kso_qt@@QEAAXUQPrivateSignal@12@@Z
?modelChanged@QItemSelectionModel@kso_qt@@QEAAXPEAVQAbstractItemModel@2@@Z
?modelReset@QAbstractItemModel@kso_qt@@QEAAXUQPrivateSignal@12@@Z
?modificationTime@QFileSystemMetaData@kso_qt@@QEBA?AVQDateTime@2@XZ
?month@QDate@kso_qt@@QEBAHXZ
?monthName@QLocale@kso_qt@@QEBA?AVQString@2@HW4FormatType@12@@Z
?mountedVolumes@QStorageInfo@kso_qt@@SA?AV?$QList@VQStorageInfo@kso_qt@@@2@XZ
?move@?$QList@VQItemSelectionRange@kso_qt@@@kso_qt@@QEAAXHH@Z
?move@?$QVector@VQPoint@kso_qt@@@kso_qt@@QEAAXHH@Z
?move@?$QVector@VQPointF@kso_qt@@@kso_qt@@QEAAXHH@Z
?move@?$QVector@VQXmlStreamAttribute@kso_qt@@@kso_qt@@QEAAXHH@Z
?move@QListData@kso_qt@@QEAAXHH@Z
?moveBottom@QRect@kso_qt@@QEAAXH@Z
?moveBottom@QRectF@kso_qt@@QEAAXN@Z
?moveBottomLeft@QRect@kso_qt@@QEAAXAEBVQPoint@2@@Z
?moveBottomLeft@QRectF@kso_qt@@QEAAXAEBVQPointF@2@@Z
?moveBottomRight@QRect@kso_qt@@QEAAXAEBVQPoint@2@@Z
?moveBottomRight@QRectF@kso_qt@@QEAAXAEBVQPointF@2@@Z
?moveCenter@QRect@kso_qt@@QEAAXAEBVQPoint@2@@Z
?moveCenter@QRectF@kso_qt@@QEAAXAEBVQPointF@2@@Z
?moveColumn@QAbstractItemModel@kso_qt@@QEAA_NAEBVQModelIndex@2@H0H@Z
?moveColumns@QAbstractItemModel@kso_qt@@UEAA_NAEBVQModelIndex@2@HH0H@Z
?moveLeft@QRect@kso_qt@@QEAAXH@Z
?moveLeft@QRectF@kso_qt@@QEAAXN@Z
?movePersistentIndexes@QAbstractItemModelPrivate@kso_qt@@QEAAXAEBV?$QVector@PEAVQPersistentModelIndexData@kso_qt@@@2@HAEBVQModelIndex@2@W4Orientation@Qt@2@@Z
?moveRight@QRect@kso_qt@@QEAAXH@Z
?moveRight@QRectF@kso_qt@@QEAAXN@Z
?moveRow@QAbstractItemModel@kso_qt@@QEAA_NAEBVQModelIndex@2@H0H@Z
?moveRows@QAbstractItemModel@kso_qt@@UEAA_NAEBVQModelIndex@2@HH0H@Z
?moveTo@QRect@kso_qt@@QEAAXAEBVQPoint@2@@Z
?moveTo@QRect@kso_qt@@QEAAXHH@Z
?moveTo@QRectF@kso_qt@@QEAAXAEBVQPointF@2@@Z
?moveTo@QRectF@kso_qt@@QEAAXNN@Z
?moveToThread@QObject@kso_qt@@QEAAXPEAVQThread@2@@Z
?moveToThread_helper@QObjectPrivate@kso_qt@@QEAAXXZ
?moveTop@QRect@kso_qt@@QEAAXH@Z
?moveTop@QRectF@kso_qt@@QEAAXN@Z
?moveTopLeft@QRect@kso_qt@@QEAAXAEBVQPoint@2@@Z
?moveTopLeft@QRectF@kso_qt@@QEAAXAEBVQPointF@2@@Z
?moveTopRight@QRect@kso_qt@@QEAAXAEBVQPoint@2@@Z
?moveTopRight@QRectF@kso_qt@@QEAAXAEBVQPointF@2@@Z
?msec@QTime@kso_qt@@QEBAHXZ
?msecsSinceReference@QElapsedTimer@kso_qt@@QEBA_JXZ
?msecsSinceStartOfDay@QTime@kso_qt@@QEBAHXZ
?msecsTo@QDateTime@kso_qt@@QEBA_JAEBV12@@Z
?msecsTo@QElapsedTimer@kso_qt@@QEBA_JAEBV12@@Z
?msecsTo@QTime@kso_qt@@QEBAHAEBV12@@Z
?msleep@QThread@kso_qt@@SAXK@Z
?multiArg@QString@kso_qt@@AEBA?AV12@HPEAPEBV12@@Z
?mutex@QFutureInterfaceBase@kso_qt@@QEBAPEAVQMutex@2@XZ
?mutex@QMutexLocker@kso_qt@@QEBAPEAVQMutex@2@XZ
?name@QGenericArgument@kso_qt@@QEBAPEBDXZ
?name@QLocale@kso_qt@@QEBA?AVQString@2@XZ
?name@QMetaClassInfo@kso_qt@@QEBAPEBDXZ
?name@QMetaEnum@kso_qt@@QEBAPEBDXZ
?name@QMetaEnumBuilder@kso_qt@@QEBA?AVQByteArray@2@XZ
?name@QMetaMethod@kso_qt@@QEBA?AVQByteArray@2@XZ
?name@QMetaProperty@kso_qt@@QEBAPEBDXZ
?name@QMetaPropertyBuilder@kso_qt@@QEBA?AVQByteArray@2@XZ
?name@QMimeType@kso_qt@@QEBA?AVQString@2@XZ
?name@QOperatingSystemVersion@kso_qt@@QEBA?AVQString@2@XZ
?name@QStorageInfo@kso_qt@@QEBA?AVQString@2@XZ
?name@QXmlStreamAttribute@kso_qt@@QEBA?AVQStringRef@2@XZ
?name@QXmlStreamEntityDeclaration@kso_qt@@QEBA?AVQStringRef@2@XZ
?name@QXmlStreamNotationDeclaration@kso_qt@@QEBA?AVQStringRef@2@XZ
?name@QXmlStreamReader@kso_qt@@QEBA?AVQStringRef@2@XZ
?name@SectionNode@QDateTimeParser@kso_qt@@QEBA?AVQString@3@XZ
?name@SectionNode@QDateTimeParser@kso_qt@@SA?AVQString@3@W4Section@23@@Z
?nameFilters@QAbstractFileEngineIterator@kso_qt@@QEBA?AVQStringList@2@XZ
?nameFilters@QDir@kso_qt@@QEBA?AVQStringList@2@XZ
?nameFiltersFromString@QDir@kso_qt@@SA?AVQStringList@2@AEBVQString@2@@Z
?nameToType@QVariant@kso_qt@@SA?AW4Type@12@PEBD@Z
?namedCaptureGroups@QRegularExpression@kso_qt@@QEBA?AVQStringList@2@XZ
?names@QCommandLineOption@kso_qt@@QEBA?AVQStringList@2@XZ
?namespaceDeclarations@QXmlStreamReader@kso_qt@@QEBA?AV?$QVector@VQXmlStreamNamespaceDeclaration@kso_qt@@@2@XZ
?namespaceProcessing@QXmlStreamReader@kso_qt@@QEBA_NXZ
?namespaceUri@QXmlStreamAttribute@kso_qt@@QEBA?AVQStringRef@2@XZ
?namespaceUri@QXmlStreamNamespaceDeclaration@kso_qt@@QEBA?AVQStringRef@2@XZ
?namespaceUri@QXmlStreamReader@kso_qt@@QEBA?AVQStringRef@2@XZ
?nativeArguments@QProcess@kso_qt@@QEBA?AVQString@2@XZ
?nativeClose@QFSFileEnginePrivate@kso_qt@@QEAA_NXZ
?nativeCountryName@QLocale@kso_qt@@QEBA?AVQString@2@XZ
?nativeEventFilterFlags@QAbstractNativeEventFilter@kso_qt@@MEBA?AV?$QFlags@W4AllowNativeEventFilterFlag@QAbstractNativeEventFilter@kso_qt@@@2@XZ
?nativeFlush@QFSFileEnginePrivate@kso_qt@@QEAA_NXZ
?nativeHandle@QFSFileEnginePrivate@kso_qt@@QEBAHXZ
?nativeIsSequential@QFSFileEnginePrivate@kso_qt@@QEBA_NXZ
?nativeKey@QSharedMemory@kso_qt@@QEBA?AVQString@2@XZ
?nativeLanguageName@QLocale@kso_qt@@QEBA?AVQString@2@XZ
?nativeOpen@QFSFileEnginePrivate@kso_qt@@QEAA_NV?$QFlags@W4OpenModeFlag@QIODevice@kso_qt@@@2@@Z
?nativePos@QFSFileEnginePrivate@kso_qt@@QEBA_JXZ
?nativeRead@QFSFileEnginePrivate@kso_qt@@QEAA_JPEAD_J@Z
?nativeReadLine@QFSFileEnginePrivate@kso_qt@@QEAA_JPEAD_J@Z
?nativeSeek@QFSFileEnginePrivate@kso_qt@@QEAA_N_J@Z
?nativeSize@QFSFileEnginePrivate@kso_qt@@QEBA_JXZ
?nativeSyncToDisk@QFSFileEnginePrivate@kso_qt@@QEAA_NXZ
?nativeWrite@QFSFileEnginePrivate@kso_qt@@QEAA_JPEBD_J@Z
?needsMoreData@QTextDecoder@kso_qt@@QEBA_NXZ
?negativeSign@QLocale@kso_qt@@QEBA?AVQChar@2@XZ
?newInstance@QMetaObject@kso_qt@@QEBAPEAVQObject@2@VQGenericArgument@2@000000000@Z
?next@QCborStreamReader@kso_qt@@QEAA_NH@Z
?next@QDirIterator@kso_qt@@QEAA?AVQString@2@XZ
?next@QRegularExpressionMatchIterator@kso_qt@@QEAA?AVQRegularExpressionMatch@2@XZ
?nextNode@QHashData@kso_qt@@SAPEAUNode@12@PEAU312@@Z
?nextNode@QMapNodeBase@kso_qt@@QEAAPEAU12@XZ
?nextNode@QMapNodeBase@kso_qt@@QEBAPEBU12@XZ
?nextTransition@QTimeZone@kso_qt@@QEBA?AUOffsetData@12@AEBVQDateTime@2@@Z
?nextTransition@QTimeZonePrivate@kso_qt@@UEBA?AUData@12@_J@Z
?nextTransition@QWinTimeZonePrivate@kso_qt@@UEBA?AUData@QTimeZonePrivate@2@_J@Z
?noDebug@QMessageLogger@kso_qt@@QEBA?AVQNoDebug@2@XZ
?noDebug@QMessageLogger@kso_qt@@QEBAXPEBDZZ
?noMicrostep@QStateMachinePrivate@kso_qt@@UEAAXXZ
?node_construct@?$QList@VQItemSelectionRange@kso_qt@@@kso_qt@@AEAAXPEAUNode@12@AEBVQItemSelectionRange@2@@Z
?node_copy@?$QList@VQItemSelectionRange@kso_qt@@@kso_qt@@AEAAXPEAUNode@12@00@Z
?node_destruct@?$QList@VQItemSelectionRange@kso_qt@@@kso_qt@@AEAAXPEAUNode@12@0@Z
?node_destruct@?$QList@VQItemSelectionRange@kso_qt@@@kso_qt@@AEAAXPEAUNode@12@@Z
?noforcepoint@kso_qt@@YAAEAVQTextStream@1@AEAV21@@Z
?noforcesign@kso_qt@@YAAEAVQTextStream@1@AEAV21@@Z
?noquote@QDebug@kso_qt@@QEAAAEAV12@XZ
?normalVector@QLineF@kso_qt@@QEBA?AV12@XZ
?normalized@QRect@kso_qt@@QEBA?AV12@XZ
?normalized@QRectF@kso_qt@@QEBA?AV12@XZ
?normalized@QString@kso_qt@@QEBA?AV12@W4NormalizationForm@12@W4UnicodeVersion@QChar@2@@Z
?normalized@QVersionNumber@kso_qt@@QEBA?AV12@XZ
?normalizedKey@QSettingsPrivate@kso_qt@@SA?AVQString@2@AEBV32@@Z
?normalizedSignature@QMetaObject@kso_qt@@SA?AVQByteArray@2@PEBD@Z
?normalizedType@QMetaObject@kso_qt@@SA?AVQByteArray@2@PEBD@Z
?noshowbase@kso_qt@@YAAEAVQTextStream@1@AEAV21@@Z
?nospace@QDebug@kso_qt@@QEAAAEAV12@XZ
?notationDeclarations@QXmlStreamReader@kso_qt@@QEBA?AV?$QVector@VQXmlStreamNotationDeclaration@kso_qt@@@2@XZ
?notationName@QXmlStreamEntityDeclaration@kso_qt@@QEBA?AVQStringRef@2@XZ
?notified@QWindowsPipeReader@kso_qt@@AEAAXKK@Z
?notified@QWindowsPipeWriter@kso_qt@@AEAAXKK@Z
?notify@QCoreApplication@kso_qt@@UEAA_NPEAVQObject@2@PEAVQEvent@2@@Z
?notifyInternal2@QCoreApplication@kso_qt@@CA_NPEAVQObject@2@PEAVQEvent@2@@Z
?notifyInternal@QCoreApplication@kso_qt@@AEAA_NPEAVQObject@2@PEAVQEvent@2@@Z
?notifySignal@QMetaProperty@kso_qt@@QEBA?AVQMetaMethod@2@XZ
?notifySignal@QMetaPropertyBuilder@kso_qt@@QEBA?AVQMetaMethodBuilder@2@XZ
?notifySignalIndex@QMetaProperty@kso_qt@@QEBAHXZ
?notify_all@QWaitCondition@kso_qt@@QEAAXXZ
?notify_helper@QCoreApplicationPrivate@kso_qt@@SA_NPEAVQObject@2@PEAVQEvent@2@@Z
?notify_one@QWaitCondition@kso_qt@@QEAAXXZ
?nsecsElapsed@QElapsedTimer@kso_qt@@QEBA_JXZ
?nulTerminated@QByteArray@kso_qt@@AEBA?AV12@XZ
?null@QString@kso_qt@@2UNull@12@B
?nullDevice@QProcess@kso_qt@@SA?AVQString@2@XZ
?nullJd@QDate@kso_qt@@CA_JXZ
?number@QByteArray@kso_qt@@SA?AV12@HH@Z
?number@QByteArray@kso_qt@@SA?AV12@IH@Z
?number@QByteArray@kso_qt@@SA?AV12@NDH@Z
?number@QByteArray@kso_qt@@SA?AV12@_JH@Z
?number@QByteArray@kso_qt@@SA?AV12@_KH@Z
?number@QString@kso_qt@@SA?AV12@HH@Z
?number@QString@kso_qt@@SA?AV12@IH@Z
?number@QString@kso_qt@@SA?AV12@JH@Z
?number@QString@kso_qt@@SA?AV12@KH@Z
?number@QString@kso_qt@@SA?AV12@NDH@Z
?number@QString@kso_qt@@SA?AV12@_JH@Z
?number@QString@kso_qt@@SA?AV12@_KH@Z
?numberFlags@QTextStream@kso_qt@@QEBA?AV?$QFlags@W4NumberFlag@QTextStream@kso_qt@@@2@XZ
?numberOptions@QLocale@kso_qt@@QEBA?AV?$QFlags@W4NumberOption@QLocale@kso_qt@@@2@XZ
?numericMode@QCollator@kso_qt@@QEBA_NXZ
?object@QJsonDocument@kso_qt@@QEBA?AVQJsonObject@2@XZ
?object@WrappedEvent@QStateMachine@kso_qt@@QEBAPEAVQObject@3@XZ
?objectDestroyed@QDynamicMetaObjectData@kso_qt@@UEAAXPEAVQObject@2@@Z
?objectDestroyed@QObjectCleanupHandler@kso_qt@@AEAAXPEAVQObject@2@@Z
?objectName@QObject@kso_qt@@QEBA?AVQString@2@XZ
?objectNameChanged@QObject@kso_qt@@QEAAXAEBVQString@2@UQPrivateSignal@12@@Z
?oct@kso_qt@@YAAEAVQTextStream@1@AEAV21@@Z
?offsetData@QTimeZone@kso_qt@@QEBA?AUOffsetData@12@AEBVQDateTime@2@@Z
?offsetFromUtc@QDateTime@kso_qt@@QEBAHXZ
?offsetFromUtc@QTimeZone@kso_qt@@QEBAHAEBVQDateTime@2@@Z
?offsetFromUtc@QTimeZonePrivate@kso_qt@@UEBAH_J@Z
?offsetFromUtc@QWinTimeZonePrivate@kso_qt@@UEBAH_J@Z
?offsettable@qfloat16@kso_qt@@0QBIB
?onEntry@QFinalState@kso_qt@@MEAAXPEAVQEvent@2@@Z
?onEntry@QHistoryState@kso_qt@@MEAAXPEAVQEvent@2@@Z
?onEntry@QState@kso_qt@@MEAAXPEAVQEvent@2@@Z
?onEntry@QStateMachine@kso_qt@@MEAAXPEAVQEvent@2@@Z
?onExit@QFinalState@kso_qt@@MEAAXPEAVQEvent@2@@Z
?onExit@QHistoryState@kso_qt@@MEAAXPEAVQEvent@2@@Z
?onExit@QState@kso_qt@@MEAAXPEAVQEvent@2@@Z
?onExit@QStateMachine@kso_qt@@MEAAXPEAVQEvent@2@@Z
?onTransition@QEventTransition@kso_qt@@MEAAXPEAVQEvent@2@@Z
?onTransition@QSignalTransition@kso_qt@@MEAAXPEAVQEvent@2@@Z
?op_eq_impl@?$QList@VQItemSelectionRange@kso_qt@@@kso_qt@@AEBA_NAEBV12@UArrayCompatibleLayout@QListData@2@@Z
?op_eq_impl@?$QList@VQItemSelectionRange@kso_qt@@@kso_qt@@AEBA_NAEBV12@UNotArrayCompatibleLayout@QListData@2@@Z
?open@QAbstractFileEngine@kso_qt@@UEAA_NV?$QFlags@W4OpenModeFlag@QIODevice@kso_qt@@@2@@Z
?open@QBuffer@kso_qt@@UEAA_NV?$QFlags@W4OpenModeFlag@QIODevice@kso_qt@@@2@@Z
?open@QFSFileEngine@kso_qt@@QEAA_NV?$QFlags@W4OpenModeFlag@QIODevice@kso_qt@@@2@H@Z
?open@QFSFileEngine@kso_qt@@QEAA_NV?$QFlags@W4OpenModeFlag@QIODevice@kso_qt@@@2@HV?$QFlags@W4FileHandleFlag@QFileDevice@kso_qt@@@2@@Z
?open@QFSFileEngine@kso_qt@@QEAA_NV?$QFlags@W4OpenModeFlag@QIODevice@kso_qt@@@2@PEAU_iobuf@@@Z
?open@QFSFileEngine@kso_qt@@QEAA_NV?$QFlags@W4OpenModeFlag@QIODevice@kso_qt@@@2@PEAU_iobuf@@V?$QFlags@W4FileHandleFlag@QFileDevice@kso_qt@@@2@@Z
?open@QFSFileEngine@kso_qt@@UEAA_NV?$QFlags@W4OpenModeFlag@QIODevice@kso_qt@@@2@@Z
?open@QFile@kso_qt@@QEAA_NHV?$QFlags@W4OpenModeFlag@QIODevice@kso_qt@@@2@V?$QFlags@W4FileHandleFlag@QFileDevice@kso_qt@@@2@@Z
?open@QFile@kso_qt@@QEAA_NPEAU_iobuf@@V?$QFlags@W4OpenModeFlag@QIODevice@kso_qt@@@2@V?$QFlags@W4FileHandleFlag@QFileDevice@kso_qt@@@2@@Z
?open@QFile@kso_qt@@UEAA_NV?$QFlags@W4OpenModeFlag@QIODevice@kso_qt@@@2@@Z
?open@QIODevice@kso_qt@@UEAA_NV?$QFlags@W4OpenModeFlag@QIODevice@kso_qt@@@2@@Z
?open@QProcess@kso_qt@@UEAA_NV?$QFlags@W4OpenModeFlag@QIODevice@kso_qt@@@2@@Z
?open@QSaveFile@kso_qt@@UEAA_NV?$QFlags@W4OpenModeFlag@QIODevice@kso_qt@@@2@@Z
?open@QTemporaryFile@kso_qt@@MEAA_NV?$QFlags@W4OpenModeFlag@QIODevice@kso_qt@@@2@@Z
?open@QTemporaryFile@kso_qt@@QEAA_NXZ
?openFd@QFSFileEnginePrivate@kso_qt@@QEAA_NV?$QFlags@W4OpenModeFlag@QIODevice@kso_qt@@@2@H@Z
?openFh@QFSFileEnginePrivate@kso_qt@@QEAA_NV?$QFlags@W4OpenModeFlag@QIODevice@kso_qt@@@2@PEAU_iobuf@@@Z
?openMode@QIODevice@kso_qt@@QEBA?AV?$QFlags@W4OpenModeFlag@QIODevice@kso_qt@@@2@XZ
?openModeCanCreate@QFSFileEnginePrivate@kso_qt@@SA_NV?$QFlags@W4OpenModeFlag@QIODevice@kso_qt@@@2@@Z
?optimize@QRegularExpression@kso_qt@@QEBAXXZ
?optionNames@QCommandLineParser@kso_qt@@QEBA?AVQStringList@2@XZ
?organizationDomain@QCoreApplication@kso_qt@@SA?AVQString@2@XZ
?organizationDomainChanged@QCoreApplication@kso_qt@@QEAAXXZ
?organizationName@QCoreApplication@kso_qt@@SA?AVQString@2@XZ
?organizationName@QSettings@kso_qt@@QEBA?AVQString@2@XZ
?organizationNameChanged@QCoreApplication@kso_qt@@QEAAXXZ
?overshoot@QEasingCurve@kso_qt@@QEBANXZ
?owner@QAbstractFileEngine@kso_qt@@UEBA?AVQString@2@W4FileOwner@12@@Z
?owner@QFSFileEngine@kso_qt@@UEBA?AVQString@2@W4FileOwner@QAbstractFileEngine@2@@Z
?owner@QFileInfo@kso_qt@@QEBA?AVQString@2@XZ
?ownerId@QAbstractFileEngine@kso_qt@@UEBAIW4FileOwner@12@@Z
?ownerId@QFSFileEngine@kso_qt@@UEBAIW4FileOwner@QAbstractFileEngine@2@@Z
?ownerId@QFileInfo@kso_qt@@QEBAIXZ
?ownerId@QFileSystemMetaData@kso_qt@@QEBAIW4FileOwner@QAbstractFileEngine@2@@Z
?p1@QLine@kso_qt@@QEBA?AVQPoint@2@XZ
?p1@QLineF@kso_qt@@QEBA?AVQPointF@2@XZ
?p2@QLine@kso_qt@@QEBA?AVQPoint@2@XZ
?p2@QLineF@kso_qt@@QEBA?AVQPointF@2@XZ
?padChar@QTextStream@kso_qt@@QEBA?AVQChar@2@XZ
?parameterCount@QMetaMethod@kso_qt@@QEBAHXZ
?parameterNames@QMetaMethod@kso_qt@@QEBA?AV?$QList@VQByteArray@kso_qt@@@2@XZ
?parameterNames@QMetaMethodBuilder@kso_qt@@QEBA?AV?$QList@VQByteArray@kso_qt@@@2@XZ
?parameterType@QMetaMethod@kso_qt@@QEBAHH@Z
?parameterTypes@QMetaMethod@kso_qt@@QEBA?AV?$QList@VQByteArray@kso_qt@@@2@XZ
?parameterTypes@QMetaMethodBuilder@kso_qt@@QEBA?AV?$QList@VQByteArray@kso_qt@@@2@XZ
?parent@QAbstractListModel@kso_qt@@EEBA?AVQModelIndex@2@AEBV32@@Z
?parent@QAbstractTableModel@kso_qt@@EEBA?AVQModelIndex@2@AEBV32@@Z
?parent@QIdentityProxyModel@kso_qt@@UEBA?AVQModelIndex@2@AEBV32@@Z
?parent@QItemSelectionRange@kso_qt@@QEBA?AVQModelIndex@2@XZ
?parent@QMapNodeBase@kso_qt@@QEBAPEAU12@XZ
?parent@QModelIndex@kso_qt@@QEBA?AV12@XZ
?parent@QObject@kso_qt@@QEBAPEAV12@XZ
?parent@QPersistentModelIndex@kso_qt@@QEBA?AVQModelIndex@2@XZ
?parent@QSortFilterProxyModel@kso_qt@@UEBA?AVQModelIndex@2@AEBV32@@Z
?parentChanged@QAbstractDeclarativeData@kso_qt@@2P6AXPEAV12@PEAVQObject@2@1@ZEA
?parentContainerType@QCborStreamReader@kso_qt@@QEBA?AW4Type@12@XZ
?parentMimeTypes@QMimeType@kso_qt@@QEBA?AVQStringList@2@XZ
?parentState@QAbstractState@kso_qt@@QEBAPEAVQState@2@XZ
?parse@QCommandLineParser@kso_qt@@QEAA_NAEBVQStringList@2@@Z
?parse@QDateTimeParser@kso_qt@@QEBA?AUStateNode@12@VQString@2@HAEBVQDateTime@2@_N@Z
?parse@QLoggingRule@kso_qt@@AEAAXAEBVQStringRef@2@@Z
?parseFormat@QDateTimeParser@kso_qt@@QEAA_NAEBVQString@2@@Z
?parseIp4@QIPAddressUtils@kso_qt@@YA_NAEAIPEBVQChar@2@1@Z
?parseIp6@QIPAddressUtils@kso_qt@@YAPEBVQChar@2@AEAY0BA@EPEBV32@1@Z
?parseNextLine@QLoggingSettingsParser@kso_qt@@AEAAXVQStringRef@2@@Z
?parseSection@QDateTimeParser@kso_qt@@AEBA?AUParsedSection@12@AEBVQDateTime@2@HHPEAVQString@2@@Z
?pass@QLoggingRule@kso_qt@@QEBAHAEBVQString@2@W4QtMsgType@2@@Z
?password@QUrl@kso_qt@@QEBA?AVQString@2@V?$QFlags@W4ComponentFormattingOption@QUrl@kso_qt@@@2@@Z
?path@QAbstractFileEngineIterator@kso_qt@@QEBA?AVQString@2@XZ
?path@QDir@kso_qt@@QEBA?AVQString@2@XZ
?path@QDirIterator@kso_qt@@QEBA?AVQString@2@XZ
?path@QFileInfo@kso_qt@@QEBA?AVQString@2@XZ
?path@QTemporaryDir@kso_qt@@QEBA?AVQString@2@XZ
?path@QUrl@kso_qt@@QEBA?AVQString@2@V?$QFlags@W4ComponentFormattingOption@QUrl@kso_qt@@@2@@Z
?pattern@QByteArrayMatcher@kso_qt@@QEBA?AVQByteArray@2@XZ
?pattern@QRegExp@kso_qt@@QEBA?AVQString@2@XZ
?pattern@QRegularExpression@kso_qt@@QEBA?AVQString@2@XZ
?pattern@QStringMatcher@kso_qt@@QEBA?AVQString@2@XZ
?patternErrorOffset@QRegularExpression@kso_qt@@QEBAHXZ
?patternOptions@QRegularExpression@kso_qt@@QEBA?AV?$QFlags@W4PatternOption@QRegularExpression@kso_qt@@@2@XZ
?patternSyntax@QRegExp@kso_qt@@QEBA?AW4PatternSyntax@12@XZ
?pause@QAbstractAnimation@kso_qt@@QEAAXXZ
?pause@QFutureWatcherBase@kso_qt@@QEAAXXZ
?pauseAnimationTimer@QUnifiedTimer@kso_qt@@SAXPEAVQAbstractAnimationTimer@2@H@Z
?paused@QFutureWatcherBase@kso_qt@@QEAAXXZ
?peek@QIODevice@kso_qt@@QEAA?AVQByteArray@2@_J@Z
?peek@QIODevice@kso_qt@@QEAA_JPEAD_J@Z
?peek@QIODevicePrivate@kso_qt@@UEAA?AVQByteArray@2@_J@Z
?peek@QIODevicePrivate@kso_qt@@UEAA_JPEAD_J@Z
?peek@QRingBuffer@kso_qt@@QEBA_JPEAD_J1@Z
?peekNext@QRegularExpressionMatchIterator@kso_qt@@QEBA?AVQRegularExpressionMatch@2@XZ
?percent@QLocale@kso_qt@@QEBA?AVQChar@2@XZ
?percent@QLocalePrivate@kso_qt@@QEBA?AVQChar@2@XZ
?period@QEasingCurve@kso_qt@@QEBANXZ
?permission@QFileInfo@kso_qt@@QEBA_NV?$QFlags@W4Permission@QFileDevice@kso_qt@@@2@@Z
?permissions@QFile@kso_qt@@SA?AV?$QFlags@W4Permission@QFileDevice@kso_qt@@@2@AEBVQString@2@@Z
?permissions@QFile@kso_qt@@UEBA?AV?$QFlags@W4Permission@QFileDevice@kso_qt@@@2@XZ
?permissions@QFileDevice@kso_qt@@UEBA?AV?$QFlags@W4Permission@QFileDevice@kso_qt@@@2@XZ
?permissions@QFileInfo@kso_qt@@QEBA?AV?$QFlags@W4Permission@QFileDevice@kso_qt@@@2@XZ
?permissions@QFileSystemMetaData@kso_qt@@QEBA?AV?$QFlags@W4Permission@QFileDevice@kso_qt@@@2@XZ
?persistentIndexList@QAbstractItemModel@kso_qt@@IEBA?AV?$QList@VQModelIndex@kso_qt@@@2@XZ
?pid@QProcess@kso_qt@@QEBAPEAU_PROCESS_INFORMATION@@XZ
?pipeClosed@QWindowsPipeReader@kso_qt@@QEAAXXZ
?placeMetaCall@QMetaCallEvent@kso_qt@@UEAAXPEAVQObject@2@@Z
?platformPluginArguments@QLibraryInfo@kso_qt@@SA?AVQStringList@2@AEBVQString@2@@Z
?platformSelectors@QFileSelectorPrivate@kso_qt@@SA?AVQStringList@2@XZ
?plus@QLocalePrivate@kso_qt@@QEBA?AVQChar@2@XZ
?pmText@QLocale@kso_qt@@QEBA?AVQString@2@XZ
?pointAt@QLineF@kso_qt@@QEBA?AVQPointF@2@N@Z
?polished@QChildEvent@kso_qt@@QEBA_NXZ
?pop_back@?$QList@VQItemSelectionRange@kso_qt@@@kso_qt@@QEAAXXZ
?pop_back@?$QVector@VQPoint@kso_qt@@@kso_qt@@QEAAXXZ
?pop_back@?$QVector@VQPointF@kso_qt@@@kso_qt@@QEAAXXZ
?pop_back@?$QVector@VQXmlStreamAttribute@kso_qt@@@kso_qt@@QEAAXXZ
?pop_back@QCborArray@kso_qt@@QEAAXXZ
?pop_back@QJsonArray@kso_qt@@QEAAXXZ
?pop_front@?$QList@VQItemSelectionRange@kso_qt@@@kso_qt@@QEAAXXZ
?pop_front@?$QVector@VQPoint@kso_qt@@@kso_qt@@QEAAXXZ
?pop_front@?$QVector@VQPointF@kso_qt@@@kso_qt@@QEAAXXZ
?pop_front@?$QVector@VQXmlStreamAttribute@kso_qt@@@kso_qt@@QEAAXXZ
?pop_front@QCborArray@kso_qt@@QEAAXXZ
?pop_front@QJsonArray@kso_qt@@QEAAXXZ
?port@QUrl@kso_qt@@QEBAHH@Z
?pos@QAbstractFileEngine@kso_qt@@UEBA_JXZ
?pos@QBuffer@kso_qt@@UEBA_JXZ
?pos@QFSFileEngine@kso_qt@@UEBA_JXZ
?pos@QFileDevice@kso_qt@@UEBA_JXZ
?pos@QIODevice@kso_qt@@UEBA_JXZ
?pos@QNonContiguousByteDevice@kso_qt@@UEBA_JXZ
?pos@QRegExp@kso_qt@@QEAAHH@Z
?pos@QRegExp@kso_qt@@QEBAHH@Z
?pos@QTextStream@kso_qt@@QEBA_JXZ
?posFdFh@QFSFileEnginePrivate@kso_qt@@QEBA_JXZ
?position@QStringRef@kso_qt@@QEBAHXZ
?position@QTextBoundaryFinder@kso_qt@@QEBAHXZ
?position@QXmlStreamStringRef@kso_qt@@QEBAHXZ
?positionalArguments@QCommandLineParser@kso_qt@@QEBA?AVQStringList@2@XZ
?positiveSign@QLocale@kso_qt@@QEBA?AVQChar@2@XZ
?postActivateSocketNotifiers@QEventDispatcherWin32Private@kso_qt@@QEAAXXZ
?postDelayedEvent@QStateMachine@kso_qt@@QEAAHPEAVQEvent@2@H@Z
?postEvent@QCoreApplication@kso_qt@@SAXPEAVQObject@2@PEAVQEvent@2@H@Z
?postEvent@QStateMachine@kso_qt@@QEAAXPEAVQEvent@2@W4EventPriority@12@@Z
?postExternalEvent@QStateMachinePrivate@kso_qt@@QEAAXPEAVQEvent@2@@Z
?postInternalEvent@QStateMachinePrivate@kso_qt@@QEAAXPEAVQEvent@2@@Z
?potentialValue@QDateTimeParser@kso_qt@@AEBA_NAEBVQString@2@HHHAEBVQDateTime@2@H@Z
?potentialValue@QDateTimeParser@kso_qt@@AEBA_NAEBVQStringRef@2@HHHAEBVQDateTime@2@H@Z
?preferredAlignment@QMetaStringTable@kso_qt@@SAHXZ
?preferredSuffix@QMimeType@kso_qt@@QEBA?AVQString@2@XZ
?prefix@QXmlStreamAttribute@kso_qt@@QEBA?AVQStringRef@2@XZ
?prefix@QXmlStreamNamespaceDeclaration@kso_qt@@QEBA?AVQStringRef@2@XZ
?prefix@QXmlStreamReader@kso_qt@@QEBA?AVQStringRef@2@XZ
?preparse@QCborStreamReader@kso_qt@@AEAAXXZ
?prepend@?$QList@VQItemSelectionRange@kso_qt@@@kso_qt@@QEAAXAEBVQItemSelectionRange@2@@Z
?prepend@?$QVector@VQPoint@kso_qt@@@kso_qt@@QEAAX$$QEAVQPoint@2@@Z
?prepend@?$QVector@VQPoint@kso_qt@@@kso_qt@@QEAAXAEBVQPoint@2@@Z
?prepend@?$QVector@VQPointF@kso_qt@@@kso_qt@@QEAAX$$QEAVQPointF@2@@Z
?prepend@?$QVector@VQPointF@kso_qt@@@kso_qt@@QEAAXAEBVQPointF@2@@Z
?prepend@?$QVector@VQXmlStreamAttribute@kso_qt@@@kso_qt@@QEAAX$$QEAVQXmlStreamAttribute@2@@Z
?prepend@?$QVector@VQXmlStreamAttribute@kso_qt@@@kso_qt@@QEAAXAEBVQXmlStreamAttribute@2@@Z
?prepend@QByteArray@kso_qt@@QEAAAEAV12@AEBV12@@Z
?prepend@QByteArray@kso_qt@@QEAAAEAV12@D@Z
?prepend@QByteArray@kso_qt@@QEAAAEAV12@HD@Z
?prepend@QByteArray@kso_qt@@QEAAAEAV12@PEBD@Z
?prepend@QByteArray@kso_qt@@QEAAAEAV12@PEBDH@Z
?prepend@QCborArray@kso_qt@@QEAAX$$QEAVQCborValue@2@@Z
?prepend@QCborArray@kso_qt@@QEAAXAEBVQCborValue@2@@Z
?prepend@QJsonArray@kso_qt@@QEAAXAEBVQJsonValue@2@@Z
?prepend@QListData@kso_qt@@QEAAPEAPEAXXZ
?prepend@QString@kso_qt@@QEAAAEAV12@AEBV12@@Z
?prepend@QString@kso_qt@@QEAAAEAV12@AEBVQByteArray@2@@Z
?prepend@QString@kso_qt@@QEAAAEAV12@AEBVQStringRef@2@@Z
?prepend@QString@kso_qt@@QEAAAEAV12@PEBD@Z
?prepend@QString@kso_qt@@QEAAAEAV12@PEBVQChar@2@H@Z
?prepend@QString@kso_qt@@QEAAAEAV12@VQChar@2@@Z
?prepend@QString@kso_qt@@QEAAAEAV12@VQLatin1String@2@@Z
?prettyProductName@QSysInfo@kso_qt@@SA?AVQString@2@XZ
?previousNode@QHashData@kso_qt@@SAPEAUNode@12@PEAU312@@Z
?previousNode@QMapNodeBase@kso_qt@@QEAAPEAU12@XZ
?previousNode@QMapNodeBase@kso_qt@@QEBAPEBU12@XZ
?previousTransition@QTimeZone@kso_qt@@QEBA?AUOffsetData@12@AEBVQDateTime@2@@Z
?previousTransition@QTimeZonePrivate@kso_qt@@UEBA?AUData@12@_J@Z
?previousTransition@QWinTimeZonePrivate@kso_qt@@UEBA?AUData@QTimeZonePrivate@2@_J@Z
?priority@QThread@kso_qt@@QEBA?AW4Priority@12@XZ
?process@QCommandLineParser@kso_qt@@QEAAXAEBVQCoreApplication@2@@Z
?process@QCommandLineParser@kso_qt@@QEAAXAEBVQStringList@2@@Z
?processChannelMode@QProcess@kso_qt@@QEBA?AW4ProcessChannelMode@12@XZ
?processChild@QSettingsPrivate@kso_qt@@SAXVQStringRef@2@W4ChildSpec@12@AEAVQStringList@2@@Z
?processCommandLineArguments@QCoreApplicationPrivate@kso_qt@@QEAAXXZ
?processEnvironment@QProcess@kso_qt@@QEBA?AVQProcessEnvironment@2@XZ
?processEvents@QCoreApplication@kso_qt@@SAXV?$QFlags@W4ProcessEventsFlag@QEventLoop@kso_qt@@@2@@Z
?processEvents@QCoreApplication@kso_qt@@SAXV?$QFlags@W4ProcessEventsFlag@QEventLoop@kso_qt@@@2@H@Z
?processEvents@QEventDispatcherWin32@kso_qt@@UEAA_NV?$QFlags@W4ProcessEventsFlag@QEventLoop@kso_qt@@@2@@Z
?processEvents@QEventLoop@kso_qt@@QEAAXV?$QFlags@W4ProcessEventsFlag@QEventLoop@kso_qt@@@2@H@Z
?processEvents@QEventLoop@kso_qt@@QEAA_NV?$QFlags@W4ProcessEventsFlag@QEventLoop@kso_qt@@@2@@Z
?processEvents@QStateMachinePrivate@kso_qt@@QEAAXW4EventProcessingMode@12@@Z
?processId@QProcess@kso_qt@@QEBA_JXZ
?processNameByPid@QLockFilePrivate@kso_qt@@SA?AVQString@2@_J@Z
?processOpenModeFlags@kso_qt@@YA?AUProcessOpenModeResult@1@V?$QFlags@W4OpenModeFlag@QIODevice@kso_qt@@@1@@Z
?processedPendingEvents@QStateMachinePrivate@kso_qt@@UEAAX_N@Z
?processingInstructionData@QXmlStreamReader@kso_qt@@QEBA?AVQStringRef@2@XZ
?processingInstructionTarget@QXmlStreamReader@kso_qt@@QEBA?AVQStringRef@2@XZ
?productType@QSysInfo@kso_qt@@SA?AVQString@2@XZ
?productVersion@QSysInfo@kso_qt@@SA?AVQString@2@XZ
?program@QProcess@kso_qt@@QEBA?AVQString@2@XZ
?progressMaximum@QFutureInterfaceBase@kso_qt@@QEBAHXZ
?progressMaximum@QFutureWatcherBase@kso_qt@@QEBAHXZ
?progressMinimum@QFutureInterfaceBase@kso_qt@@QEBAHXZ
?progressMinimum@QFutureWatcherBase@kso_qt@@QEBAHXZ
?progressRangeChanged@QFutureWatcherBase@kso_qt@@QEAAXHH@Z
?progressText@QFutureInterfaceBase@kso_qt@@QEBA?AVQString@2@XZ
?progressText@QFutureWatcherBase@kso_qt@@QEBA?AVQString@2@XZ
?progressTextChanged@QFutureWatcherBase@kso_qt@@QEAAXAEBVQString@2@@Z
?progressValue@QFutureInterfaceBase@kso_qt@@QEBAHXZ
?progressValue@QFutureWatcherBase@kso_qt@@QEBAHXZ
?progressValueChanged@QFutureWatcherBase@kso_qt@@QEAAXH@Z
?properties@QUnicodeTables@kso_qt@@YAPEBUProperties@12@G@Z
?properties@QUnicodeTables@kso_qt@@YAPEBUProperties@12@I@Z
?propertiesAssigned@QState@kso_qt@@QEAAXUQPrivateSignal@12@@Z
?property@QMetaObject@kso_qt@@QEBA?AVQMetaProperty@2@H@Z
?property@QMetaObjectBuilder@kso_qt@@QEBA?AVQMetaPropertyBuilder@2@H@Z
?property@QObject@kso_qt@@QEBA?AVQVariant@2@PEBD@Z
?propertyCount@QMetaObject@kso_qt@@QEBAHXZ
?propertyCount@QMetaObjectBuilder@kso_qt@@QEBAHXZ
?propertyIndex@QMetaProperty@kso_qt@@QEBAHXZ
?propertyName@QDynamicPropertyChangeEvent@kso_qt@@QEBA?AVQByteArray@2@XZ
?propertyName@QPropertyAnimation@kso_qt@@QEBA?AVQByteArray@2@XZ
?propertyOffset@QMetaObject@kso_qt@@QEBAHXZ
?publicId@QXmlStreamEntityDeclaration@kso_qt@@QEBA?AVQStringRef@2@XZ
?publicId@QXmlStreamNotationDeclaration@kso_qt@@QEBA?AVQStringRef@2@XZ
?push_back@?$QList@VQItemSelectionRange@kso_qt@@@kso_qt@@QEAAXAEBVQItemSelectionRange@2@@Z
?push_back@?$QVector@VQPoint@kso_qt@@@kso_qt@@QEAAX$$QEAVQPoint@2@@Z
?push_back@?$QVector@VQPoint@kso_qt@@@kso_qt@@QEAAXAEBVQPoint@2@@Z
?push_back@?$QVector@VQPointF@kso_qt@@@kso_qt@@QEAAX$$QEAVQPointF@2@@Z
?push_back@?$QVector@VQPointF@kso_qt@@@kso_qt@@QEAAXAEBVQPointF@2@@Z
?push_back@?$QVector@VQXmlStreamAttribute@kso_qt@@@kso_qt@@QEAAX$$QEAVQXmlStreamAttribute@2@@Z
?push_back@?$QVector@VQXmlStreamAttribute@kso_qt@@@kso_qt@@QEAAXAEBVQXmlStreamAttribute@2@@Z
?push_back@QByteArray@kso_qt@@QEAAXAEBV12@@Z
?push_back@QByteArray@kso_qt@@QEAAXD@Z
?push_back@QByteArray@kso_qt@@QEAAXPEBD@Z
?push_back@QCborArray@kso_qt@@QEAAXAEBVQCborValue@2@@Z
?push_back@QJsonArray@kso_qt@@QEAAXAEBVQJsonValue@2@@Z
?push_back@QString@kso_qt@@QEAAXAEBV12@@Z
?push_back@QString@kso_qt@@QEAAXVQChar@2@@Z
?push_front@?$QList@VQItemSelectionRange@kso_qt@@@kso_qt@@QEAAXAEBVQItemSelectionRange@2@@Z
?push_front@?$QVector@VQPoint@kso_qt@@@kso_qt@@QEAAX$$QEAVQPoint@2@@Z
?push_front@?$QVector@VQPoint@kso_qt@@@kso_qt@@QEAAXAEBVQPoint@2@@Z
?push_front@?$QVector@VQPointF@kso_qt@@@kso_qt@@QEAAX$$QEAVQPointF@2@@Z
?push_front@?$QVector@VQPointF@kso_qt@@@kso_qt@@QEAAXAEBVQPointF@2@@Z
?push_front@?$QVector@VQXmlStreamAttribute@kso_qt@@@kso_qt@@QEAAX$$QEAVQXmlStreamAttribute@2@@Z
?push_front@?$QVector@VQXmlStreamAttribute@kso_qt@@@kso_qt@@QEAAXAEBVQXmlStreamAttribute@2@@Z
?push_front@QByteArray@kso_qt@@QEAAXAEBV12@@Z
?push_front@QByteArray@kso_qt@@QEAAXD@Z
?push_front@QByteArray@kso_qt@@QEAAXPEBD@Z
?push_front@QCborArray@kso_qt@@QEAAXAEBVQCborValue@2@@Z
?push_front@QJsonArray@kso_qt@@QEAAXAEBVQJsonValue@2@@Z
?push_front@QString@kso_qt@@QEAAXAEBV12@@Z
?push_front@QString@kso_qt@@QEAAXVQChar@2@@Z
?putByteArray@QDebug@kso_qt@@AEAAXPEBD_KW4Latin1Content@12@@Z
?putChar@QIODevice@kso_qt@@QEAA_ND@Z
?putCharHelper@QIODevicePrivate@kso_qt@@UEAA_ND@Z
?putString@QDebug@kso_qt@@AEAAXPEBVQChar@2@_K@Z
?putUcs4@QDebug@kso_qt@@AEAAXI@Z
?qAddPostRoutine@kso_qt@@YAXP6AXXZ@Z
?qAddPreRoutine@kso_qt@@YAXP6AXXZ@Z
?qAppFileName@kso_qt@@YA?AVQString@1@XZ
?qAppName@kso_qt@@YA?AVQString@1@XZ
?qBadAlloc@kso_qt@@YAXXZ
?qCalculateBlockSize@kso_qt@@YA_K_K00@Z
?qCalculateGrowingBlockSize@kso_qt@@YA?AUCalculateGrowingBlockSizeResult@1@_K00@Z
?qChecksum@kso_qt@@YAGPEBDI@Z
?qChecksum@kso_qt@@YAGPEBDIW4ChecksumType@Qt@1@@Z
?qCleanupFuncinfo@kso_qt@@YA?AVQByteArray@1@V21@@Z
?qCompress@kso_qt@@YA?AVQByteArray@1@PEBEHH@Z
?qDecodeDataUrl@kso_qt@@YA_NAEBVQUrl@1@AEAVQString@1@AEAVQByteArray@1@@Z
?qDeleteInEventHandler@kso_qt@@YAXPEAVQObject@1@@Z
?qDetectCpuFeatures@kso_qt@@YAXXZ
?qEnvironmentVariable@kso_qt@@YA?AVQString@1@PEBD@Z
?qEnvironmentVariable@kso_qt@@YA?AVQString@1@PEBDAEBV21@@Z
?qEnvironmentVariableIntValue@kso_qt@@YAHPEBDPEA_N@Z
?qEnvironmentVariableIsEmpty@kso_qt@@YA_NPEBD@Z
?qEnvironmentVariableIsSet@kso_qt@@YA_NPEBD@Z
?qErrnoWarning@kso_qt@@YAXHPEBDZZ
?qErrnoWarning@kso_qt@@YAXPEBDZZ
?qFlagLocation@kso_qt@@YAPEBDPEBD@Z
?qFloatDistance@kso_qt@@YAIMM@Z
?qFloatDistance@kso_qt@@YA_KNN@Z
?qFloatFromFloat16@kso_qt@@YAXPEAMPEBVqfloat16@1@_J@Z
?qFloatToFloat16@kso_qt@@YAXPEAVqfloat16@1@PEBM_J@Z
?qFormatLogMessage@kso_qt@@YA?AVQString@1@W4QtMsgType@1@AEBVQMessageLogContext@1@AEBV21@@Z
?qFree@kso_qt@@YAXPEAX@Z
?qFreeAligned@kso_qt@@YAXPEAX@Z
?qGlobalPostedEventsCount@kso_qt@@YAIXZ
?qGlobalQHashSeed@kso_qt@@YAHXZ
?qHBApplySingleSubstitute@kso_qt@@YAIPEAXI@Z
?qHBFreeFace@kso_qt@@YAXPEAUHB_FaceRec_@@@Z
?qHBGSUBAddFeature@kso_qt@@YA?AW4HB_Error@@PEAXII@Z
?qHBGSUBSelectScript@kso_qt@@YA?AW4HB_Error@@PEAXIPEAG@Z
?qHBLoadFace@kso_qt@@YAPEAUHB_FaceRec_@@PEAU2@@Z
?qHBNewFace@kso_qt@@YAPEAUHB_FaceRec_@@PEAXP6A?AW4HB_Error@@0IPEAEPEAI@Z@Z
?qHash@kso_qt@@YAIAEBVQBitArray@1@I@Z
?qHash@kso_qt@@YAIAEBVQByteArray@1@I@Z
?qHash@kso_qt@@YAIAEBVQCborArray@1@I@Z
?qHash@kso_qt@@YAIAEBVQCborMap@1@I@Z
?qHash@kso_qt@@YAIAEBVQCborValue@1@I@Z
?qHash@kso_qt@@YAIAEBVQDate@1@I@Z
?qHash@kso_qt@@YAIAEBVQDateTime@1@I@Z
?qHash@kso_qt@@YAIAEBVQJsonArray@1@I@Z
?qHash@kso_qt@@YAIAEBVQJsonObject@1@I@Z
?qHash@kso_qt@@YAIAEBVQJsonValue@1@I@Z
?qHash@kso_qt@@YAIAEBVQLocale@1@I@Z
?qHash@kso_qt@@YAIAEBVQMimeType@1@I@Z
?qHash@kso_qt@@YAIAEBVQRegExp@1@I@Z
?qHash@kso_qt@@YAIAEBVQRegularExpression@1@I@Z
?qHash@kso_qt@@YAIAEBVQString@1@I@Z
?qHash@kso_qt@@YAIAEBVQStringRef@1@I@Z
?qHash@kso_qt@@YAIAEBVQTime@1@I@Z
?qHash@kso_qt@@YAIAEBVQUrl@1@I@Z
?qHash@kso_qt@@YAIAEBVQUrlQuery@1@I@Z
?qHash@kso_qt@@YAIAEBVQUuid@1@I@Z
?qHash@kso_qt@@YAIAEBVQVersionNumber@1@I@Z
?qHash@kso_qt@@YAIMI@Z
?qHash@kso_qt@@YAINI@Z
?qHash@kso_qt@@YAIOI@Z
?qHash@kso_qt@@YAIVQLatin1String@1@I@Z
?qHash@kso_qt@@YAIVQStringView@1@I@Z
?qHashBits@kso_qt@@YAIPEBX_KI@Z
?qInf@kso_qt@@YANXZ
?qInstallMessageHandler@kso_qt@@YAP6AXW4QtMsgType@1@AEBVQMessageLogContext@1@AEBVQString@1@@ZP6AX012@Z@Z
?qInstallMsgHandler@kso_qt@@YAP6AXW4QtMsgType@1@PEBD@ZP6AX01@Z@Z
?qIsEffectiveTLD@kso_qt@@YA_NAEBVQStringRef@1@@Z
?qIsFinite@kso_qt@@YA_NM@Z
?qIsFinite@kso_qt@@YA_NN@Z
?qIsFinite@kso_qt@@YA_NVqfloat16@1@@Z
?qIsInf@kso_qt@@YA_NM@Z
?qIsInf@kso_qt@@YA_NN@Z
?qIsInf@kso_qt@@YA_NVqfloat16@1@@Z
?qIsNaN@kso_qt@@YA_NM@Z
?qIsNaN@kso_qt@@YA_NN@Z
?qIsNaN@kso_qt@@YA_NVqfloat16@1@@Z
?qMalloc@kso_qt@@YAPEAX_K@Z
?qMallocAligned@kso_qt@@YAPEAX_K0@Z
?qMemCopy@kso_qt@@YAPEAXPEAXPEBX_K@Z
?qMemSet@kso_qt@@YAPEAXPEAXH_K@Z
?qMetaObjectWidgetsHelper@kso_qt@@3PEBUQMetaObject@1@EB
?qMetaTypeGuiHelper@kso_qt@@3PEBVQMetaTypeInterface@1@EB
?qMetaTypeWidgetsHelper@kso_qt@@3PEBVQMetaTypeInterface@1@EB
?qModuleDirPath@kso_qt@@YA?AVQString@1@XZ
?qQNaN@kso_qt@@YANXZ
?qRandomCpu@kso_qt@@YA_JPEAX_J@Z
?qRealloc@kso_qt@@YAPEAXPEAX_K@Z
?qReallocAligned@kso_qt@@YAPEAXPEAX_K11@Z
?qRegisterResourceData@kso_qt@@YA_NHPEBE00@Z
?qRegisterStaticPluginFunction@kso_qt@@YAXUQStaticPlugin@1@@Z
?qRemovePostRoutine@kso_qt@@YAXP6AXXZ@Z
?qSNaN@kso_qt@@YANXZ
?qSetGlobalQHashSeed@kso_qt@@YAXH@Z
?qSetMessagePattern@kso_qt@@YAXAEBVQString@1@@Z
?qShapeItem@kso_qt@@YAEPEAUHB_ShaperItem_@@@Z
?qSharedBuild@kso_qt@@YA_NXZ
?qSleep@QTestPrivate@kso_qt@@YAXH@Z
?qTerminate@kso_qt@@YAXXZ
?qTopLevelDomain@kso_qt@@YA?AVQString@1@AEBV21@@Z
?qUncompress@kso_qt@@YA?AVQByteArray@1@PEBEH@Z
?qUnregisterResourceData@kso_qt@@YA_NHPEBE00@Z
?qVersion@kso_qt@@YAPEBDXZ
?qWait@QTest@kso_qt@@YAXH@Z
?qWinAppCmdShow@kso_qt@@YAHXZ
?qWinAppInst@kso_qt@@YAPEAUHINSTANCE__@@XZ
?qWinAppPrevInst@kso_qt@@YAPEAUHINSTANCE__@@XZ
?q_func@QAbstractEventDispatcherPrivate@kso_qt@@AEAAPEAVQAbstractEventDispatcher@2@XZ
?q_func@QAbstractEventDispatcherPrivate@kso_qt@@AEBAPEBVQAbstractEventDispatcher@2@XZ
?q_func@QAbstractItemModelPrivate@kso_qt@@AEAAPEAVQAbstractItemModel@2@XZ
?q_func@QAbstractItemModelPrivate@kso_qt@@AEBAPEBVQAbstractItemModel@2@XZ
?q_func@QAbstractProxyModelPrivate@kso_qt@@AEAAPEAVQAbstractProxyModel@2@XZ
?q_func@QAbstractProxyModelPrivate@kso_qt@@AEBAPEBVQAbstractProxyModel@2@XZ
?q_func@QAbstractTransitionPrivate@kso_qt@@AEAAPEAVQAbstractTransition@2@XZ
?q_func@QAbstractTransitionPrivate@kso_qt@@AEBAPEBVQAbstractTransition@2@XZ
?q_func@QCoreApplicationPrivate@kso_qt@@AEAAPEAVQCoreApplication@2@XZ
?q_func@QCoreApplicationPrivate@kso_qt@@AEBAPEBVQCoreApplication@2@XZ
?q_func@QEventDispatcherWin32Private@kso_qt@@AEAAPEAVQEventDispatcherWin32@2@XZ
?q_func@QEventDispatcherWin32Private@kso_qt@@AEBAPEBVQEventDispatcherWin32@2@XZ
?q_func@QEventTransitionPrivate@kso_qt@@AEAAPEAVQEventTransition@2@XZ
?q_func@QEventTransitionPrivate@kso_qt@@AEBAPEBVQEventTransition@2@XZ
?q_func@QFSFileEnginePrivate@kso_qt@@AEAAPEAVQFSFileEngine@2@XZ
?q_func@QFSFileEnginePrivate@kso_qt@@AEBAPEBVQFSFileEngine@2@XZ
?q_func@QFileSelectorPrivate@kso_qt@@AEAAPEAVQFileSelector@2@XZ
?q_func@QFileSelectorPrivate@kso_qt@@AEBAPEBVQFileSelector@2@XZ
?q_func@QFinalStatePrivate@kso_qt@@AEAAPEAVQFinalState@2@XZ
?q_func@QFinalStatePrivate@kso_qt@@AEBAPEBVQFinalState@2@XZ
?q_func@QIODevicePrivate@kso_qt@@AEAAPEAVQIODevice@2@XZ
?q_func@QIODevicePrivate@kso_qt@@AEBAPEBVQIODevice@2@XZ
?q_func@QObjectPrivate@kso_qt@@AEAAPEAVQObject@2@XZ
?q_func@QObjectPrivate@kso_qt@@AEBAPEBVQObject@2@XZ
?q_func@QSettingsPrivate@kso_qt@@AEAAPEAVQSettings@2@XZ
?q_func@QSettingsPrivate@kso_qt@@AEBAPEBVQSettings@2@XZ
?q_func@QSharedMemoryPrivate@kso_qt@@AEAAPEAVQSharedMemory@2@XZ
?q_func@QSharedMemoryPrivate@kso_qt@@AEBAPEBVQSharedMemory@2@XZ
?q_func@QStateMachinePrivate@kso_qt@@AEAAPEAVQStateMachine@2@XZ
?q_func@QStateMachinePrivate@kso_qt@@AEBAPEBVQStateMachine@2@XZ
?q_func@QStatePrivate@kso_qt@@AEAAPEAVQState@2@XZ
?q_func@QStatePrivate@kso_qt@@AEBAPEBVQState@2@XZ
?q_func@QThreadPoolPrivate@kso_qt@@AEAAPEAVQThreadPool@2@XZ
?q_func@QThreadPoolPrivate@kso_qt@@AEBAPEBVQThreadPool@2@XZ
?qcoreStateMachineHandler@kso_qt@@YAPEBUHandler@QStateMachinePrivate@1@XZ
?qcoreVariantHandler@kso_qt@@YAPEBUHandler@QVariant@1@XZ
?qdtoa@kso_qt@@YA?AVQString@1@NPEAH0@Z
?qgetenv@kso_qt@@YA?AVQByteArray@1@PEBD@Z
?qmime_secondsBetweenChecks@kso_qt@@3HA
?qmljsDebugArgumentsString@QCoreApplicationPrivate@kso_qt@@QEAA?AVQString@2@XZ
?qputenv@kso_qt@@YA_NPEBDAEBVQByteArray@1@@Z
?qrand@kso_qt@@YAHXZ
?qsnprintf@kso_qt@@YAHPEAD_KPEBDZZ
?qsrand@kso_qt@@YAXI@Z
?qstrcmp@kso_qt@@YAHAEBVQByteArray@1@0@Z
?qstrcmp@kso_qt@@YAHAEBVQByteArray@1@PEBD@Z
?qstrcmp@kso_qt@@YAHPEBD0@Z
?qstrcpy@kso_qt@@YAPEADPEADPEBD@Z
?qstrdup@kso_qt@@YAPEADPEBD@Z
?qstricmp@kso_qt@@YAHPEBD0@Z
?qstrncpy@kso_qt@@YAPEADPEADPEBDI@Z
?qstrnicmp@kso_qt@@YAHPEBD0I@Z
?qstrnicmp@kso_qt@@YAHPEBD_J01@Z
?qstrntod@kso_qt@@YANPEBDHPEAPEBDPEA_N@Z
?qstrtod@kso_qt@@YANPEBDPEAPEBDPEA_N@Z
?qtConfiguration@QLibraryInfo@kso_qt@@SAPEAVQSettings@2@XZ
?qtHookData@kso_qt@@3PA_KA
?qtTrId@kso_qt@@YA?AVQString@1@PEBDH@Z
?qt_QMetaEnum_debugOperator@kso_qt@@YA?AVQDebug@1@AEAV21@HPEBUQMetaObject@1@PEBD@Z
?qt_QMetaEnum_flagDebugOperator@kso_qt@@YA?AVQDebug@1@AEAV21@_KPEBUQMetaObject@1@PEBD@Z
?qt_QMetaEnum_flagDebugOperator@kso_qt@@YAXAEAVQDebug@1@_KH@Z
?qt_applicationName_noFallback@kso_qt@@YA?AVQString@1@XZ
?qt_assert@kso_qt@@YAXPEBD0H@Z
?qt_assert_x@kso_qt@@YAXPEBD00H@Z
?qt_call_post_routines@kso_qt@@YAXXZ
?qt_cbor_simpletype_id@kso_qt@@YAPEBDW4QCborSimpleType@1@@Z
?qt_cbor_tag_id@kso_qt@@YAPEBDW4QCborTag@1@@Z
?qt_check_pointer@kso_qt@@YAXPEBDH@Z
?qt_check_std3rules@kso_qt@@YA_NPEBVQChar@1@H@Z
?qt_cpu_features@kso_qt@@3PAV?$QBasicAtomicInteger@_K@1@A
?qt_error_string@kso_qt@@YA?AVQString@1@H@Z
?qt_hash@kso_qt@@YAIVQStringView@1@I@Z
?qt_initcharattributes_default_algorithm_only@kso_qt@@3HA
?qt_int_sqrt@kso_qt@@YAII@Z
?qt_localeFromLCID@kso_qt@@YA?AVQLocale@1@K@Z
?qt_message_output@kso_qt@@YAXW4QtMsgType@1@AEBVQMessageLogContext@1@AEBVQString@1@@Z
?qt_metacall@QAbstractAnimation@kso_qt@@UEAAHW4Call@QMetaObject@2@HPEAPEAX@Z
?qt_metacall@QAbstractAnimationTimer@kso_qt@@UEAAHW4Call@QMetaObject@2@HPEAPEAX@Z
?qt_metacall@QAbstractEventDispatcher@kso_qt@@UEAAHW4Call@QMetaObject@2@HPEAPEAX@Z
?qt_metacall@QAbstractItemModel@kso_qt@@UEAAHW4Call@QMetaObject@2@HPEAPEAX@Z
?qt_metacall@QAbstractListModel@kso_qt@@UEAAHW4Call@QMetaObject@2@HPEAPEAX@Z
?qt_metacall@QAbstractProxyModel@kso_qt@@UEAAHW4Call@QMetaObject@2@HPEAPEAX@Z
?qt_metacall@QAbstractState@kso_qt@@UEAAHW4Call@QMetaObject@2@HPEAPEAX@Z
?qt_metacall@QAbstractTableModel@kso_qt@@UEAAHW4Call@QMetaObject@2@HPEAPEAX@Z
?qt_metacall@QAbstractTransition@kso_qt@@UEAAHW4Call@QMetaObject@2@HPEAPEAX@Z
?qt_metacall@QAnimationDriver@kso_qt@@UEAAHW4Call@QMetaObject@2@HPEAPEAX@Z
?qt_metacall@QAnimationGroup@kso_qt@@UEAAHW4Call@QMetaObject@2@HPEAPEAX@Z
?qt_metacall@QBuffer@kso_qt@@UEAAHW4Call@QMetaObject@2@HPEAPEAX@Z
?qt_metacall@QCoreApplication@kso_qt@@UEAAHW4Call@QMetaObject@2@HPEAPEAX@Z
?qt_metacall@QEventDispatcherWin32@kso_qt@@UEAAHW4Call@QMetaObject@2@HPEAPEAX@Z
?qt_metacall@QEventLoop@kso_qt@@UEAAHW4Call@QMetaObject@2@HPEAPEAX@Z
?qt_metacall@QEventTransition@kso_qt@@UEAAHW4Call@QMetaObject@2@HPEAPEAX@Z
?qt_metacall@QFactoryLoader@kso_qt@@UEAAHW4Call@QMetaObject@2@HPEAPEAX@Z
?qt_metacall@QFile@kso_qt@@UEAAHW4Call@QMetaObject@2@HPEAPEAX@Z
?qt_metacall@QFileDevice@kso_qt@@UEAAHW4Call@QMetaObject@2@HPEAPEAX@Z
?qt_metacall@QFileSelector@kso_qt@@UEAAHW4Call@QMetaObject@2@HPEAPEAX@Z
?qt_metacall@QFileSystemWatcher@kso_qt@@UEAAHW4Call@QMetaObject@2@HPEAPEAX@Z
?qt_metacall@QFinalState@kso_qt@@UEAAHW4Call@QMetaObject@2@HPEAPEAX@Z
?qt_metacall@QFutureWatcherBase@kso_qt@@UEAAHW4Call@QMetaObject@2@HPEAPEAX@Z
?qt_metacall@QHistoryState@kso_qt@@UEAAHW4Call@QMetaObject@2@HPEAPEAX@Z
?qt_metacall@QIODevice@kso_qt@@UEAAHW4Call@QMetaObject@2@HPEAPEAX@Z
?qt_metacall@QIdentityProxyModel@kso_qt@@UEAAHW4Call@QMetaObject@2@HPEAPEAX@Z
?qt_metacall@QItemSelectionModel@kso_qt@@UEAAHW4Call@QMetaObject@2@HPEAPEAX@Z
?qt_metacall@QLibrary@kso_qt@@UEAAHW4Call@QMetaObject@2@HPEAPEAX@Z
?qt_metacall@QMimeData@kso_qt@@UEAAHW4Call@QMetaObject@2@HPEAPEAX@Z
?qt_metacall@QNonContiguousByteDevice@kso_qt@@UEAAHW4Call@QMetaObject@2@HPEAPEAX@Z
?qt_metacall@QObject@kso_qt@@UEAAHW4Call@QMetaObject@2@HPEAPEAX@Z
?qt_metacall@QObjectCleanupHandler@kso_qt@@UEAAHW4Call@QMetaObject@2@HPEAPEAX@Z
?qt_metacall@QParallelAnimationGroup@kso_qt@@UEAAHW4Call@QMetaObject@2@HPEAPEAX@Z
?qt_metacall@QPauseAnimation@kso_qt@@UEAAHW4Call@QMetaObject@2@HPEAPEAX@Z
?qt_metacall@QPluginLoader@kso_qt@@UEAAHW4Call@QMetaObject@2@HPEAPEAX@Z
?qt_metacall@QProcess@kso_qt@@UEAAHW4Call@QMetaObject@2@HPEAPEAX@Z
?qt_metacall@QPropertyAnimation@kso_qt@@UEAAHW4Call@QMetaObject@2@HPEAPEAX@Z
?qt_metacall@QSaveFile@kso_qt@@UEAAHW4Call@QMetaObject@2@HPEAPEAX@Z
?qt_metacall@QSequentialAnimationGroup@kso_qt@@UEAAHW4Call@QMetaObject@2@HPEAPEAX@Z
?qt_metacall@QSettings@kso_qt@@UEAAHW4Call@QMetaObject@2@HPEAPEAX@Z
?qt_metacall@QSharedMemory@kso_qt@@UEAAHW4Call@QMetaObject@2@HPEAPEAX@Z
?qt_metacall@QSignalMapper@kso_qt@@UEAAHW4Call@QMetaObject@2@HPEAPEAX@Z
?qt_metacall@QSignalTransition@kso_qt@@UEAAHW4Call@QMetaObject@2@HPEAPEAX@Z
?qt_metacall@QSocketNotifier@kso_qt@@UEAAHW4Call@QMetaObject@2@HPEAPEAX@Z
?qt_metacall@QSortFilterProxyModel@kso_qt@@UEAAHW4Call@QMetaObject@2@HPEAPEAX@Z
?qt_metacall@QState@kso_qt@@UEAAHW4Call@QMetaObject@2@HPEAPEAX@Z
?qt_metacall@QStateMachine@kso_qt@@UEAAHW4Call@QMetaObject@2@HPEAPEAX@Z
?qt_metacall@QStringListModel@kso_qt@@UEAAHW4Call@QMetaObject@2@HPEAPEAX@Z
?qt_metacall@QTemporaryFile@kso_qt@@UEAAHW4Call@QMetaObject@2@HPEAPEAX@Z
?qt_metacall@QThread@kso_qt@@UEAAHW4Call@QMetaObject@2@HPEAPEAX@Z
?qt_metacall@QThreadPool@kso_qt@@UEAAHW4Call@QMetaObject@2@HPEAPEAX@Z
?qt_metacall@QTimeLine@kso_qt@@UEAAHW4Call@QMetaObject@2@HPEAPEAX@Z
?qt_metacall@QTimer@kso_qt@@UEAAHW4Call@QMetaObject@2@HPEAPEAX@Z
?qt_metacall@QTranslator@kso_qt@@UEAAHW4Call@QMetaObject@2@HPEAPEAX@Z
?qt_metacall@QUnifiedTimer@kso_qt@@UEAAHW4Call@QMetaObject@2@HPEAPEAX@Z
?qt_metacall@QVariantAnimation@kso_qt@@UEAAHW4Call@QMetaObject@2@HPEAPEAX@Z
?qt_metacall@QWinEventNotifier@kso_qt@@UEAAHW4Call@QMetaObject@2@HPEAPEAX@Z
?qt_metacall@QWindowsPipeReader@kso_qt@@UEAAHW4Call@QMetaObject@2@HPEAPEAX@Z
?qt_metacall@QWindowsPipeWriter@kso_qt@@UEAAHW4Call@QMetaObject@2@HPEAPEAX@Z
?qt_metacast@QAbstractAnimation@kso_qt@@UEAAPEAXPEBD@Z
?qt_metacast@QAbstractAnimationTimer@kso_qt@@UEAAPEAXPEBD@Z
?qt_metacast@QAbstractEventDispatcher@kso_qt@@UEAAPEAXPEBD@Z
?qt_metacast@QAbstractItemModel@kso_qt@@UEAAPEAXPEBD@Z
?qt_metacast@QAbstractListModel@kso_qt@@UEAAPEAXPEBD@Z
?qt_metacast@QAbstractProxyModel@kso_qt@@UEAAPEAXPEBD@Z
?qt_metacast@QAbstractState@kso_qt@@UEAAPEAXPEBD@Z
?qt_metacast@QAbstractTableModel@kso_qt@@UEAAPEAXPEBD@Z
?qt_metacast@QAbstractTransition@kso_qt@@UEAAPEAXPEBD@Z
?qt_metacast@QAnimationDriver@kso_qt@@UEAAPEAXPEBD@Z
?qt_metacast@QAnimationGroup@kso_qt@@UEAAPEAXPEBD@Z
?qt_metacast@QBuffer@kso_qt@@UEAAPEAXPEBD@Z
?qt_metacast@QCoreApplication@kso_qt@@UEAAPEAXPEBD@Z
?qt_metacast@QEventDispatcherWin32@kso_qt@@UEAAPEAXPEBD@Z
?qt_metacast@QEventLoop@kso_qt@@UEAAPEAXPEBD@Z
?qt_metacast@QEventTransition@kso_qt@@UEAAPEAXPEBD@Z
?qt_metacast@QFactoryLoader@kso_qt@@UEAAPEAXPEBD@Z
?qt_metacast@QFile@kso_qt@@UEAAPEAXPEBD@Z
?qt_metacast@QFileDevice@kso_qt@@UEAAPEAXPEBD@Z
?qt_metacast@QFileSelector@kso_qt@@UEAAPEAXPEBD@Z
?qt_metacast@QFileSystemWatcher@kso_qt@@UEAAPEAXPEBD@Z
?qt_metacast@QFinalState@kso_qt@@UEAAPEAXPEBD@Z
?qt_metacast@QFutureWatcherBase@kso_qt@@UEAAPEAXPEBD@Z
?qt_metacast@QHistoryState@kso_qt@@UEAAPEAXPEBD@Z
?qt_metacast@QIODevice@kso_qt@@UEAAPEAXPEBD@Z
?qt_metacast@QIdentityProxyModel@kso_qt@@UEAAPEAXPEBD@Z
?qt_metacast@QItemSelectionModel@kso_qt@@UEAAPEAXPEBD@Z
?qt_metacast@QLibrary@kso_qt@@UEAAPEAXPEBD@Z
?qt_metacast@QMimeData@kso_qt@@UEAAPEAXPEBD@Z
?qt_metacast@QNonContiguousByteDevice@kso_qt@@UEAAPEAXPEBD@Z
?qt_metacast@QObject@kso_qt@@UEAAPEAXPEBD@Z
?qt_metacast@QObjectCleanupHandler@kso_qt@@UEAAPEAXPEBD@Z
?qt_metacast@QParallelAnimationGroup@kso_qt@@UEAAPEAXPEBD@Z
?qt_metacast@QPauseAnimation@kso_qt@@UEAAPEAXPEBD@Z
?qt_metacast@QPluginLoader@kso_qt@@UEAAPEAXPEBD@Z
?qt_metacast@QProcess@kso_qt@@UEAAPEAXPEBD@Z
?qt_metacast@QPropertyAnimation@kso_qt@@UEAAPEAXPEBD@Z
?qt_metacast@QSaveFile@kso_qt@@UEAAPEAXPEBD@Z
?qt_metacast@QSequentialAnimationGroup@kso_qt@@UEAAPEAXPEBD@Z
?qt_metacast@QSettings@kso_qt@@UEAAPEAXPEBD@Z
?qt_metacast@QSharedMemory@kso_qt@@UEAAPEAXPEBD@Z
?qt_metacast@QSignalMapper@kso_qt@@UEAAPEAXPEBD@Z
?qt_metacast@QSignalTransition@kso_qt@@UEAAPEAXPEBD@Z
?qt_metacast@QSocketNotifier@kso_qt@@UEAAPEAXPEBD@Z
?qt_metacast@QSortFilterProxyModel@kso_qt@@UEAAPEAXPEBD@Z
?qt_metacast@QState@kso_qt@@UEAAPEAXPEBD@Z
?qt_metacast@QStateMachine@kso_qt@@UEAAPEAXPEBD@Z
?qt_metacast@QStringListModel@kso_qt@@UEAAPEAXPEBD@Z
?qt_metacast@QTemporaryFile@kso_qt@@UEAAPEAXPEBD@Z
?qt_metacast@QThread@kso_qt@@UEAAPEAXPEBD@Z
?qt_metacast@QThreadPool@kso_qt@@UEAAPEAXPEBD@Z
?qt_metacast@QTimeLine@kso_qt@@UEAAPEAXPEBD@Z
?qt_metacast@QTimer@kso_qt@@UEAAPEAXPEBD@Z
?qt_metacast@QTranslator@kso_qt@@UEAAPEAXPEBD@Z
?qt_metacast@QUnifiedTimer@kso_qt@@UEAAPEAXPEBD@Z
?qt_metacast@QVariantAnimation@kso_qt@@UEAAPEAXPEBD@Z
?qt_metacast@QWinEventNotifier@kso_qt@@UEAAPEAXPEBD@Z
?qt_metacast@QWindowsPipeReader@kso_qt@@UEAAPEAXPEBD@Z
?qt_metacast@QWindowsPipeWriter@kso_qt@@UEAAPEAXPEBD@Z
?qt_nameprep@kso_qt@@YA_NPEAVQString@1@H@Z
?qt_normalizePathSegments@kso_qt@@YA?AVQString@1@AEBV21@V?$QFlags@W4PathNormalization@QDirPrivate@kso_qt@@@1@PEA_N@Z
?qt_ntfs_permission_lookup@kso_qt@@3HA
?qt_punycodeDecoder@kso_qt@@YA?AVQString@1@AEBV21@@Z
?qt_punycodeEncoder@kso_qt@@YAXPEBVQChar@1@HPEAVQString@1@@Z
?qt_qFindChild_helper@kso_qt@@YAPEAVQObject@1@PEBV21@AEBVQString@1@AEBUQMetaObject@1@V?$QFlags@W4FindChildOption@Qt@kso_qt@@@1@@Z
?qt_qFindChildren_helper@kso_qt@@YAXPEBVQObject@1@AEBVQRegExp@1@AEBUQMetaObject@1@PEAV?$QList@PEAX@1@V?$QFlags@W4FindChildOption@Qt@kso_qt@@@1@@Z
?qt_qFindChildren_helper@kso_qt@@YAXPEBVQObject@1@AEBVQRegularExpression@1@AEBUQMetaObject@1@PEAV?$QList@PEAX@1@V?$QFlags@W4FindChildOption@Qt@kso_qt@@@1@@Z
?qt_qFindChildren_helper@kso_qt@@YAXPEBVQObject@1@AEBVQString@1@AEBUQMetaObject@1@PEAV?$QList@PEAX@1@V?$QFlags@W4FindChildOption@Qt@kso_qt@@@1@@Z
?qt_randomdevice_control@kso_qt@@3V?$QBasicAtomicInteger@I@1@A
?qt_regexp_toCanonical@kso_qt@@YA?AVQString@1@AEBV21@W4PatternSyntax@QRegExp@1@@Z
?qt_register_signal_spy_callbacks@kso_qt@@YAXAEBUQSignalSpyCallbackSet@1@@Z
?qt_signal_spy_callback_set@kso_qt@@3UQSignalSpyCallbackSet@1@A
?qt_sine_table@kso_qt@@3QBNB
?qt_static_metacall@QAbstractAnimation@kso_qt@@CAXPEAVQObject@2@W4Call@QMetaObject@2@HPEAPEAX@Z
?qt_static_metacall@QAbstractAnimationTimer@kso_qt@@CAXPEAVQObject@2@W4Call@QMetaObject@2@HPEAPEAX@Z
?qt_static_metacall@QAbstractEventDispatcher@kso_qt@@CAXPEAVQObject@2@W4Call@QMetaObject@2@HPEAPEAX@Z
?qt_static_metacall@QAbstractItemModel@kso_qt@@CAXPEAVQObject@2@W4Call@QMetaObject@2@HPEAPEAX@Z
?qt_static_metacall@QAbstractListModel@kso_qt@@CAXPEAVQObject@2@W4Call@QMetaObject@2@HPEAPEAX@Z
?qt_static_metacall@QAbstractProxyModel@kso_qt@@CAXPEAVQObject@2@W4Call@QMetaObject@2@HPEAPEAX@Z
?qt_static_metacall@QAbstractState@kso_qt@@CAXPEAVQObject@2@W4Call@QMetaObject@2@HPEAPEAX@Z
?qt_static_metacall@QAbstractTableModel@kso_qt@@CAXPEAVQObject@2@W4Call@QMetaObject@2@HPEAPEAX@Z
?qt_static_metacall@QAbstractTransition@kso_qt@@CAXPEAVQObject@2@W4Call@QMetaObject@2@HPEAPEAX@Z
?qt_static_metacall@QAnimationDriver@kso_qt@@CAXPEAVQObject@2@W4Call@QMetaObject@2@HPEAPEAX@Z
?qt_static_metacall@QAnimationGroup@kso_qt@@CAXPEAVQObject@2@W4Call@QMetaObject@2@HPEAPEAX@Z
?qt_static_metacall@QBuffer@kso_qt@@CAXPEAVQObject@2@W4Call@QMetaObject@2@HPEAPEAX@Z
?qt_static_metacall@QCoreApplication@kso_qt@@CAXPEAVQObject@2@W4Call@QMetaObject@2@HPEAPEAX@Z
?qt_static_metacall@QEventDispatcherWin32@kso_qt@@CAXPEAVQObject@2@W4Call@QMetaObject@2@HPEAPEAX@Z
?qt_static_metacall@QEventLoop@kso_qt@@CAXPEAVQObject@2@W4Call@QMetaObject@2@HPEAPEAX@Z
?qt_static_metacall@QEventTransition@kso_qt@@CAXPEAVQObject@2@W4Call@QMetaObject@2@HPEAPEAX@Z
?qt_static_metacall@QFactoryLoader@kso_qt@@CAXPEAVQObject@2@W4Call@QMetaObject@2@HPEAPEAX@Z
?qt_static_metacall@QFile@kso_qt@@CAXPEAVQObject@2@W4Call@QMetaObject@2@HPEAPEAX@Z
?qt_static_metacall@QFileDevice@kso_qt@@CAXPEAVQObject@2@W4Call@QMetaObject@2@HPEAPEAX@Z
?qt_static_metacall@QFileSelector@kso_qt@@CAXPEAVQObject@2@W4Call@QMetaObject@2@HPEAPEAX@Z
?qt_static_metacall@QFileSystemWatcher@kso_qt@@CAXPEAVQObject@2@W4Call@QMetaObject@2@HPEAPEAX@Z
?qt_static_metacall@QFinalState@kso_qt@@CAXPEAVQObject@2@W4Call@QMetaObject@2@HPEAPEAX@Z
?qt_static_metacall@QFutureWatcherBase@kso_qt@@CAXPEAVQObject@2@W4Call@QMetaObject@2@HPEAPEAX@Z
?qt_static_metacall@QHistoryState@kso_qt@@CAXPEAVQObject@2@W4Call@QMetaObject@2@HPEAPEAX@Z
?qt_static_metacall@QIODevice@kso_qt@@CAXPEAVQObject@2@W4Call@QMetaObject@2@HPEAPEAX@Z
?qt_static_metacall@QIdentityProxyModel@kso_qt@@CAXPEAVQObject@2@W4Call@QMetaObject@2@HPEAPEAX@Z
?qt_static_metacall@QItemSelectionModel@kso_qt@@CAXPEAVQObject@2@W4Call@QMetaObject@2@HPEAPEAX@Z
?qt_static_metacall@QLibrary@kso_qt@@CAXPEAVQObject@2@W4Call@QMetaObject@2@HPEAPEAX@Z
?qt_static_metacall@QMimeData@kso_qt@@CAXPEAVQObject@2@W4Call@QMetaObject@2@HPEAPEAX@Z
?qt_static_metacall@QMimeType@kso_qt@@CAXPEAVQObject@2@W4Call@QMetaObject@2@HPEAPEAX@Z
?qt_static_metacall@QNonContiguousByteDevice@kso_qt@@CAXPEAVQObject@2@W4Call@QMetaObject@2@HPEAPEAX@Z
?qt_static_metacall@QObject@kso_qt@@CAXPEAV12@W4Call@QMetaObject@2@HPEAPEAX@Z
?qt_static_metacall@QObjectCleanupHandler@kso_qt@@CAXPEAVQObject@2@W4Call@QMetaObject@2@HPEAPEAX@Z
?qt_static_metacall@QParallelAnimationGroup@kso_qt@@CAXPEAVQObject@2@W4Call@QMetaObject@2@HPEAPEAX@Z
?qt_static_metacall@QPauseAnimation@kso_qt@@CAXPEAVQObject@2@W4Call@QMetaObject@2@HPEAPEAX@Z
?qt_static_metacall@QPluginLoader@kso_qt@@CAXPEAVQObject@2@W4Call@QMetaObject@2@HPEAPEAX@Z
?qt_static_metacall@QProcess@kso_qt@@CAXPEAVQObject@2@W4Call@QMetaObject@2@HPEAPEAX@Z
?qt_static_metacall@QPropertyAnimation@kso_qt@@CAXPEAVQObject@2@W4Call@QMetaObject@2@HPEAPEAX@Z
?qt_static_metacall@QSaveFile@kso_qt@@CAXPEAVQObject@2@W4Call@QMetaObject@2@HPEAPEAX@Z
?qt_static_metacall@QSequentialAnimationGroup@kso_qt@@CAXPEAVQObject@2@W4Call@QMetaObject@2@HPEAPEAX@Z
?qt_static_metacall@QSettings@kso_qt@@CAXPEAVQObject@2@W4Call@QMetaObject@2@HPEAPEAX@Z
?qt_static_metacall@QSharedMemory@kso_qt@@CAXPEAVQObject@2@W4Call@QMetaObject@2@HPEAPEAX@Z
?qt_static_metacall@QSignalMapper@kso_qt@@CAXPEAVQObject@2@W4Call@QMetaObject@2@HPEAPEAX@Z
?qt_static_metacall@QSignalTransition@kso_qt@@CAXPEAVQObject@2@W4Call@QMetaObject@2@HPEAPEAX@Z
?qt_static_metacall@QSocketNotifier@kso_qt@@CAXPEAVQObject@2@W4Call@QMetaObject@2@HPEAPEAX@Z
?qt_static_metacall@QSortFilterProxyModel@kso_qt@@CAXPEAVQObject@2@W4Call@QMetaObject@2@HPEAPEAX@Z
?qt_static_metacall@QState@kso_qt@@CAXPEAVQObject@2@W4Call@QMetaObject@2@HPEAPEAX@Z
?qt_static_metacall@QStateMachine@kso_qt@@CAXPEAVQObject@2@W4Call@QMetaObject@2@HPEAPEAX@Z
?qt_static_metacall@QStringListModel@kso_qt@@CAXPEAVQObject@2@W4Call@QMetaObject@2@HPEAPEAX@Z
?qt_static_metacall@QTemporaryFile@kso_qt@@CAXPEAVQObject@2@W4Call@QMetaObject@2@HPEAPEAX@Z
?qt_static_metacall@QThread@kso_qt@@CAXPEAVQObject@2@W4Call@QMetaObject@2@HPEAPEAX@Z
?qt_static_metacall@QThreadPool@kso_qt@@CAXPEAVQObject@2@W4Call@QMetaObject@2@HPEAPEAX@Z
?qt_static_metacall@QTimeLine@kso_qt@@CAXPEAVQObject@2@W4Call@QMetaObject@2@HPEAPEAX@Z
?qt_static_metacall@QTimer@kso_qt@@CAXPEAVQObject@2@W4Call@QMetaObject@2@HPEAPEAX@Z
?qt_static_metacall@QTranslator@kso_qt@@CAXPEAVQObject@2@W4Call@QMetaObject@2@HPEAPEAX@Z
?qt_static_metacall@QUnifiedTimer@kso_qt@@CAXPEAVQObject@2@W4Call@QMetaObject@2@HPEAPEAX@Z
?qt_static_metacall@QVariantAnimation@kso_qt@@CAXPEAVQObject@2@W4Call@QMetaObject@2@HPEAPEAX@Z
?qt_static_metacall@QWinEventNotifier@kso_qt@@CAXPEAVQObject@2@W4Call@QMetaObject@2@HPEAPEAX@Z
?qt_static_metacall@QWindowsPipeReader@kso_qt@@CAXPEAVQObject@2@W4Call@QMetaObject@2@HPEAPEAX@Z
?qt_static_metacall@QWindowsPipeWriter@kso_qt@@CAXPEAVQObject@2@W4Call@QMetaObject@2@HPEAPEAX@Z
?qt_subtract_from_timeout@kso_qt@@YAHHH@Z
?qt_urlRecode@kso_qt@@YAHAEAVQString@1@PEBVQChar@1@1V?$QFlags@W4ComponentFormattingOption@QUrl@kso_qt@@@1@PEBG@Z
?qt_urlRecodeByteArray@kso_qt@@YA?AVQString@1@AEBVQByteArray@1@@Z
?qualifiedName@QXmlStreamAttribute@kso_qt@@QEBA?AVQStringRef@2@XZ
?qualifiedName@QXmlStreamReader@kso_qt@@QEBA?AVQStringRef@2@XZ
?query@QSystemLocale@kso_qt@@UEBA?AVQVariant@2@W4QueryType@12@V32@@Z
?query@QUrl@kso_qt@@QEBA?AVQString@2@V?$QFlags@W4ComponentFormattingOption@QUrl@kso_qt@@@2@@Z
?query@QUrlQuery@kso_qt@@QEBA?AVQString@2@V?$QFlags@W4ComponentFormattingOption@QUrl@kso_qt@@@2@@Z
?queryItemValue@QUrl@kso_qt@@QEBA?AVQString@2@AEBV32@@Z
?queryItemValue@QUrlQuery@kso_qt@@QEBA?AVQString@2@AEBV32@V?$QFlags@W4ComponentFormattingOption@QUrl@kso_qt@@@2@@Z
?queryItems@QUrl@kso_qt@@QEBA?AV?$QList@U?$QPair@VQString@kso_qt@@V12@@kso_qt@@@2@XZ
?queryItems@QUrlQuery@kso_qt@@QEBA?AV?$QList@U?$QPair@VQString@kso_qt@@V12@@kso_qt@@@2@V?$QFlags@W4ComponentFormattingOption@QUrl@kso_qt@@@2@@Z
?queryPairDelimiter@QUrlQuery@kso_qt@@QEBA?AVQChar@2@XZ
?queryState@QFutureInterfaceBase@kso_qt@@QEBA_NW4State@12@@Z
?queryValueDelimiter@QUrlQuery@kso_qt@@QEBA?AVQChar@2@XZ
?quit@QCoreApplication@kso_qt@@SAXXZ
?quit@QEventLoop@kso_qt@@QEAAXXZ
?quit@QThread@kso_qt@@QEAAXXZ
?qunsetenv@kso_qt@@YA_NPEBD@Z
?quote@QDebug@kso_qt@@QEAAAEAV12@XZ
?quoteString@QLocale@kso_qt@@QEBA?AVQString@2@AEBV32@W4QuotationStyle@12@@Z
?quoteString@QLocale@kso_qt@@QEBA?AVQString@2@AEBVQStringRef@2@W4QuotationStyle@12@@Z
?qustrchr@QtPrivate@kso_qt@@YAPEBGVQStringView@2@G@Z
?qustrlen@QtPrivate@kso_qt@@YA_JPEBG@Z
?qvsnprintf@kso_qt@@YAHPEAD_KPEBD0@Z
?raise@QException@kso_qt@@UEBAXXZ
?raise@QUnhandledException@kso_qt@@UEBAXXZ
?raiseError@QXmlStreamReader@kso_qt@@QEAAXAEBVQString@2@@Z
?rangeContains@QXmlUtils@kso_qt@@CA_NPEBVQXmlCharRange@2@0VQChar@2@@Z
?rawData@QJsonDocument@kso_qt@@QEBAPEBDPEAH@Z
?rawName@QLocalePrivate@kso_qt@@QEBA?AVQByteArray@2@D@Z
?rawRemainingTimeNSecs@QDeadlineTimer@kso_qt@@AEBA_JXZ
?rbegin@?$QList@VQItemSelectionRange@kso_qt@@@kso_qt@@QEAA?AV?$reverse_iterator@Viterator@?$QList@VQItemSelectionRange@kso_qt@@@kso_qt@@@std@@XZ
?rbegin@?$QList@VQItemSelectionRange@kso_qt@@@kso_qt@@QEBA?AV?$reverse_iterator@Vconst_iterator@?$QList@VQItemSelectionRange@kso_qt@@@kso_qt@@@std@@XZ
?rbegin@?$QVector@VQPoint@kso_qt@@@kso_qt@@QEAA?AV?$reverse_iterator@PEAVQPoint@kso_qt@@@std@@XZ
?rbegin@?$QVector@VQPoint@kso_qt@@@kso_qt@@QEAA?AV?$reverse_iterator@Viterator@?$QTypedArrayData@VQPoint@kso_qt@@@kso_qt@@@std@@XZ
?rbegin@?$QVector@VQPoint@kso_qt@@@kso_qt@@QEBA?AV?$reverse_iterator@PEBVQPoint@kso_qt@@@std@@XZ
?rbegin@?$QVector@VQPoint@kso_qt@@@kso_qt@@QEBA?AV?$reverse_iterator@Vconst_iterator@?$QTypedArrayData@VQPoint@kso_qt@@@kso_qt@@@std@@XZ
?rbegin@?$QVector@VQPointF@kso_qt@@@kso_qt@@QEAA?AV?$reverse_iterator@PEAVQPointF@kso_qt@@@std@@XZ
?rbegin@?$QVector@VQPointF@kso_qt@@@kso_qt@@QEAA?AV?$reverse_iterator@Viterator@?$QTypedArrayData@VQPointF@kso_qt@@@kso_qt@@@std@@XZ
?rbegin@?$QVector@VQPointF@kso_qt@@@kso_qt@@QEBA?AV?$reverse_iterator@PEBVQPointF@kso_qt@@@std@@XZ
?rbegin@?$QVector@VQPointF@kso_qt@@@kso_qt@@QEBA?AV?$reverse_iterator@Vconst_iterator@?$QTypedArrayData@VQPointF@kso_qt@@@kso_qt@@@std@@XZ
?rbegin@?$QVector@VQXmlStreamAttribute@kso_qt@@@kso_qt@@QEAA?AV?$reverse_iterator@PEAVQXmlStreamAttribute@kso_qt@@@std@@XZ
?rbegin@?$QVector@VQXmlStreamAttribute@kso_qt@@@kso_qt@@QEBA?AV?$reverse_iterator@PEBVQXmlStreamAttribute@kso_qt@@@std@@XZ
?rbegin@QByteArray@kso_qt@@QEAA?AV?$reverse_iterator@PEAD@std@@XZ
?rbegin@QByteArray@kso_qt@@QEBA?AV?$reverse_iterator@PEBD@std@@XZ
?rbegin@QString@kso_qt@@QEAA?AV?$reverse_iterator@PEAVQChar@kso_qt@@@std@@XZ
?rbegin@QString@kso_qt@@QEBA?AV?$reverse_iterator@PEBVQChar@kso_qt@@@std@@XZ
?rbegin@QStringRef@kso_qt@@QEBA?AV?$reverse_iterator@PEBVQChar@kso_qt@@@std@@XZ
?read@QAbstractFileEngine@kso_qt@@UEAA_JPEAD_J@Z
?read@QFSFileEngine@kso_qt@@UEAA_JPEAD_J@Z
?read@QIODevice@kso_qt@@QEAA?AVQByteArray@2@_J@Z
?read@QIODevice@kso_qt@@QEAA_JPEAD_J@Z
?read@QIODevicePrivate@kso_qt@@QEAA_JPEAD_J_N@Z
?read@QMetaProperty@kso_qt@@QEBA?AVQVariant@2@PEBVQObject@2@@Z
?read@QRingBuffer@kso_qt@@QEAA?AVQByteArray@2@XZ
?read@QRingBuffer@kso_qt@@QEAA_JPEAD_J@Z
?read@QTextStream@kso_qt@@QEAA?AVQString@2@_J@Z
?read@QWindowsPipeReader@kso_qt@@QEAA_JPEAD_J@Z
?readAll@QIODevice@kso_qt@@QEAA?AVQByteArray@2@XZ
?readAll@QTextStream@kso_qt@@QEAA?AVQString@2@XZ
?readAllStandardError@QProcess@kso_qt@@QEAA?AVQByteArray@2@XZ
?readAllStandardOutput@QProcess@kso_qt@@QEAA?AVQByteArray@2@XZ
?readBlock@QDataStream@kso_qt@@AEAAHPEADH@Z
?readByteArray@QCborStreamReader@kso_qt@@QEAA?AU?$StringResult@VQByteArray@kso_qt@@@12@XZ
?readBytes@QDataStream@kso_qt@@QEAAAEAV12@AEAPEADAEAI@Z
?readChannel@QProcess@kso_qt@@QEBA?AW4ProcessChannel@12@XZ
?readChannelCount@QIODevice@kso_qt@@QEBAHXZ
?readChannelFinished@QIODevice@kso_qt@@QEAAXXZ
?readChannelMode@QProcess@kso_qt@@QEBA?AW4ProcessChannelMode@12@XZ
?readData@QBuffer@kso_qt@@MEAA_JPEAD_J@Z
?readData@QFileDevice@kso_qt@@MEAA_JPEAD_J@Z
?readData@QProcess@kso_qt@@MEAA_JPEAD_J@Z
?readElementText@QXmlStreamReader@kso_qt@@QEAA?AVQString@2@W4ReadElementTextBehaviour@12@@Z
?readFdFh@QFSFileEnginePrivate@kso_qt@@QEAA_JPEAD_J@Z
?readFileCompleted@QWindowsPipeReader@kso_qt@@CAXKKPEAU_OVERLAPPED@@@Z
?readLine@QAbstractFileEngine@kso_qt@@UEAA_JPEAD_J@Z
?readLine@QFSFileEngine@kso_qt@@UEAA_JPEAD_J@Z
?readLine@QIODevice@kso_qt@@QEAA?AVQByteArray@2@_J@Z
?readLine@QIODevice@kso_qt@@QEAA_JPEAD_J@Z
?readLine@QRingBuffer@kso_qt@@QEAA_JPEAD_J@Z
?readLine@QTextStream@kso_qt@@QEAA?AVQString@2@_J@Z
?readLineData@QFileDevice@kso_qt@@MEAA_JPEAD_J@Z
?readLineData@QIODevice@kso_qt@@MEAA_JPEAD_J@Z
?readLineFdFh@QFSFileEnginePrivate@kso_qt@@QEAA_JPEAD_J@Z
?readLineInto@QTextStream@kso_qt@@QEAA_NPEAVQString@2@_J@Z
?readLink@QFile@kso_qt@@QEBA?AVQString@2@XZ
?readLink@QFile@kso_qt@@SA?AVQString@2@AEBV32@@Z
?readLink@QFileInfo@kso_qt@@QEBA?AVQString@2@XZ
?readNext@QXmlStreamReader@kso_qt@@QEAA?AW4TokenType@12@XZ
?readNextStartElement@QXmlStreamReader@kso_qt@@QEAA_NXZ
?readOnGadget@QMetaProperty@kso_qt@@QEBA?AVQVariant@2@PEBX@Z
?readPointerAtPosition@QRingBuffer@kso_qt@@QEBAPEBD_JAEA_J@Z
?readProgress@QNonContiguousByteDevice@kso_qt@@QEAAX_J0@Z
?readRawData@QDataStream@kso_qt@@QEAAHPEADH@Z
?readString@QCborStreamReader@kso_qt@@QEAA?AU?$StringResult@VQString@kso_qt@@@12@XZ
?readStringChunk@QCborStreamReader@kso_qt@@QEAA?AU?$StringResult@_J@12@PEAD_J@Z
?readWriteLock@QReadLocker@kso_qt@@QEBAPEAVQReadWriteLock@2@XZ
?readWriteLock@QWriteLocker@kso_qt@@QEBAPEAVQReadWriteLock@2@XZ
?readyRead@QIODevice@kso_qt@@QEAAXXZ
?readyRead@QNonContiguousByteDevice@kso_qt@@QEAAXXZ
?readyRead@QWindowsPipeReader@kso_qt@@QEAAXXZ
?readyReadStandardError@QProcess@kso_qt@@QEAAXUQPrivateSignal@12@@Z
?readyReadStandardOutput@QProcess@kso_qt@@QEAAXUQPrivateSignal@12@@Z
?realNumberNotation@QTextStream@kso_qt@@QEBA?AW4RealNumberNotation@12@XZ
?realNumberPrecision@QTextStream@kso_qt@@QEBAHXZ
?realloc@QListData@kso_qt@@QEAAXH@Z
?reallocData@?$QVector@VQPoint@kso_qt@@@kso_qt@@AEAAXH@Z
?reallocData@?$QVector@VQPoint@kso_qt@@@kso_qt@@AEAAXHHV?$QFlags@W4AllocationOption@QArrayData@kso_qt@@@2@@Z
?reallocData@?$QVector@VQPointF@kso_qt@@@kso_qt@@AEAAXH@Z
?reallocData@?$QVector@VQPointF@kso_qt@@@kso_qt@@AEAAXHHV?$QFlags@W4AllocationOption@QArrayData@kso_qt@@@2@@Z
?reallocData@?$QVector@VQXmlStreamAttribute@kso_qt@@@kso_qt@@AEAAXH@Z
?reallocData@?$QVector@VQXmlStreamAttribute@kso_qt@@@kso_qt@@AEAAXHHV?$QFlags@W4AllocationOption@QArrayData@kso_qt@@@2@@Z
?reallocData@QByteArray@kso_qt@@AEAAXIV?$QFlags@W4AllocationOption@QArrayData@kso_qt@@@2@@Z
?reallocData@QString@kso_qt@@AEAAXI_N@Z
?realloc_grow@QListData@kso_qt@@QEAAXH@Z
?reallocateAligned@QArrayData@kso_qt@@SAPEAU12@PEAU12@_K11V?$QFlags@W4AllocationOption@QArrayData@kso_qt@@@2@@Z
?reallocateUnaligned@QArrayData@kso_qt@@SAPEAU12@PEAU12@_K1V?$QFlags@W4AllocationOption@QArrayData@kso_qt@@@2@@Z
?rebalance@QMapDataBase@kso_qt@@QEAAXPEAUQMapNodeBase@2@@Z
?recalcMostLeftNode@QMapDataBase@kso_qt@@QEAAXXZ
?receiverList@QObjectPrivate@kso_qt@@QEBA?AV?$QList@PEAVQObject@kso_qt@@@2@PEBD@Z
?receivers@QAbstractDeclarativeData@kso_qt@@2P6AHPEAV12@PEBVQObject@2@H@ZEA
?receivers@QObject@kso_qt@@IEBAHPEBD@Z
?ref@QCoreApplicationPrivate@kso_qt@@QEAAXXZ
?refT@QFutureInterfaceBase@kso_qt@@IEBA_NXZ
?refresh@QDir@kso_qt@@QEBAXXZ
?refresh@QFileInfo@kso_qt@@QEAAXXZ
?refresh@QStorageInfo@kso_qt@@QEAAXXZ
?refreshAll@QFactoryLoader@kso_qt@@SAXXZ
?registerCallback@QInternal@kso_qt@@SA_NW4Callback@12@P6A_NPEAPEAX@Z@Z
?registerCategory@QLoggingRegistry@kso_qt@@QEAAXPEAVQLoggingCategory@2@W4QtMsgType@2@@Z
?registerComparatorFunction@QMetaType@kso_qt@@CA_NPEBUAbstractComparatorFunction@QtPrivate@2@H@Z
?registerConverterFunction@QMetaType@kso_qt@@SA_NPEBUAbstractConverterFunction@QtPrivate@2@HH@Z
?registerDebugStreamOperatorFunction@QMetaType@kso_qt@@CA_NPEBUAbstractDebugStreamFunction@QtPrivate@2@H@Z
?registerEventNotifier@QEventDispatcherWin32@kso_qt@@UEAA_NPEAVQWinEventNotifier@2@@Z
?registerEventTransition@QStateMachinePrivate@kso_qt@@QEAAXPEAVQEventTransition@2@@Z
?registerEventType@QEvent@kso_qt@@SAHH@Z
?registerFormat@QSettings@kso_qt@@SA?AW4Format@12@AEBVQString@2@P6A_NAEAVQIODevice@2@AEAV?$QMap@VQString@kso_qt@@VQVariant@2@@2@@ZP6A_N1AEBV62@@ZW4CaseSensitivity@Qt@2@@Z
?registerHandler@QVariantPrivate@kso_qt@@YAXHPEBUHandler@QVariant@2@@Z
?registerInterpolator@QVariantAnimation@kso_qt@@CAXP6A?AVQVariant@2@PEBX0N@ZH@Z
?registerMultiThreadedSignalTransitions@QStateMachinePrivate@kso_qt@@QEAAXXZ
?registerNormalizedType@QMetaType@kso_qt@@SAHAEBVQByteArray@2@P6AXHPEAX@ZP6APEAXH1PEBX@ZHV?$QFlags@W4TypeFlag@QMetaType@kso_qt@@@2@PEBUQMetaObject@2@@Z
?registerNormalizedType@QMetaType@kso_qt@@SAHAEBVQByteArray@2@P6AXPEAX@ZP6APEAX1PEBX@ZHV?$QFlags@W4TypeFlag@QMetaType@kso_qt@@@2@PEBUQMetaObject@2@@Z
?registerNormalizedType@QMetaType@kso_qt@@SAHAEBVQByteArray@2@P6AXPEAX@ZP6APEAXPEBX@Z2P6APEAX13@ZHV?$QFlags@W4TypeFlag@QMetaType@kso_qt@@@2@PEBUQMetaObject@2@@Z
?registerNormalizedTypedef@QMetaType@kso_qt@@SAHAEBVQByteArray@2@H@Z
?registerProfilerCallback@QUnifiedTimer@kso_qt@@QEAAXP6AX_J@Z@Z
?registerPropertyType@QMetaProperty@kso_qt@@AEBAHXZ
?registerResource@QResource@kso_qt@@SA_NAEBVQString@2@0@Z
?registerResource@QResource@kso_qt@@SA_NPEBEAEBVQString@2@@Z
?registerRestorable@QStateMachinePrivate@kso_qt@@QEAAXPEAVQAbstractState@2@PEAVQObject@2@AEBVQByteArray@2@AEBVQVariant@2@@Z
?registerSignalTransition@QStateMachinePrivate@kso_qt@@QEAAXPEAVQSignalTransition@2@@Z
?registerSocketNotifier@QEventDispatcherWin32@kso_qt@@UEAAXPEAVQSocketNotifier@2@@Z
?registerStreamOperators@QMetaType@kso_qt@@SAXHP6AXAEAVQDataStream@2@PEBX@ZP6AX0PEAX@Z@Z
?registerStreamOperators@QMetaType@kso_qt@@SAXPEBDP6AXAEAVQDataStream@2@PEBX@ZP6AX1PEAX@Z@Z
?registerTimer@QAbstractEventDispatcher@kso_qt@@QEAAHHPEAVQObject@2@@Z
?registerTimer@QAbstractEventDispatcher@kso_qt@@QEAAHHW4TimerType@Qt@2@PEAVQObject@2@@Z
?registerTimer@QAbstractEventDispatcher@kso_qt@@QEAAXHHPEAVQObject@2@@Z
?registerTimer@QEventDispatcherWin32@kso_qt@@UEAAXHHW4TimerType@Qt@2@PEAVQObject@2@@Z
?registerTimer@QEventDispatcherWin32Private@kso_qt@@QEAAXPEAUWinTimerInfo@2@@Z
?registerTransition@QStateMachinePrivate@kso_qt@@QEAAXPEAVQAbstractTransition@2@@Z
?registerTransitions@QStateMachinePrivate@kso_qt@@QEAAXPEAVQAbstractState@2@@Z
?registerType@QMetaType@kso_qt@@SAHPEBDP6AXHPEAX@ZP6APEAXH1PEBX@ZHV?$QFlags@W4TypeFlag@QMetaType@kso_qt@@@2@PEBUQMetaObject@2@@Z
?registerType@QMetaType@kso_qt@@SAHPEBDP6AXPEAX@ZP6APEAXPEBX@Z2P6APEAX13@ZHV?$QFlags@W4TypeFlag@QMetaType@kso_qt@@@2@PEBUQMetaObject@2@@Z
?registerType@QMetaType@kso_qt@@SAHPEBDP6AXPEAX@ZP6APEAXPEBX@Z@Z
?registerTypedef@QMetaType@kso_qt@@SAHPEBDH@Z
?registerUserData@QObject@kso_qt@@SAIXZ
?registeredTimers@QEventDispatcherWin32@kso_qt@@UEBA?AV?$QList@UTimerInfo@QAbstractEventDispatcher@kso_qt@@@2@PEAVQObject@2@@Z
?regularExpression@QRegularExpressionMatch@kso_qt@@QEBA?AVQRegularExpression@2@XZ
?regularExpression@QRegularExpressionMatchIterator@kso_qt@@QEBA?AVQRegularExpression@2@XZ
?rehash@QHashData@kso_qt@@QEAAXH@Z
?relatedMetaObject@QMetaObjectBuilder@kso_qt@@QEBAPEBUQMetaObject@2@H@Z
?relatedMetaObjectCount@QMetaObjectBuilder@kso_qt@@QEBAHXZ
?relativeFilePath@QDir@kso_qt@@QEBA?AVQString@2@AEBV32@@Z
?release@QSemaphore@kso_qt@@QEAAXH@Z
?release@QSystemSemaphore@kso_qt@@QEAA_NH@Z
?releaseThread@QThreadPool@kso_qt@@QEAAXXZ
?releaseTimerId@QAbstractEventDispatcherPrivate@kso_qt@@SAXH@Z
?relock@QMutexLocker@kso_qt@@QEAAXXZ
?relock@QReadLocker@kso_qt@@QEAAXXZ
?relock@QWriteLocker@kso_qt@@QEAAXXZ
?remainingTime@QDeadlineTimer@kso_qt@@QEBA_JXZ
?remainingTime@QEventDispatcherWin32@kso_qt@@UEAAHH@Z
?remainingTime@QTimer@kso_qt@@QEBAHXZ
?remainingTimeAsDuration@QDeadlineTimer@kso_qt@@QEBA?AV?$duration@_JU?$ratio@$00$0DLJKMKAA@@std@@@chrono@std@@XZ
?remainingTimeAsDuration@QTimer@kso_qt@@QEBA?AV?$duration@_JU?$ratio@$00$0DOI@@std@@@chrono@std@@XZ
?remainingTimeNSecs@QDeadlineTimer@kso_qt@@QEBA_JXZ
?remove@?$QVector@VQPoint@kso_qt@@@kso_qt@@QEAAXH@Z
?remove@?$QVector@VQPoint@kso_qt@@@kso_qt@@QEAAXHH@Z
?remove@?$QVector@VQPointF@kso_qt@@@kso_qt@@QEAAXH@Z
?remove@?$QVector@VQPointF@kso_qt@@@kso_qt@@QEAAXHH@Z
?remove@?$QVector@VQXmlStreamAttribute@kso_qt@@@kso_qt@@QEAAXH@Z
?remove@?$QVector@VQXmlStreamAttribute@kso_qt@@@kso_qt@@QEAAXHH@Z
?remove@QAbstractFileEngine@kso_qt@@UEAA_NXZ
?remove@QByteArray@kso_qt@@QEAAAEAV12@HH@Z
?remove@QCborMap@kso_qt@@QEAAXAEBVQCborValue@2@@Z
?remove@QCborMap@kso_qt@@QEAAXAEBVQString@2@@Z
?remove@QCborMap@kso_qt@@QEAAXVQLatin1String@2@@Z
?remove@QCborMap@kso_qt@@QEAAX_J@Z
?remove@QDir@kso_qt@@QEAA_NAEBVQString@2@@Z
?remove@QFSFileEngine@kso_qt@@UEAA_NXZ
?remove@QFile@kso_qt@@QEAA_NXZ
?remove@QFile@kso_qt@@SA_NAEBVQString@2@@Z
?remove@QJsonObject@kso_qt@@QEAAXAEBVQString@2@@Z
?remove@QListData@kso_qt@@QEAAXH@Z
?remove@QListData@kso_qt@@QEAAXHH@Z
?remove@QObjectCleanupHandler@kso_qt@@QEAAXPEAVQObject@2@@Z
?remove@QProcessEnvironment@kso_qt@@QEAAXAEBVQString@2@@Z
?remove@QSettings@kso_qt@@QEAAXAEBVQString@2@@Z
?remove@QString@kso_qt@@QEAAAEAV12@AEBV12@W4CaseSensitivity@Qt@2@@Z
?remove@QString@kso_qt@@QEAAAEAV12@AEBVQRegExp@2@@Z
?remove@QString@kso_qt@@QEAAAEAV12@AEBVQRegularExpression@2@@Z
?remove@QString@kso_qt@@QEAAAEAV12@HH@Z
?remove@QString@kso_qt@@QEAAAEAV12@VQChar@2@W4CaseSensitivity@Qt@2@@Z
?remove@QString@kso_qt@@QEAAAEAV12@VQLatin1String@2@W4CaseSensitivity@Qt@2@@Z
?remove@QTemporaryDir@kso_qt@@QEAA_NXZ
?removeAll@?$QList@VQItemSelectionRange@kso_qt@@@kso_qt@@QEAAHAEBVQItemSelectionRange@2@@Z
?removeAll@?$QVector@VQPoint@kso_qt@@@kso_qt@@QEAAHAEBVQPoint@2@@Z
?removeAll@?$QVector@VQPointF@kso_qt@@@kso_qt@@QEAAHAEBVQPointF@2@@Z
?removeAll@?$QVector@VQXmlStreamAttribute@kso_qt@@@kso_qt@@QEAAHAEBVQXmlStreamAttribute@2@@Z
?removeAllEncodedQueryItems@QUrl@kso_qt@@QEAAXAEBVQByteArray@2@@Z
?removeAllQueryItems@QUrl@kso_qt@@QEAAXAEBVQString@2@@Z
?removeAllQueryItems@QUrlQuery@kso_qt@@QEAAXAEBVQString@2@@Z
?removeAnimation@QAbstractTransition@kso_qt@@QEAAXPEAVQAbstractAnimation@2@@Z
?removeAnimation@QAnimationGroup@kso_qt@@QEAAXPEAVQAbstractAnimation@2@@Z
?removeAt@?$QList@VQItemSelectionRange@kso_qt@@@kso_qt@@QEAAXH@Z
?removeAt@?$QVector@VQPoint@kso_qt@@@kso_qt@@QEAAXH@Z
?removeAt@?$QVector@VQPointF@kso_qt@@@kso_qt@@QEAAXH@Z
?removeAt@?$QVector@VQXmlStreamAttribute@kso_qt@@@kso_qt@@QEAAXH@Z
?removeAt@QCborArray@kso_qt@@QEAAX_J@Z
?removeAt@QJsonArray@kso_qt@@QEAAXH@Z
?removeClassInfo@QMetaObjectBuilder@kso_qt@@QEAAXH@Z
?removeColumn@QAbstractItemModel@kso_qt@@QEAA_NHAEBVQModelIndex@2@@Z
?removeColumns@QAbstractItemModel@kso_qt@@UEAA_NHHAEBVQModelIndex@2@@Z
?removeColumns@QIdentityProxyModel@kso_qt@@UEAA_NHHAEBVQModelIndex@2@@Z
?removeColumns@QSortFilterProxyModel@kso_qt@@UEAA_NHHAEBVQModelIndex@2@@Z
?removeConflictingTransitions@QStateMachinePrivate@kso_qt@@QEAAXAEAV?$QList@PEAVQAbstractTransition@kso_qt@@@2@PEAUCalculationCache@2@@Z
?removeConstructor@QMetaObjectBuilder@kso_qt@@QEAAXH@Z
?removeDefaultAnimation@QStateMachine@kso_qt@@QEAAXPEAVQAbstractAnimation@2@@Z
?removeEncodedQueryItem@QUrl@kso_qt@@QEAAXAEBVQByteArray@2@@Z
?removeEnumerator@QMetaObjectBuilder@kso_qt@@QEAAXH@Z
?removeEventFilter@QObject@kso_qt@@QEAAXPEAV12@@Z
?removeFirst@?$QList@VQItemSelectionRange@kso_qt@@@kso_qt@@QEAAXXZ
?removeFirst@?$QVector@VQPoint@kso_qt@@@kso_qt@@QEAAXXZ
?removeFirst@?$QVector@VQPointF@kso_qt@@@kso_qt@@QEAAXXZ
?removeFirst@?$QVector@VQXmlStreamAttribute@kso_qt@@@kso_qt@@QEAAXXZ
?removeFirst@QCborArray@kso_qt@@QEAAXXZ
?removeFirst@QJsonArray@kso_qt@@QEAAXXZ
?removeFormat@QMimeData@kso_qt@@QEAAXAEBVQString@2@@Z
?removeKey@QMetaEnumBuilder@kso_qt@@QEAAXH@Z
?removeLast@?$QList@VQItemSelectionRange@kso_qt@@@kso_qt@@QEAAXXZ
?removeLast@?$QVector@VQPoint@kso_qt@@@kso_qt@@QEAAXXZ
?removeLast@?$QVector@VQPointF@kso_qt@@@kso_qt@@QEAAXXZ
?removeLast@?$QVector@VQXmlStreamAttribute@kso_qt@@@kso_qt@@QEAAXXZ
?removeLast@QCborArray@kso_qt@@QEAAXXZ
?removeLast@QJsonArray@kso_qt@@QEAAXXZ
?removeLibraryPath@QCoreApplication@kso_qt@@SAXAEBVQString@2@@Z
?removeMappings@QSignalMapper@kso_qt@@QEAAXPEAVQObject@2@@Z
?removeMethod@QMetaObjectBuilder@kso_qt@@QEAAXH@Z
?removeNativeEventFilter@QAbstractEventDispatcher@kso_qt@@QEAAXPEAVQAbstractNativeEventFilter@2@@Z
?removeNativeEventFilter@QCoreApplication@kso_qt@@QEAAXPEAVQAbstractNativeEventFilter@2@@Z
?removeNotifySignal@QMetaPropertyBuilder@kso_qt@@QEAAXXZ
?removeOne@?$QList@VQItemSelectionRange@kso_qt@@@kso_qt@@QEAA_NAEBVQItemSelectionRange@2@@Z
?removeOne@?$QVector@VQPoint@kso_qt@@@kso_qt@@QEAA_NAEBVQPoint@2@@Z
?removeOne@?$QVector@VQPointF@kso_qt@@@kso_qt@@QEAA_NAEBVQPointF@2@@Z
?removeOne@?$QVector@VQXmlStreamAttribute@kso_qt@@@kso_qt@@QEAA_NAEBVQXmlStreamAttribute@2@@Z
?removePath@QFileSystemWatcher@kso_qt@@QEAA_NAEBVQString@2@@Z
?removePaths@QFileSystemWatcher@kso_qt@@QEAA?AVQStringList@2@AEBV32@@Z
?removePersistentIndexData@QAbstractItemModelPrivate@kso_qt@@QEAAXPEAVQPersistentModelIndexData@2@@Z
?removePostedEvent@QCoreApplicationPrivate@kso_qt@@SAXPEAVQEvent@2@@Z
?removePostedEvents@QCoreApplication@kso_qt@@SAXPEAVQObject@2@H@Z
?removePostedTimerEvent@QCoreApplicationPrivate@kso_qt@@SAXPEAVQObject@2@H@Z
?removeProperty@QMetaObjectBuilder@kso_qt@@QEAAXH@Z
?removeQueryItem@QUrl@kso_qt@@QEAAXAEBVQString@2@@Z
?removeQueryItem@QUrlQuery@kso_qt@@QEAAXAEBVQString@2@@Z
?removeRecursively@QDir@kso_qt@@QEAA_NXZ
?removeRelatedMetaObject@QMetaObjectBuilder@kso_qt@@QEAAXH@Z
?removeRow@QAbstractItemModel@kso_qt@@QEAA_NHAEBVQModelIndex@2@@Z
?removeRows@QAbstractItemModel@kso_qt@@UEAA_NHHAEBVQModelIndex@2@@Z
?removeRows@QIdentityProxyModel@kso_qt@@UEAA_NHHAEBVQModelIndex@2@@Z
?removeRows@QSortFilterProxyModel@kso_qt@@UEAA_NHHAEBVQModelIndex@2@@Z
?removeRows@QStringListModel@kso_qt@@UEAA_NHHAEBVQModelIndex@2@@Z
?removeStaleLockFile@QLockFile@kso_qt@@QEAA_NXZ
?removeState@QStateMachine@kso_qt@@QEAAXPEAVQAbstractState@2@@Z
?removeTransition@QState@kso_qt@@QEAAXPEAVQAbstractTransition@2@@Z
?removeTranslator@QCoreApplication@kso_qt@@SA_NPEAVQTranslator@2@@Z
?removed@QChildEvent@kso_qt@@QEBA_NXZ
?rename@QAbstractFileEngine@kso_qt@@UEAA_NAEBVQString@2@@Z
?rename@QDir@kso_qt@@QEAA_NAEBVQString@2@0@Z
?rename@QFSFileEngine@kso_qt@@UEAA_NAEBVQString@2@@Z
?rename@QFile@kso_qt@@QEAA_NAEBVQString@2@@Z
?rename@QFile@kso_qt@@SA_NAEBVQString@2@0@Z
?rename@QTemporaryFile@kso_qt@@QEAA_NAEBVQString@2@@Z
?renameOverwrite@QAbstractFileEngine@kso_qt@@UEAA_NAEBVQString@2@@Z
?renameOverwrite@QFSFileEngine@kso_qt@@UEAA_NAEBVQString@2@@Z
?rend@?$QList@VQItemSelectionRange@kso_qt@@@kso_qt@@QEAA?AV?$reverse_iterator@Viterator@?$QList@VQItemSelectionRange@kso_qt@@@kso_qt@@@std@@XZ
?rend@?$QList@VQItemSelectionRange@kso_qt@@@kso_qt@@QEBA?AV?$reverse_iterator@Vconst_iterator@?$QList@VQItemSelectionRange@kso_qt@@@kso_qt@@@std@@XZ
?rend@?$QVector@VQPoint@kso_qt@@@kso_qt@@QEAA?AV?$reverse_iterator@PEAVQPoint@kso_qt@@@std@@XZ
?rend@?$QVector@VQPoint@kso_qt@@@kso_qt@@QEAA?AV?$reverse_iterator@Viterator@?$QTypedArrayData@VQPoint@kso_qt@@@kso_qt@@@std@@XZ
?rend@?$QVector@VQPoint@kso_qt@@@kso_qt@@QEBA?AV?$reverse_iterator@PEBVQPoint@kso_qt@@@std@@XZ
?rend@?$QVector@VQPoint@kso_qt@@@kso_qt@@QEBA?AV?$reverse_iterator@Vconst_iterator@?$QTypedArrayData@VQPoint@kso_qt@@@kso_qt@@@std@@XZ
?rend@?$QVector@VQPointF@kso_qt@@@kso_qt@@QEAA?AV?$reverse_iterator@PEAVQPointF@kso_qt@@@std@@XZ
?rend@?$QVector@VQPointF@kso_qt@@@kso_qt@@QEAA?AV?$reverse_iterator@Viterator@?$QTypedArrayData@VQPointF@kso_qt@@@kso_qt@@@std@@XZ
?rend@?$QVector@VQPointF@kso_qt@@@kso_qt@@QEBA?AV?$reverse_iterator@PEBVQPointF@kso_qt@@@std@@XZ
?rend@?$QVector@VQPointF@kso_qt@@@kso_qt@@QEBA?AV?$reverse_iterator@Vconst_iterator@?$QTypedArrayData@VQPointF@kso_qt@@@kso_qt@@@std@@XZ
?rend@?$QVector@VQXmlStreamAttribute@kso_qt@@@kso_qt@@QEAA?AV?$reverse_iterator@PEAVQXmlStreamAttribute@kso_qt@@@std@@XZ
?rend@?$QVector@VQXmlStreamAttribute@kso_qt@@@kso_qt@@QEBA?AV?$reverse_iterator@PEBVQXmlStreamAttribute@kso_qt@@@std@@XZ
?rend@QByteArray@kso_qt@@QEAA?AV?$reverse_iterator@PEAD@std@@XZ
?rend@QByteArray@kso_qt@@QEBA?AV?$reverse_iterator@PEBD@std@@XZ
?rend@QString@kso_qt@@QEAA?AV?$reverse_iterator@PEAVQChar@kso_qt@@@std@@XZ
?rend@QString@kso_qt@@QEBA?AV?$reverse_iterator@PEBVQChar@kso_qt@@@std@@XZ
?rend@QStringRef@kso_qt@@QEBA?AV?$reverse_iterator@PEBVQChar@kso_qt@@@std@@XZ
?reparse@QCborStreamReader@kso_qt@@QEAAXXZ
?repeated@QByteArray@kso_qt@@QEBA?AV12@H@Z
?repeated@QString@kso_qt@@QEBA?AV12@H@Z
?replace@?$QList@VQItemSelectionRange@kso_qt@@@kso_qt@@QEAAXHAEBVQItemSelectionRange@2@@Z
?replace@?$QVector@VQPoint@kso_qt@@@kso_qt@@QEAAXHAEBVQPoint@2@@Z
?replace@?$QVector@VQPointF@kso_qt@@@kso_qt@@QEAAXHAEBVQPointF@2@@Z
?replace@?$QVector@VQXmlStreamAttribute@kso_qt@@@kso_qt@@QEAAXHAEBVQXmlStreamAttribute@2@@Z
?replace@QByteArray@kso_qt@@QEAAAEAV12@AEBV12@0@Z
?replace@QByteArray@kso_qt@@QEAAAEAV12@AEBV12@PEBD@Z
?replace@QByteArray@kso_qt@@QEAAAEAV12@AEBVQString@2@AEBV12@@Z
?replace@QByteArray@kso_qt@@QEAAAEAV12@AEBVQString@2@PEBD@Z
?replace@QByteArray@kso_qt@@QEAAAEAV12@DAEBV12@@Z
?replace@QByteArray@kso_qt@@QEAAAEAV12@DAEBVQString@2@@Z
?replace@QByteArray@kso_qt@@QEAAAEAV12@DD@Z
?replace@QByteArray@kso_qt@@QEAAAEAV12@DPEBD@Z
?replace@QByteArray@kso_qt@@QEAAAEAV12@HHAEBV12@@Z
?replace@QByteArray@kso_qt@@QEAAAEAV12@HHPEBD@Z
?replace@QByteArray@kso_qt@@QEAAAEAV12@HHPEBDH@Z
?replace@QByteArray@kso_qt@@QEAAAEAV12@PEBD0@Z
?replace@QByteArray@kso_qt@@QEAAAEAV12@PEBDAEBV12@@Z
?replace@QByteArray@kso_qt@@QEAAAEAV12@PEBDH0H@Z
?replace@QJsonArray@kso_qt@@QEAAXHAEBVQJsonValue@2@@Z
?replace@QString@kso_qt@@QEAAAEAV12@AEBV12@0W4CaseSensitivity@Qt@2@@Z
?replace@QString@kso_qt@@QEAAAEAV12@AEBV12@VQLatin1String@2@W4CaseSensitivity@Qt@2@@Z
?replace@QString@kso_qt@@QEAAAEAV12@AEBVQRegExp@2@AEBV12@@Z
?replace@QString@kso_qt@@QEAAAEAV12@AEBVQRegularExpression@2@AEBV12@@Z
?replace@QString@kso_qt@@QEAAAEAV12@HHAEBV12@@Z
?replace@QString@kso_qt@@QEAAAEAV12@HHPEBVQChar@2@H@Z
?replace@QString@kso_qt@@QEAAAEAV12@HHVQChar@2@@Z
?replace@QString@kso_qt@@QEAAAEAV12@PEBVQChar@2@H0HW4CaseSensitivity@Qt@2@@Z
?replace@QString@kso_qt@@QEAAAEAV12@VQChar@2@0W4CaseSensitivity@Qt@2@@Z
?replace@QString@kso_qt@@QEAAAEAV12@VQChar@2@AEBV12@W4CaseSensitivity@Qt@2@@Z
?replace@QString@kso_qt@@QEAAAEAV12@VQChar@2@VQLatin1String@2@W4CaseSensitivity@Qt@2@@Z
?replace@QString@kso_qt@@QEAAAEAV12@VQLatin1String@2@0W4CaseSensitivity@Qt@2@@Z
?replace@QString@kso_qt@@QEAAAEAV12@VQLatin1String@2@AEBV12@W4CaseSensitivity@Qt@2@@Z
?replace_helper@QString@kso_qt@@AEAAXPEAIHHPEBVQChar@2@H@Z
?reportCanceled@QFutureInterfaceBase@kso_qt@@QEAAXXZ
?reportException@QFutureInterfaceBase@kso_qt@@QEAAXAEBVQException@2@@Z
?reportFinished@QFutureInterfaceBase@kso_qt@@QEAAXXZ
?reportResultsReady@QFutureInterfaceBase@kso_qt@@QEAAXHH@Z
?reportStarted@QFutureInterfaceBase@kso_qt@@QEAAXXZ
?requestInterruption@QThread@kso_qt@@QEAAXXZ
?requestUpdate@QSettingsPrivate@kso_qt@@QEAAXXZ
?requiresSurrogates@QChar@kso_qt@@SA_NI@Z
?reserve@?$QList@VQItemSelectionRange@kso_qt@@@kso_qt@@QEAAXH@Z
?reserve@?$QVector@VQPoint@kso_qt@@@kso_qt@@QEAAXH@Z
?reserve@?$QVector@VQPointF@kso_qt@@@kso_qt@@QEAAXH@Z
?reserve@?$QVector@VQXmlStreamAttribute@kso_qt@@@kso_qt@@QEAAXH@Z
?reserve@QByteArray@kso_qt@@QEAAXH@Z
?reserve@QRingBuffer@kso_qt@@QEAAPEAD_J@Z
?reserve@QString@kso_qt@@QEAAXH@Z
?reserveFront@QRingBuffer@kso_qt@@QEAAPEAD_J@Z
?reserveThread@QThreadPool@kso_qt@@QEAAXXZ
?reset@QAbstractItemModel@kso_qt@@IEAAXXZ
?reset@QCborStreamReader@kso_qt@@QEAAXXZ
?reset@QCryptographicHash@kso_qt@@QEAAXXZ
?reset@QIODevice@kso_qt@@UEAA_NXZ
?reset@QItemSelectionModel@kso_qt@@UEAAXXZ
?reset@QMessageAuthenticationCode@kso_qt@@QEAAXXZ
?reset@QMetaProperty@kso_qt@@QEBA_NPEAVQObject@2@@Z
?reset@QTextStream@kso_qt@@QEAAXXZ
?reset@QThreadPoolPrivate@kso_qt@@QEAAXXZ
?reset@kso_qt@@YAAEAVQTextStream@1@AEAV21@@Z
?resetCurrentSender@QObjectPrivate@kso_qt@@SAXPEAVQObject@2@PEAUSender@12@1@Z
?resetFormat@QDebug@kso_qt@@QEAAAEAV12@XZ
?resetInternalData@QAbstractItemModel@kso_qt@@IEAAXXZ
?resetInternalData@QAbstractProxyModel@kso_qt@@IEAAXXZ
?resetOnGadget@QMetaProperty@kso_qt@@QEBA_NPEAX@Z
?resetStatus@QDataStream@kso_qt@@QEAAXXZ
?resetStatus@QTextStream@kso_qt@@QEAAXXZ
?resize@?$QVector@VQPoint@kso_qt@@@kso_qt@@QEAAXH@Z
?resize@?$QVector@VQPointF@kso_qt@@@kso_qt@@QEAAXH@Z
?resize@?$QVector@VQXmlStreamAttribute@kso_qt@@@kso_qt@@QEAAXH@Z
?resize@QBitArray@kso_qt@@QEAAXH@Z
?resize@QByteArray@kso_qt@@QEAAXH@Z
?resize@QFile@kso_qt@@SA_NAEBVQString@2@_J@Z
?resize@QFile@kso_qt@@UEAA_N_J@Z
?resize@QFileDevice@kso_qt@@UEAA_N_J@Z
?resize@QString@kso_qt@@QEAAXH@Z
?resize@QString@kso_qt@@QEAAXHVQChar@2@@Z
?resolve@QLibrary@kso_qt@@QEAAP6AXXZPEBD@Z
?resolve@QLibrary@kso_qt@@SAP6AXXZAEBVQString@2@0PEBD@Z
?resolve@QLibrary@kso_qt@@SAP6AXXZAEBVQString@2@HPEBD@Z
?resolve@QLibrary@kso_qt@@SAP6AXXZAEBVQString@2@PEBD@Z
?resolveEntity@QXmlStreamEntityResolver@kso_qt@@UEAA?AVQString@2@AEBV32@0@Z
?resolveUndeclaredEntity@QXmlStreamEntityResolver@kso_qt@@UEAA?AVQString@2@AEBV32@@Z
?resolved@QUrl@kso_qt@@QEBA?AV12@AEBV12@@Z
?restart@QElapsedTimer@kso_qt@@QEAA_JXZ
?restart@QTime@kso_qt@@QEAAHXZ
?restart@QUnifiedTimer@kso_qt@@QEAAXXZ
?restorablesToPropertyList@QStateMachinePrivate@kso_qt@@QEBA?AV?$QVector@UQPropertyAssignment@kso_qt@@@2@AEBV?$QHash@VRestorableId@QStateMachinePrivate@kso_qt@@VQVariant@3@@2@@Z
?result@QCryptographicHash@kso_qt@@QEBA?AVQByteArray@2@XZ
?result@QMessageAuthenticationCode@kso_qt@@QEBA?AVQByteArray@2@XZ
?resultAt@ResultStoreBase@QtPrivate@kso_qt@@QEBA?AVResultIteratorBase@23@H@Z
?resultCount@QFutureInterfaceBase@kso_qt@@QEBAHXZ
?resultIndex@ResultIteratorBase@QtPrivate@kso_qt@@QEBAHXZ
?resultReadyAt@QFutureWatcherBase@kso_qt@@QEAAXH@Z
?resultStoreBase@QFutureInterfaceBase@kso_qt@@QEAAAEAVResultStoreBase@QtPrivate@2@XZ
?resultStoreBase@QFutureInterfaceBase@kso_qt@@QEBAAEBVResultStoreBase@QtPrivate@2@XZ
?resultsReadyAt@QFutureWatcherBase@kso_qt@@QEAAXHH@Z
?resume@QAbstractAnimation@kso_qt@@QEAAXXZ
?resume@QFutureWatcherBase@kso_qt@@QEAAXXZ
?resume@QTimeLine@kso_qt@@QEAAXXZ
?resumeAnimationTimer@QUnifiedTimer@kso_qt@@SAXPEAVQAbstractAnimationTimer@2@@Z
?resumed@QFutureWatcherBase@kso_qt@@QEAAXXZ
?retrieveData@QMimeData@kso_qt@@MEBA?AVQVariant@2@AEBVQString@2@W4Type@32@@Z
?returnType@QMetaMethod@kso_qt@@QEBAHXZ
?returnType@QMetaMethodBuilder@kso_qt@@QEBA?AVQByteArray@2@XZ
?revert@QAbstractItemModel@kso_qt@@UEAAXXZ
?revert@QAbstractProxyModel@kso_qt@@UEAAXXZ
?revision@QMetaMethod@kso_qt@@QEBAHXZ
?revision@QMetaMethodBuilder@kso_qt@@QEBAHXZ
?revision@QMetaProperty@kso_qt@@QEBAHXZ
?revision@QMetaPropertyBuilder@kso_qt@@QEBAHXZ
?rheight@QSize@kso_qt@@QEAAAEAHXZ
?rheight@QSizeF@kso_qt@@QEAAAEANXZ
?right@QByteArray@kso_qt@@QEBA?AV12@H@Z
?right@QItemSelectionRange@kso_qt@@QEBAHXZ
?right@QRect@kso_qt@@QEBAHXZ
?right@QRectF@kso_qt@@QEBANXZ
?right@QString@kso_qt@@QEBA?AV12@H@Z
?right@QStringRef@kso_qt@@QEBA?AV12@H@Z
?right@kso_qt@@YAAEAVQTextStream@1@AEAV21@@Z
?rightJustified@QByteArray@kso_qt@@QEBA?AV12@HD_N@Z
?rightJustified@QString@kso_qt@@QEBA?AV12@HVQChar@2@_N@Z
?rightRef@QString@kso_qt@@QEBA?AVQStringRef@2@H@Z
?rmdir@QAbstractFileEngine@kso_qt@@UEBA_NAEBVQString@2@_N@Z
?rmdir@QDir@kso_qt@@QEBA_NAEBVQString@2@@Z
?rmdir@QFSFileEngine@kso_qt@@UEBA_NAEBVQString@2@_N@Z
?rmpath@QDir@kso_qt@@QEBA_NAEBVQString@2@@Z
?roleNames@QAbstractItemModel@kso_qt@@UEBA?AV?$QHash@HVQByteArray@kso_qt@@@2@XZ
?rollbackTransaction@QDataStream@kso_qt@@QEAAXXZ
?rollbackTransaction@QIODevice@kso_qt@@QEAAXXZ
?root@QDir@kso_qt@@SA?AV12@XZ
?root@QStorageInfo@kso_qt@@SA?AV12@XZ
?rootPath@QDir@kso_qt@@SA?AVQString@2@XZ
?rootPath@QFSFileEngine@kso_qt@@SA?AVQString@2@XZ
?rootPath@QStorageInfo@kso_qt@@QEBA?AVQString@2@XZ
?rootState@QStateMachinePrivate@kso_qt@@QEBAPEAVQState@2@XZ
?rotateLeft@QMapDataBase@kso_qt@@QEAAXPEAUQMapNodeBase@2@@Z
?rotateRight@QMapDataBase@kso_qt@@QEAAXPEAUQMapNodeBase@2@@Z
?row@QChar@kso_qt@@QEBAEXZ
?row@QCharRef@kso_qt@@QEBAEXZ
?row@QModelIndex@kso_qt@@QEBAHXZ
?row@QPersistentModelIndex@kso_qt@@QEBAHXZ
?rowCount@QIdentityProxyModel@kso_qt@@UEBAHAEBVQModelIndex@2@@Z
?rowCount@QSortFilterProxyModel@kso_qt@@UEBAHAEBVQModelIndex@2@@Z
?rowCount@QStringListModel@kso_qt@@UEBAHAEBVQModelIndex@2@@Z
?rowIntersectsSelection@QItemSelectionModel@kso_qt@@QEBA_NHAEBVQModelIndex@2@@Z
?rowsAboutToBeInserted@QAbstractItemModel@kso_qt@@QEAAXAEBVQModelIndex@2@HHUQPrivateSignal@12@@Z
?rowsAboutToBeInserted@QAbstractItemModelPrivate@kso_qt@@QEAAXAEBVQModelIndex@2@HH@Z
?rowsAboutToBeMoved@QAbstractItemModel@kso_qt@@QEAAXAEBVQModelIndex@2@HH0HUQPrivateSignal@12@@Z
?rowsAboutToBeRemoved@QAbstractItemModel@kso_qt@@QEAAXAEBVQModelIndex@2@HHUQPrivateSignal@12@@Z
?rowsAboutToBeRemoved@QAbstractItemModelPrivate@kso_qt@@QEAAXAEBVQModelIndex@2@HH@Z
?rowsInserted@QAbstractItemModel@kso_qt@@QEAAXAEBVQModelIndex@2@HHUQPrivateSignal@12@@Z
?rowsInserted@QAbstractItemModelPrivate@kso_qt@@QEAAXAEBVQModelIndex@2@HH@Z
?rowsMoved@QAbstractItemModel@kso_qt@@QEAAXAEBVQModelIndex@2@HH0HUQPrivateSignal@12@@Z
?rowsRemoved@QAbstractItemModel@kso_qt@@QEAAXAEBVQModelIndex@2@HHUQPrivateSignal@12@@Z
?rowsRemoved@QAbstractItemModelPrivate@kso_qt@@QEAAXAEBVQModelIndex@2@HH@Z
?ruleToData@QWinTimeZonePrivate@kso_qt@@AEBA?AUData@QTimeZonePrivate@2@AEBUQWinTransitionRule@12@_JW4TimeType@QTimeZone@2@_N@Z
?rules@QLoggingSettingsParser@kso_qt@@QEBA?AV?$QVector@VQLoggingRule@kso_qt@@@2@XZ
?run@QThread@kso_qt@@MEAAXXZ
?runningAnimationCount@QUnifiedTimer@kso_qt@@QEAAHXZ
?runningChanged@QStateMachine@kso_qt@@QEAAX_N@Z
?rwidth@QSize@kso_qt@@QEAAAEAHXZ
?rwidth@QSizeF@kso_qt@@QEAAAEANXZ
?rx@QPoint@kso_qt@@QEAAAEAHXZ
?rx@QPointF@kso_qt@@QEAAAEANXZ
?ry@QPoint@kso_qt@@QEAAAEAHXZ
?ry@QPointF@kso_qt@@QEAAAEANXZ
?save@QMetaType@kso_qt@@SA_NAEAVQDataStream@2@HPEBX@Z
?save@QVariant@kso_qt@@QEBAXAEAVQDataStream@2@@Z
?savedValueForRestorable@QStateMachinePrivate@kso_qt@@QEBA?AVQVariant@2@AEBV?$QList@PEAVQAbstractState@kso_qt@@@2@PEAVQObject@2@AEBVQByteArray@2@@Z
?scale@QSize@kso_qt@@QEAAXAEBV12@W4AspectRatioMode@Qt@2@@Z
?scale@QSize@kso_qt@@QEAAXHHW4AspectRatioMode@Qt@2@@Z
?scale@QSizeF@kso_qt@@QEAAXAEBV12@W4AspectRatioMode@Qt@2@@Z
?scale@QSizeF@kso_qt@@QEAAXNNW4AspectRatioMode@Qt@2@@Z
?scaled@QSize@kso_qt@@QEBA?AV12@AEBV12@W4AspectRatioMode@Qt@2@@Z
?scaled@QSize@kso_qt@@QEBA?AV12@HHW4AspectRatioMode@Qt@2@@Z
?scaled@QSizeF@kso_qt@@QEBA?AV12@AEBV12@W4AspectRatioMode@Qt@2@@Z
?scaled@QSizeF@kso_qt@@QEBA?AV12@NNW4AspectRatioMode@Qt@2@@Z
?scanString@QDateTimeParser@kso_qt@@AEBA?AUStateNode@12@AEBVQDateTime@2@_NPEAVQString@2@@Z
?scheme@QUrl@kso_qt@@QEBA?AVQString@2@XZ
?scientific@kso_qt@@YAAEAVQTextStream@1@AEAV21@@Z
?scope@QMetaEnum@kso_qt@@QEBAPEBDXZ
?scope@QSettings@kso_qt@@QEBA?AW4Scope@12@XZ
?script@QChar@kso_qt@@QEBA?AW4Script@12@XZ
?script@QChar@kso_qt@@SA?AW4Script@12@I@Z
?script@QCharRef@kso_qt@@QEBA?AW4Script@QChar@2@XZ
?script@QLocale@kso_qt@@QEBA?AW4Script@12@XZ
?scriptCode@QLocalePrivate@kso_qt@@QEBA?AVQLatin1String@2@XZ
?scriptToCode@QLocalePrivate@kso_qt@@SA?AVQLatin1String@2@W4Script@QLocale@2@@Z
?scriptToString@QLocale@kso_qt@@SA?AVQString@2@W4Script@12@@Z
?searchPaths@QDir@kso_qt@@SA?AVQStringList@2@AEBVQString@2@@Z
?searchPaths@QResource@kso_qt@@SA?AVQStringList@2@XZ
?second@QTime@kso_qt@@QEBAHXZ
?secsTo@QDateTime@kso_qt@@QEBA_JAEBV12@@Z
?secsTo@QElapsedTimer@kso_qt@@QEBA_JAEBV12@@Z
?secsTo@QTime@kso_qt@@QEBAHAEBV12@@Z
?section@QString@kso_qt@@QEBA?AV12@AEBV12@HHV?$QFlags@W4SectionFlag@QString@kso_qt@@@2@@Z
?section@QString@kso_qt@@QEBA?AV12@AEBVQRegExp@2@HHV?$QFlags@W4SectionFlag@QString@kso_qt@@@2@@Z
?section@QString@kso_qt@@QEBA?AV12@AEBVQRegularExpression@2@HHV?$QFlags@W4SectionFlag@QString@kso_qt@@@2@@Z
?section@QString@kso_qt@@QEBA?AV12@VQChar@2@HHV?$QFlags@W4SectionFlag@QString@kso_qt@@@2@@Z
?sectionMaxSize@QDateTimeParser@kso_qt@@AEBAHW4Section@12@H@Z
?sectionMaxSize@QDateTimeParser@kso_qt@@IEBAHH@Z
?sectionNode@QDateTimeParser@kso_qt@@IEBAAEBUSectionNode@12@H@Z
?sectionPos@QDateTimeParser@kso_qt@@IEBAHAEBUSectionNode@12@@Z
?sectionPos@QDateTimeParser@kso_qt@@IEBAHH@Z
?sectionSize@QDateTimeParser@kso_qt@@IEBAHH@Z
?sectionText@QDateTimeParser@kso_qt@@AEBA?AVQString@2@AEBV32@HH@Z
?sectionText@QDateTimeParser@kso_qt@@IEBA?AVQString@2@H@Z
?sectionType@QDateTimeParser@kso_qt@@IEBA?AW4Section@12@H@Z
?securelySeeded@QRandomGenerator64@kso_qt@@SA?AV12@XZ
?seek@QAbstractFileEngine@kso_qt@@UEAA_N_J@Z
?seek@QBuffer@kso_qt@@UEAA_N_J@Z
?seek@QFSFileEngine@kso_qt@@UEAA_N_J@Z
?seek@QFileDevice@kso_qt@@UEAA_N_J@Z
?seek@QIODevice@kso_qt@@UEAA_N_J@Z
?seek@QTextStream@kso_qt@@QEAA_N_J@Z
?seekBuffer@QIODevicePrivate@kso_qt@@QEAAX_J@Z
?seekFdFh@QFSFileEnginePrivate@kso_qt@@QEAA_N_J@Z
?segmentCount@QOperatingSystemVersion@kso_qt@@QEBAHXZ
?segments@QVersionNumber@kso_qt@@QEBA?AV?$QVector@H@2@XZ
?select@QFileSelector@kso_qt@@QEBA?AVQString@2@AEBV32@@Z
?select@QFileSelector@kso_qt@@QEBA?AVQUrl@2@AEBV32@@Z
?select@QFileSelectorPrivate@kso_qt@@QEBA?AVQString@2@AEBV32@@Z
?select@QItemSelection@kso_qt@@QEAAXAEBVQModelIndex@2@0@Z
?select@QItemSelectionModel@kso_qt@@UEAAXAEBVQItemSelection@2@V?$QFlags@W4SelectionFlag@QItemSelectionModel@kso_qt@@@2@@Z
?select@QItemSelectionModel@kso_qt@@UEAAXAEBVQModelIndex@2@V?$QFlags@W4SelectionFlag@QItemSelectionModel@kso_qt@@@2@@Z
?selectAnimations@QStateMachinePrivate@kso_qt@@QEBA?AV?$QList@PEAVQAbstractAnimation@kso_qt@@@2@AEBV?$QList@PEAVQAbstractTransition@kso_qt@@@2@@Z
?selectTransitions@QStateMachinePrivate@kso_qt@@QEAA?AV?$QList@PEAVQAbstractTransition@kso_qt@@@2@PEAVQEvent@2@PEAUCalculationCache@2@@Z
?selectedColumns@QItemSelectionModel@kso_qt@@QEBA?AV?$QList@VQModelIndex@kso_qt@@@2@H@Z
?selectedIndexes@QItemSelectionModel@kso_qt@@QEBA?AV?$QList@VQModelIndex@kso_qt@@@2@XZ
?selectedRows@QItemSelectionModel@kso_qt@@QEBA?AV?$QList@VQModelIndex@kso_qt@@@2@H@Z
?selection@QItemSelectionModel@kso_qt@@QEBA?BVQItemSelection@2@XZ
?selectionChanged@QItemSelectionModel@kso_qt@@QEAAXAEBVQItemSelection@2@0@Z
?selectionHelper@QFileSelectorPrivate@kso_qt@@SA?AVQString@2@AEBV32@0AEBVQStringList@2@AEBVQChar@2@@Z
?self@QCoreApplication@kso_qt@@0PEAV12@EA
?sendEvent@QCoreApplication@kso_qt@@SA_NPEAVQObject@2@PEAVQEvent@2@@Z
?sendPostedEvents@QCoreApplication@kso_qt@@SAXPEAVQObject@2@H@Z
?sendPostedEvents@QCoreApplicationPrivate@kso_qt@@SAXPEAVQObject@2@HPEAVQThreadData@2@@Z
?sendPostedEvents@QEventDispatcherWin32@kso_qt@@MEAAXXZ
?sendSpontaneousEvent@QCoreApplication@kso_qt@@CA_NPEAVQObject@2@PEAVQEvent@2@@Z
?sendThroughApplicationEventFilters@QCoreApplicationPrivate@kso_qt@@QEAA_NPEAVQObject@2@PEAVQEvent@2@@Z
?sendThroughObjectEventFilters@QCoreApplicationPrivate@kso_qt@@SA_NPEAVQObject@2@PEAVQEvent@2@@Z
?sendTimerEvent@QEventDispatcherWin32Private@kso_qt@@QEAAXH@Z
?sender@QMetaCallEvent@kso_qt@@QEBAPEBVQObject@2@XZ
?sender@QObject@kso_qt@@IEBAPEAV12@XZ
?sender@SignalEvent@QStateMachine@kso_qt@@QEBAPEAVQObject@3@XZ
?senderList@QObjectPrivate@kso_qt@@QEBA?AV?$QList@PEAVQObject@kso_qt@@@2@XZ
?senderObject@QSignalTransition@kso_qt@@QEBAPEAVQObject@2@XZ
?senderObjectChanged@QSignalTransition@kso_qt@@QEAAXUQPrivateSignal@12@@Z
?senderSignalIndex@QObject@kso_qt@@IEBAHXZ
?sentenceBreakClass@QUnicodeTables@kso_qt@@YA?AW4SentenceBreakClass@12@I@Z
?separator@QDir@kso_qt@@SA?AVQChar@2@XZ
?serialize@QMetaObjectBuilder@kso_qt@@QEBAXAEAVQDataStream@2@@Z
?serialize@QTimeZonePrivate@kso_qt@@UEBAXAEAVQDataStream@2@@Z
?serialize@QUtcTimeZonePrivate@kso_qt@@UEBAXAEAVQDataStream@2@@Z
?set@QThreadStorageData@kso_qt@@QEAAPEAPEAXPEAX@Z
?setAccepted@QEvent@kso_qt@@QEAAX_N@Z
?setAccess@QMetaMethodBuilder@kso_qt@@QEAAXW4Access@QMetaMethod@2@@Z
?setAmplitude@QEasingCurve@kso_qt@@QEAAXN@Z
?setAngle@QLineF@kso_qt@@QEAAXN@Z
?setAnimated@QStateMachine@kso_qt@@QEAAX_N@Z
?setApiRules@QLoggingRegistry@kso_qt@@QEAAXAEBVQString@2@@Z
?setApplicationDescription@QCommandLineParser@kso_qt@@QEAAXAEBVQString@2@@Z
?setApplicationFilePath@QCoreApplicationPrivate@kso_qt@@SAXAEBVQString@2@@Z
?setApplicationName@QCoreApplication@kso_qt@@SAXAEBVQString@2@@Z
?setApplicationVersion@QCoreApplication@kso_qt@@SAXAEBVQString@2@@Z
?setArguments@QProcess@kso_qt@@QEAAXAEBVQStringList@2@@Z
?setArray@QJsonDocument@kso_qt@@QEAAXAEBVQJsonArray@2@@Z
?setArrayIndex@QSettings@kso_qt@@QEAAXH@Z
?setAtomicSyncRequired@QSettings@kso_qt@@QEAAX_N@Z
?setAttribute@QCoreApplication@kso_qt@@SAXW4ApplicationAttribute@Qt@2@_N@Z
?setAttributes@QMetaMethodBuilder@kso_qt@@QEAAXH@Z
?setAuthority@QUrl@kso_qt@@QEAAXAEBVQString@2@W4ParsingMode@12@@Z
?setAutoDelete@QRunnable@kso_qt@@QEAAX_N@Z
?setAutoDetectUnicode@QTextStream@kso_qt@@QEAAX_N@Z
?setAutoFormatting@QXmlStreamWriter@kso_qt@@QEAAX_N@Z
?setAutoFormattingIndent@QXmlStreamWriter@kso_qt@@QEAAXH@Z
?setAutoInsertSpaces@QDebug@kso_qt@@QEAAX_N@Z
?setAutoRemove@QTemporaryDir@kso_qt@@QEAAX_N@Z
?setAutoRemove@QTemporaryFile@kso_qt@@QEAAX_N@Z
?setBit@QBitArray@kso_qt@@QEAAXH@Z
?setBit@QBitArray@kso_qt@@QEAAXH_N@Z
?setBottom@QRect@kso_qt@@QEAAXH@Z
?setBottom@QRectF@kso_qt@@QEAAXN@Z
?setBottomLeft@QRect@kso_qt@@QEAAXAEBVQPoint@2@@Z
?setBottomLeft@QRectF@kso_qt@@QEAAXAEBVQPointF@2@@Z
?setBottomRight@QRect@kso_qt@@QEAAXAEBVQPoint@2@@Z
?setBottomRight@QRectF@kso_qt@@QEAAXAEBVQPointF@2@@Z
?setBuffer@QBuffer@kso_qt@@QEAAXPEAVQByteArray@2@@Z
?setByteOrder@QDataStream@kso_qt@@QEAAXW4ByteOrder@12@@Z
?setCaching@QFileInfo@kso_qt@@QEAAX_N@Z
?setCaseSensitivity@QCollator@kso_qt@@QEAAXW4CaseSensitivity@Qt@2@@Z
?setCaseSensitivity@QRegExp@kso_qt@@QEAAXW4CaseSensitivity@Qt@2@@Z
?setCaseSensitivity@QStringMatcher@kso_qt@@QEAAXW4CaseSensitivity@Qt@2@@Z
?setCell@QChar@kso_qt@@QEAAXE@Z
?setCell@QCharRef@kso_qt@@QEAAXE@Z
?setChildMode@QState@kso_qt@@QEAAXW4ChildMode@12@@Z
?setClassName@QMetaObjectBuilder@kso_qt@@QEAAXAEBVQByteArray@2@@Z
?setCodec@QTextStream@kso_qt@@QEAAXPEAVQTextCodec@2@@Z
?setCodec@QTextStream@kso_qt@@QEAAXPEBD@Z
?setCodec@QXmlStreamWriter@kso_qt@@QEAAXPEAVQTextCodec@2@@Z
?setCodec@QXmlStreamWriter@kso_qt@@QEAAXPEBD@Z
?setCodecForLocale@QTextCodec@kso_qt@@SAXPEAV12@@Z
?setColor@QMapNodeBase@kso_qt@@QEAAXW4Color@12@@Z
?setColorData@QMimeData@kso_qt@@QEAAXAEBVQVariant@2@@Z
?setConsistentTiming@QUnifiedTimer@kso_qt@@QEAAX_N@Z
?setConstant@QMetaPropertyBuilder@kso_qt@@QEAAX_N@Z
?setContent@QLoggingSettingsParser@kso_qt@@QEAAXAEAVQTextStream@2@@Z
?setContent@QLoggingSettingsParser@kso_qt@@QEAAXAEBVQString@2@@Z
?setCoords@QRect@kso_qt@@QEAAXHHHH@Z
?setCoords@QRectF@kso_qt@@QEAAXNNNN@Z
?setCreateProcessArgumentsModifier@QProcess@kso_qt@@QEAAXV?$function@$$A6AXPEAUCreateProcessArguments@QProcess@kso_qt@@@Z@std@@@Z
?setCurrent@QDir@kso_qt@@SA_NAEBVQString@2@@Z
?setCurrentIndex@QItemSelectionModel@kso_qt@@UEAAXAEBVQModelIndex@2@V?$QFlags@W4SelectionFlag@QItemSelectionModel@kso_qt@@@2@@Z
?setCurrentPath@QFSFileEngine@kso_qt@@SA_NAEBVQString@2@@Z
?setCurrentReadChannel@QIODevice@kso_qt@@QEAAXH@Z
?setCurrentReadChannel@QIODevicePrivate@kso_qt@@QEAAXH@Z
?setCurrentSender@QObjectPrivate@kso_qt@@SAPEAUSender@12@PEAVQObject@2@PEAU312@@Z
?setCurrentTime@QAbstractAnimation@kso_qt@@QEAAXH@Z
?setCurrentTime@QTimeLine@kso_qt@@QEAAXH@Z
?setCurrentWriteChannel@QIODevice@kso_qt@@QEAAXH@Z
?setCurrentWriteChannel@QIODevicePrivate@kso_qt@@QEAAXH@Z
?setCurveShape@QTimeLine@kso_qt@@QEAAXW4CurveShape@12@@Z
?setCustomType@QEasingCurve@kso_qt@@QEAAXP6ANN@Z@Z
?setData@QAbstractItemModel@kso_qt@@UEAA_NAEBVQModelIndex@2@AEBVQVariant@2@H@Z
?setData@QAbstractProxyModel@kso_qt@@UEAA_NAEBVQModelIndex@2@AEBVQVariant@2@H@Z
?setData@QBuffer@kso_qt@@QEAAXAEBVQByteArray@2@@Z
?setData@QBuffer@kso_qt@@QEAAXPEBDH@Z
?setData@QMimeData@kso_qt@@QEAAXAEBVQString@2@AEBVQByteArray@2@@Z
?setData@QSortFilterProxyModel@kso_qt@@UEAA_NAEBVQModelIndex@2@AEBVQVariant@2@H@Z
?setData@QStringListModel@kso_qt@@UEAA_NAEBVQModelIndex@2@AEBVQVariant@2@H@Z
?setDate@QDate@kso_qt@@QEAA_NHHH@Z
?setDate@QDateTime@kso_qt@@QEAAXAEBVQDate@2@@Z
?setDeadline@QDeadlineTimer@kso_qt@@QEAAX_JW4TimerType@Qt@2@@Z
?setDecodingFunction@QFile@kso_qt@@SAXP6A?AVQString@2@AEBVQByteArray@2@@Z@Z
?setDefault@QLocale@kso_qt@@SAXAEBV12@@Z
?setDefaultFormat@QSettings@kso_qt@@SAXW4Format@12@@Z
?setDefaultLocale@QDateTimeParser@kso_qt@@QEAAXAEBVQLocale@2@@Z
?setDefaultState@QHistoryState@kso_qt@@QEAAXPEAVQAbstractState@2@@Z
?setDefaultTransition@QHistoryState@kso_qt@@QEAAXPEAVQAbstractTransition@2@@Z
?setDefaultValue@QCommandLineOption@kso_qt@@QEAAXAEBVQString@2@@Z
?setDefaultValues@QCommandLineOption@kso_qt@@QEAAXAEBVQStringList@2@@Z
?setDescription@QCommandLineOption@kso_qt@@QEAAXAEBVQString@2@@Z
?setDesignable@QMetaPropertyBuilder@kso_qt@@QEAAX_N@Z
?setDevice@QCborStreamReader@kso_qt@@QEAAXPEAVQIODevice@2@@Z
?setDevice@QCborStreamWriter@kso_qt@@QEAAXPEAVQIODevice@2@@Z
?setDevice@QDataStream@kso_qt@@QEAAXPEAVQIODevice@2@@Z
?setDevice@QTextStream@kso_qt@@QEAAXPEAVQIODevice@2@@Z
?setDevice@QXmlStreamReader@kso_qt@@QEAAXPEAVQIODevice@2@@Z
?setDevice@QXmlStreamWriter@kso_qt@@QEAAXPEAVQIODevice@2@@Z
?setDigit@QDateTimeParser@kso_qt@@IEBA_NAEAVQDateTime@2@HH@Z
?setDirectWriteFallback@QSaveFile@kso_qt@@QEAAX_N@Z
?setDirection@QAbstractAnimation@kso_qt@@QEAAXW4Direction@12@@Z
?setDirection@QTimeLine@kso_qt@@QEAAXW4Direction@12@@Z
?setDuration@QPauseAnimation@kso_qt@@QEAAXH@Z
?setDuration@QTimeLine@kso_qt@@QEAAXH@Z
?setDuration@QVariantAnimation@kso_qt@@QEAAXH@Z
?setDynamicSortFilter@QSortFilterProxyModel@kso_qt@@QEAAX_N@Z
?setEasingCurve@QTimeLine@kso_qt@@QEAAXAEBVQEasingCurve@2@@Z
?setEasingCurve@QVariantAnimation@kso_qt@@QEAAXAEBVQEasingCurve@2@@Z
?setEditable@QMetaPropertyBuilder@kso_qt@@QEAAX_N@Z
?setEnabled@QLoggingCategory@kso_qt@@QEAAXW4QtMsgType@2@_N@Z
?setEnabled@QSocketNotifier@kso_qt@@QEAAX_N@Z
?setEnabled@QWinEventNotifier@kso_qt@@QEAAX_N@Z
?setEncodedFragment@QUrl@kso_qt@@QEAAXAEBVQByteArray@2@@Z
?setEncodedHost@QUrl@kso_qt@@QEAAXAEBVQByteArray@2@@Z
?setEncodedPassword@QUrl@kso_qt@@QEAAXAEBVQByteArray@2@@Z
?setEncodedPath@QUrl@kso_qt@@QEAAXAEBVQByteArray@2@@Z
?setEncodedQuery@QUrl@kso_qt@@QEAAXAEBVQByteArray@2@@Z
?setEncodedQueryItems@QUrl@kso_qt@@QEAAXAEBV?$QList@U?$QPair@VQByteArray@kso_qt@@V12@@kso_qt@@@2@@Z
?setEncodedUrl@QUrl@kso_qt@@QEAAXAEBVQByteArray@2@W4ParsingMode@12@@Z
?setEncodedUserName@QUrl@kso_qt@@QEAAXAEBVQByteArray@2@@Z
?setEncodingFunction@QFile@kso_qt@@SAXP6A?AVQByteArray@2@AEBVQString@2@@Z@Z
?setEndFrame@QTimeLine@kso_qt@@QEAAXH@Z
?setEndValue@QVariantAnimation@kso_qt@@QEAAXAEBVQVariant@2@@Z
?setEntityResolver@QXmlStreamReader@kso_qt@@QEAAXPEAVQXmlStreamEntityResolver@2@@Z
?setEnumName@QMetaEnumBuilder@kso_qt@@QEAAXAEBVQByteArray@2@@Z
?setEnumOrFlag@QMetaPropertyBuilder@kso_qt@@QEAAX_N@Z
?setEnvironment@QProcess@kso_qt@@QEAAXAEBVQStringList@2@@Z
?setError@QAbstractFileEngine@kso_qt@@IEAAXW4FileError@QFileDevice@2@AEBVQString@2@@Z
?setError@QStateMachinePrivate@kso_qt@@QEAAXW4Error@QStateMachine@2@PEAVQAbstractState@2@@Z
?setErrorState@QState@kso_qt@@QEAAXPEAVQAbstractState@2@@Z
?setErrorString@QIODevice@kso_qt@@IEAAXAEBVQString@2@@Z
?setErrorString@QSharedMemoryPrivate@kso_qt@@QEAAXVQLatin1String@2@@Z
?setEventDispatcher@QCoreApplication@kso_qt@@SAXPEAVQAbstractEventDispatcher@2@@Z
?setEventDispatcher@QThread@kso_qt@@QEAAXPEAVQAbstractEventDispatcher@2@@Z
?setEventSource@QEventTransition@kso_qt@@QEAAXPEAVQObject@2@@Z
?setEventSpontaneous@QCoreApplicationPrivate@kso_qt@@SAXPEAVQEvent@2@_N@Z
?setEventType@QEventTransition@kso_qt@@QEAAXW4Type@QEvent@2@@Z
?setException@ExceptionStore@QtPrivate@kso_qt@@QEAAXAEBVQException@3@@Z
?setExpectedResultCount@QFutureInterfaceBase@kso_qt@@QEAAXH@Z
?setExpiryTimeout@QThreadPool@kso_qt@@QEAAXH@Z
?setExtraSelectors@QFileSelector@kso_qt@@QEAAXAEBVQStringList@2@@Z
?setFallbacksEnabled@QSettings@kso_qt@@QEAAX_N@Z
?setFieldAlignment@QTextStream@kso_qt@@QEAAXW4FieldAlignment@12@@Z
?setFieldWidth@QTextStream@kso_qt@@QEAAXH@Z
?setFile@QFileInfo@kso_qt@@QEAAXAEBVQDir@2@AEBVQString@2@@Z
?setFile@QFileInfo@kso_qt@@QEAAXAEBVQFile@2@@Z
?setFile@QFileInfo@kso_qt@@QEAAXAEBVQString@2@@Z
?setFileName@QAbstractFileEngine@kso_qt@@UEAAXAEBVQString@2@@Z
?setFileName@QFSFileEngine@kso_qt@@UEAAXAEBVQString@2@@Z
?setFileName@QFile@kso_qt@@QEAAXAEBVQString@2@@Z
?setFileName@QLibrary@kso_qt@@QEAAXAEBVQString@2@@Z
?setFileName@QPluginLoader@kso_qt@@QEAAXAEBVQString@2@@Z
?setFileName@QResource@kso_qt@@QEAAXAEBVQString@2@@Z
?setFileName@QSaveFile@kso_qt@@QEAAXAEBVQString@2@@Z
?setFileNameAndVersion@QLibrary@kso_qt@@QEAAXAEBVQString@2@0@Z
?setFileNameAndVersion@QLibrary@kso_qt@@QEAAXAEBVQString@2@H@Z
?setFileTemplate@QTemporaryFile@kso_qt@@QEAAXAEBVQString@2@@Z
?setFileTime@QAbstractFileEngine@kso_qt@@UEAA_NAEBVQDateTime@2@W4FileTime@12@@Z
?setFileTime@QFSFileEngine@kso_qt@@UEAA_NAEBVQDateTime@2@W4FileTime@QAbstractFileEngine@2@@Z
?setFileTime@QFileDevice@kso_qt@@QEAA_NAEBVQDateTime@2@W4FileTime@12@@Z
?setFilter@QDir@kso_qt@@QEAAXV?$QFlags@W4Filter@QDir@kso_qt@@@2@@Z
?setFilterCaseSensitivity@QSortFilterProxyModel@kso_qt@@QEAAXW4CaseSensitivity@Qt@2@@Z
?setFilterFixedString@QSortFilterProxyModel@kso_qt@@QEAAXAEBVQString@2@@Z
?setFilterKeyColumn@QSortFilterProxyModel@kso_qt@@QEAAXH@Z
?setFilterMode@QFutureInterfaceBase@kso_qt@@QEAAX_N@Z
?setFilterMode@ResultStoreBase@QtPrivate@kso_qt@@QEAAX_N@Z
?setFilterRegExp@QSortFilterProxyModel@kso_qt@@QEAAXAEBVQRegExp@2@@Z
?setFilterRegExp@QSortFilterProxyModel@kso_qt@@QEAAXAEBVQString@2@@Z
?setFilterRegularExpression@QSortFilterProxyModel@kso_qt@@QEAAXAEBVQRegularExpression@2@@Z
?setFilterRegularExpression@QSortFilterProxyModel@kso_qt@@QEAAXAEBVQString@2@@Z
?setFilterRole@QSortFilterProxyModel@kso_qt@@QEAAXH@Z
?setFilterRules@QLoggingCategory@kso_qt@@SAXAEBVQString@2@@Z
?setFilterWildcard@QSortFilterProxyModel@kso_qt@@QEAAXAEBVQString@2@@Z
?setFinal@QMetaPropertyBuilder@kso_qt@@QEAAX_N@Z
?setFlags@QCommandLineOption@kso_qt@@QEAAXV?$QFlags@W4Flag@QCommandLineOption@kso_qt@@@2@@Z
?setFlags@QMetaObjectBuilder@kso_qt@@QEAAXV?$QFlags@W4MetaObjectFlag@QMetaObjectBuilder@kso_qt@@@2@@Z
?setFloatingPointPrecision@QDataStream@kso_qt@@QEAAXW4FloatingPointPrecision@12@@Z
?setFragment@QUrl@kso_qt@@QEAAXAEBVQString@2@W4ParsingMode@12@@Z
?setFrameRange@QTimeLine@kso_qt@@QEAAXHH@Z
?setGenerateByteOrderMark@QTextStream@kso_qt@@QEAAX_N@Z
?setGlobalRestorePolicy@QStateMachine@kso_qt@@QEAAXW4RestorePolicy@QState@2@@Z
?setHMS@QTime@kso_qt@@QEAA_NHHHH@Z
?setHandle@QWinEventNotifier@kso_qt@@QEAAXPEAX@Z
?setHandle@QWindowsPipeReader@kso_qt@@QEAAXPEAX@Z
?setHeaderData@QAbstractItemModel@kso_qt@@UEAA_NHW4Orientation@Qt@2@AEBVQVariant@2@H@Z
?setHeaderData@QAbstractProxyModel@kso_qt@@UEAA_NHW4Orientation@Qt@2@AEBVQVariant@2@H@Z
?setHeaderData@QSortFilterProxyModel@kso_qt@@UEAA_NHW4Orientation@Qt@2@AEBVQVariant@2@H@Z
?setHeight@QRect@kso_qt@@QEAAXH@Z
?setHeight@QRectF@kso_qt@@QEAAXN@Z
?setHeight@QSize@kso_qt@@QEAAXH@Z
?setHeight@QSizeF@kso_qt@@QEAAXN@Z
?setHidden@QCommandLineOption@kso_qt@@QEAAX_N@Z
?setHistoryType@QHistoryState@kso_qt@@QEAAXW4HistoryType@12@@Z
?setHost@QUrl@kso_qt@@QEAAXAEBVQString@2@W4ParsingMode@12@@Z
?setHtml@QMimeData@kso_qt@@QEAAXAEBVQString@2@@Z
?setIdnWhitelist@QUrl@kso_qt@@SAXAEBVQStringList@2@@Z
?setIgnorePunctuation@QCollator@kso_qt@@QEAAX_N@Z
?setImageData@QMimeData@kso_qt@@QEAAXAEBVQVariant@2@@Z
?setImplicitRulesSection@QLoggingSettingsParser@kso_qt@@QEAAX_N@Z
?setIniCodec@QSettings@kso_qt@@QEAAXPEAVQTextCodec@2@@Z
?setIniCodec@QSettings@kso_qt@@QEAAXPEBD@Z
?setInitialState@QState@kso_qt@@QEAAXPEAVQAbstractState@2@@Z
?setInputChannelMode@QProcess@kso_qt@@QEAAXW4InputChannelMode@12@@Z
?setIntegerBase@QTextStream@kso_qt@@QEAAXH@Z
?setInterval@QTimer@kso_qt@@QEAAXH@Z
?setInterval@QTimer@kso_qt@@QEAAXV?$duration@_JU?$ratio@$00$0DOI@@std@@@chrono@std@@@Z
?setIsFlag@QMetaEnumBuilder@kso_qt@@QEAAX_N@Z
?setIsScoped@QMetaEnumBuilder@kso_qt@@QEAAX_N@Z
?setItemData@QAbstractItemModel@kso_qt@@UEAA_NAEBVQModelIndex@2@AEBV?$QMap@HVQVariant@kso_qt@@@2@@Z
?setItemData@QAbstractProxyModel@kso_qt@@UEAA_NAEBVQModelIndex@2@AEBV?$QMap@HVQVariant@kso_qt@@@2@@Z
?setKey@QMessageAuthenticationCode@kso_qt@@QEAAXAEBVQByteArray@2@@Z
?setKey@QSharedMemory@kso_qt@@QEAAXAEBVQString@2@@Z
?setKey@QSystemSemaphore@kso_qt@@QEAAXAEBVQString@2@HW4AccessMode@12@@Z
?setKeyInputSourceID@QLocale@kso_qt@@QEAAXAEBVQString@2@@Z
?setKeyInputSourceID@QLocalePrivate@kso_qt@@QEAAXAEBVQString@2@@Z
?setKeyValueAt@QVariantAnimation@kso_qt@@QEAAXNAEBVQVariant@2@@Z
?setKeyValues@QVariantAnimation@kso_qt@@QEAAXAEBV?$QVector@U?$QPair@NVQVariant@kso_qt@@@kso_qt@@@2@@Z
?setLeft@QRect@kso_qt@@QEAAXH@Z
?setLeft@QRectF@kso_qt@@QEAAXN@Z
?setLength@QLineF@kso_qt@@QEAAXN@Z
?setLibraryPaths@QCoreApplication@kso_qt@@SAXAEBVQStringList@2@@Z
?setLine@QLine@kso_qt@@QEAAXHHHH@Z
?setLine@QLineF@kso_qt@@QEAAXNNNN@Z
?setLoadHints@QLibrary@kso_qt@@QEAAXV?$QFlags@W4LoadHint@QLibrary@kso_qt@@@2@@Z
?setLoadHints@QPluginLoader@kso_qt@@QEAAXV?$QFlags@W4LoadHint@QLibrary@kso_qt@@@2@@Z
?setLocale@QCollator@kso_qt@@QEAAXAEBVQLocale@2@@Z
?setLocale@QResource@kso_qt@@QEAAXAEBVQLocale@2@@Z
?setLocale@QTextStream@kso_qt@@QEAAXAEBVQLocale@2@@Z
?setLoopCount@QAbstractAnimation@kso_qt@@QEAAXH@Z
?setLoopCount@QTimeLine@kso_qt@@QEAAXH@Z
?setMSecsSinceEpoch@QDateTime@kso_qt@@QEAAX_J@Z
?setMapping@QSignalMapper@kso_qt@@QEAAXPEAVQObject@2@0@Z
?setMapping@QSignalMapper@kso_qt@@QEAAXPEAVQObject@2@AEBVQString@2@@Z
?setMapping@QSignalMapper@kso_qt@@QEAAXPEAVQObject@2@H@Z
?setMapping@QSignalMapper@kso_qt@@QEAAXPEAVQObject@2@PEAVQWidget@2@@Z
?setMaxReadBufferSize@QWindowsPipeReader@kso_qt@@QEAAX_J@Z
?setMaxThreadCount@QThreadPool@kso_qt@@QEAAXH@Z
?setMinimal@QRegExp@kso_qt@@QEAAX_N@Z
?setModel@QItemSelectionModel@kso_qt@@QEAAXPEAVQAbstractItemModel@2@@Z
?setNameFilters@QDir@kso_qt@@QEAAXAEBVQStringList@2@@Z
?setNamespaceProcessing@QXmlStreamReader@kso_qt@@QEAAX_N@Z
?setNativeArguments@QProcess@kso_qt@@QEAAXAEBVQString@2@@Z
?setNativeKey@QSharedMemory@kso_qt@@QEAAXAEBVQString@2@@Z
?setNotifySignal@QMetaPropertyBuilder@kso_qt@@QEAAXAEBVQMetaMethodBuilder@2@@Z
?setNum@QByteArray@kso_qt@@QEAAAEAV12@FH@Z
?setNum@QByteArray@kso_qt@@QEAAAEAV12@GH@Z
?setNum@QByteArray@kso_qt@@QEAAAEAV12@HH@Z
?setNum@QByteArray@kso_qt@@QEAAAEAV12@IH@Z
?setNum@QByteArray@kso_qt@@QEAAAEAV12@MDH@Z
?setNum@QByteArray@kso_qt@@QEAAAEAV12@NDH@Z
?setNum@QByteArray@kso_qt@@QEAAAEAV12@_JH@Z
?setNum@QByteArray@kso_qt@@QEAAAEAV12@_KH@Z
?setNum@QString@kso_qt@@QEAAAEAV12@FH@Z
?setNum@QString@kso_qt@@QEAAAEAV12@GH@Z
?setNum@QString@kso_qt@@QEAAAEAV12@HH@Z
?setNum@QString@kso_qt@@QEAAAEAV12@IH@Z
?setNum@QString@kso_qt@@QEAAAEAV12@JH@Z
?setNum@QString@kso_qt@@QEAAAEAV12@KH@Z
?setNum@QString@kso_qt@@QEAAAEAV12@MDH@Z
?setNum@QString@kso_qt@@QEAAAEAV12@NDH@Z
?setNum@QString@kso_qt@@QEAAAEAV12@_JH@Z
?setNum@QString@kso_qt@@QEAAAEAV12@_KH@Z
?setNumberFlags@QTextStream@kso_qt@@QEAAXV?$QFlags@W4NumberFlag@QTextStream@kso_qt@@@2@@Z
?setNumberOptions@QLocale@kso_qt@@QEAAXV?$QFlags@W4NumberOption@QLocale@kso_qt@@@2@@Z
?setNumericMode@QCollator@kso_qt@@QEAAX_N@Z
?setObject@QJsonDocument@kso_qt@@QEAAXAEBVQJsonObject@2@@Z
?setObjectName@QObject@kso_qt@@QEAAXAEBVQString@2@@Z
?setOffsetFromUtc@QDateTime@kso_qt@@QEAAXH@Z
?setOpenMode@QIODevice@kso_qt@@IEAAXV?$QFlags@W4OpenModeFlag@QIODevice@kso_qt@@@2@@Z
?setOptionsAfterPositionalArgumentsMode@QCommandLineParser@kso_qt@@QEAAXW4OptionsAfterPositionalArgumentsMode@12@@Z
?setOrganizationDomain@QCoreApplication@kso_qt@@SAXAEBVQString@2@@Z
?setOrganizationName@QCoreApplication@kso_qt@@SAXAEBVQString@2@@Z
?setOvershoot@QEasingCurve@kso_qt@@QEAAXN@Z
?setP1@QLine@kso_qt@@QEAAXAEBVQPoint@2@@Z
?setP1@QLineF@kso_qt@@QEAAXAEBVQPointF@2@@Z
?setP2@QLine@kso_qt@@QEAAXAEBVQPoint@2@@Z
?setP2@QLineF@kso_qt@@QEAAXAEBVQPointF@2@@Z
?setPadChar@QTextStream@kso_qt@@QEAAXVQChar@2@@Z
?setParameterNames@QMetaMethodBuilder@kso_qt@@QEAAXAEBV?$QList@VQByteArray@kso_qt@@@2@@Z
?setParent@QMapNodeBase@kso_qt@@QEAAXPEAU12@@Z
?setParent@QObject@kso_qt@@QEAAXPEAV12@@Z
?setParent_helper@QObjectPrivate@kso_qt@@QEAAXPEAVQObject@2@@Z
?setPassword@QUrl@kso_qt@@QEAAXAEBVQString@2@W4ParsingMode@12@@Z
?setPath@QAbstractFileEngineIterator@kso_qt@@AEAAXAEBVQString@2@@Z
?setPath@QDir@kso_qt@@QEAAXAEBVQString@2@@Z
?setPath@QSettings@kso_qt@@SAXW4Format@12@W4Scope@12@AEBVQString@2@@Z
?setPath@QStorageInfo@kso_qt@@QEAAXAEBVQString@2@@Z
?setPath@QUrl@kso_qt@@QEAAXAEBVQString@2@W4ParsingMode@12@@Z
?setPattern@QByteArrayMatcher@kso_qt@@QEAAXAEBVQByteArray@2@@Z
?setPattern@QRegExp@kso_qt@@QEAAXAEBVQString@2@@Z
?setPattern@QRegularExpression@kso_qt@@QEAAXAEBVQString@2@@Z
?setPattern@QStringMatcher@kso_qt@@QEAAXAEBVQString@2@@Z
?setPatternOptions@QRegularExpression@kso_qt@@QEAAXV?$QFlags@W4PatternOption@QRegularExpression@kso_qt@@@2@@Z
?setPatternSyntax@QRegExp@kso_qt@@QEAAXW4PatternSyntax@12@@Z
?setPaused@QAbstractAnimation@kso_qt@@QEAAX_N@Z
?setPaused@QFutureInterfaceBase@kso_qt@@QEAAX_N@Z
?setPaused@QFutureWatcherBase@kso_qt@@QEAAX_N@Z
?setPaused@QTimeLine@kso_qt@@QEAAX_N@Z
?setPendingResultsLimit@QFutureWatcherBase@kso_qt@@QEAAXH@Z
?setPeriod@QEasingCurve@kso_qt@@QEAAXN@Z
?setPermissions@QAbstractFileEngine@kso_qt@@UEAA_NI@Z
?setPermissions@QFSFileEngine@kso_qt@@UEAA_NI@Z
?setPermissions@QFile@kso_qt@@SA_NAEBVQString@2@V?$QFlags@W4Permission@QFileDevice@kso_qt@@@2@@Z
?setPermissions@QFile@kso_qt@@UEAA_NV?$QFlags@W4Permission@QFileDevice@kso_qt@@@2@@Z
?setPermissions@QFileDevice@kso_qt@@UEAA_NV?$QFlags@W4Permission@QFileDevice@kso_qt@@@2@@Z
?setPoints@QLine@kso_qt@@QEAAXAEBVQPoint@2@0@Z
?setPoints@QLineF@kso_qt@@QEAAXAEBVQPointF@2@0@Z
?setPort@QUrl@kso_qt@@QEAAXH@Z
?setPosition@QTextBoundaryFinder@kso_qt@@QEAAXH@Z
?setPreciseDeadline@QDeadlineTimer@kso_qt@@QEAAX_J0W4TimerType@Qt@2@@Z
?setPreciseRemainingTime@QDeadlineTimer@kso_qt@@QEAAX_J0W4TimerType@Qt@2@@Z
?setPriority@QThread@kso_qt@@QEAAXW4Priority@12@@Z
?setProcessChannelMode@QProcess@kso_qt@@QEAAXW4ProcessChannelMode@12@@Z
?setProcessEnvironment@QProcess@kso_qt@@QEAAXAEBVQProcessEnvironment@2@@Z
?setProcessState@QProcess@kso_qt@@IEAAXW4ProcessState@12@@Z
?setProgram@QProcess@kso_qt@@QEAAXAEBVQString@2@@Z
?setProgressRange@QFutureInterfaceBase@kso_qt@@QEAAXHH@Z
?setProgressValue@QFutureInterfaceBase@kso_qt@@QEAAXH@Z
?setProgressValueAndText@QFutureInterfaceBase@kso_qt@@QEAAXHAEBVQString@2@@Z
?setProperty@QObject@kso_qt@@QEAA_NPEBDAEBVQVariant@2@@Z
?setPropertyName@QPropertyAnimation@kso_qt@@QEAAXAEBVQByteArray@2@@Z
?setQObjectShared@ExternalRefCountData@QtSharedPointer@kso_qt@@QEAAXPEBVQObject@3@_N@Z
?setQuery@QUrl@kso_qt@@QEAAXAEBVQString@2@W4ParsingMode@12@@Z
?setQuery@QUrl@kso_qt@@QEAAXAEBVQUrlQuery@2@@Z
?setQuery@QUrlQuery@kso_qt@@QEAAXAEBVQString@2@@Z
?setQueryDelimiters@QUrlQuery@kso_qt@@QEAAXVQChar@2@0@Z
?setQueryItems@QUrl@kso_qt@@QEAAXAEBV?$QList@U?$QPair@VQString@kso_qt@@V12@@kso_qt@@@2@@Z
?setQueryItems@QUrlQuery@kso_qt@@QEAAXAEBV?$QList@U?$QPair@VQString@kso_qt@@V12@@kso_qt@@@2@@Z
?setQuitLockEnabled@QCoreApplication@kso_qt@@SAX_N@Z
?setRawData@QByteArray@kso_qt@@QEAAAEAV12@PEBDI@Z
?setRawData@QString@kso_qt@@QEAAAEAV12@PEBVQChar@2@H@Z
?setReadChannel@QProcess@kso_qt@@QEAAXW4ProcessChannel@12@@Z
?setReadChannelCount@QIODevicePrivate@kso_qt@@QEAAXH@Z
?setReadChannelMode@QProcess@kso_qt@@QEAAXW4ProcessChannelMode@12@@Z
?setReadable@QMetaPropertyBuilder@kso_qt@@QEAAX_N@Z
?setRealNumberNotation@QTextStream@kso_qt@@QEAAXW4RealNumberNotation@12@@Z
?setRealNumberPrecision@QTextStream@kso_qt@@QEAAXH@Z
?setRect@QRect@kso_qt@@QEAAXHHHH@Z
?setRect@QRectF@kso_qt@@QEAAXNNNN@Z
?setRecursiveFilteringEnabled@QSortFilterProxyModel@kso_qt@@QEAAX_N@Z
?setRemainingTime@QDeadlineTimer@kso_qt@@QEAAX_JW4TimerType@Qt@2@@Z
?setResettable@QMetaPropertyBuilder@kso_qt@@QEAAX_N@Z
?setReturnType@QMetaMethodBuilder@kso_qt@@QEAAXAEBVQByteArray@2@@Z
?setRevision@QMetaMethodBuilder@kso_qt@@QEAAXH@Z
?setRevision@QMetaPropertyBuilder@kso_qt@@QEAAXH@Z
?setRight@QRect@kso_qt@@QEAAXH@Z
?setRight@QRectF@kso_qt@@QEAAXN@Z
?setRoleNames@QAbstractItemModel@kso_qt@@IEAAXAEBV?$QHash@HVQByteArray@kso_qt@@@2@@Z
?setRow@QChar@kso_qt@@QEAAXE@Z
?setRow@QCharRef@kso_qt@@QEAAXE@Z
?setRunnable@QFutureInterfaceBase@kso_qt@@QEAAXPEAVQRunnable@2@@Z
?setRunning@QStateMachine@kso_qt@@QEAAX_N@Z
?setScheme@QUrl@kso_qt@@QEAAXAEBVQString@2@@Z
?setScriptable@QMetaPropertyBuilder@kso_qt@@QEAAX_N@Z
?setSearchPaths@QDir@kso_qt@@SAXAEBVQString@2@AEBVQStringList@2@@Z
?setSecsSinceEpoch@QDateTime@kso_qt@@QEAAX_J@Z
?setSenderObject@QSignalTransition@kso_qt@@QEAAXPEBVQObject@2@@Z
?setSetuidAllowed@QCoreApplication@kso_qt@@SAX_N@Z
?setSharable@?$QList@VQItemSelectionRange@kso_qt@@@kso_qt@@QEAAX_N@Z
?setSharable@?$QVector@VQPoint@kso_qt@@@kso_qt@@QEAAX_N@Z
?setSharable@?$QVector@VQPointF@kso_qt@@@kso_qt@@QEAAX_N@Z
?setSharable@?$QVector@VQXmlStreamAttribute@kso_qt@@@kso_qt@@QEAAX_N@Z
?setSignal@QSignalTransition@kso_qt@@QEAAXAEBVQByteArray@2@@Z
?setSingleDashWordOptionMode@QCommandLineParser@kso_qt@@QEAAXW4SingleDashWordOptionMode@12@@Z
?setSingleShot@QTimer@kso_qt@@QEAAX_N@Z
?setSize@QAbstractFileEngine@kso_qt@@UEAA_N_J@Z
?setSize@QFSFileEngine@kso_qt@@UEAA_N_J@Z
?setSize@QRect@kso_qt@@QEAAXAEBVQSize@2@@Z
?setSize@QRectF@kso_qt@@QEAAXAEBVQSizeF@2@@Z
?setSlowModeEnabled@QUnifiedTimer@kso_qt@@QEAAX_N@Z
?setSlowdownFactor@QUnifiedTimer@kso_qt@@QEAAXN@Z
?setSortCaseSensitivity@QSortFilterProxyModel@kso_qt@@QEAAXW4CaseSensitivity@Qt@2@@Z
?setSortLocaleAware@QSortFilterProxyModel@kso_qt@@QEAAX_N@Z
?setSortRole@QSortFilterProxyModel@kso_qt@@QEAAXH@Z
?setSorting@QDir@kso_qt@@QEAAXV?$QFlags@W4SortFlag@QDir@kso_qt@@@2@@Z
?setSourceModel@QAbstractProxyModel@kso_qt@@UEAAXPEAVQAbstractItemModel@2@@Z
?setSourceModel@QIdentityProxyModel@kso_qt@@UEAAXPEAVQAbstractItemModel@2@@Z
?setSourceModel@QSortFilterProxyModel@kso_qt@@UEAAXPEAVQAbstractItemModel@2@@Z
?setSpontaneous@QEvent@kso_qt@@AEAAXXZ
?setStackSize@QThread@kso_qt@@QEAAXI@Z
?setStackSize@QThreadPool@kso_qt@@QEAAXI@Z
?setStaleLockTime@QLockFile@kso_qt@@QEAAXH@Z
?setStandardErrorFile@QProcess@kso_qt@@QEAAXAEBVQString@2@V?$QFlags@W4OpenModeFlag@QIODevice@kso_qt@@@2@@Z
?setStandardInputFile@QProcess@kso_qt@@QEAAXAEBVQString@2@@Z
?setStandardOutputFile@QProcess@kso_qt@@QEAAXAEBVQString@2@V?$QFlags@W4OpenModeFlag@QIODevice@kso_qt@@@2@@Z
?setStandardOutputProcess@QProcess@kso_qt@@QEAAXPEAV12@@Z
?setStartFrame@QTimeLine@kso_qt@@QEAAXH@Z
?setStartTime@QAnimationDriver@kso_qt@@QEAAX_J@Z
?setStartValue@QVariantAnimation@kso_qt@@QEAAXAEBVQVariant@2@@Z
?setStaticMetacallFunction@QMetaObjectBuilder@kso_qt@@QEAAXP6AXPEAVQObject@2@W4Call@QMetaObject@2@HPEAPEAX@Z@Z
?setStatus@QDataStream@kso_qt@@QEAAXW4Status@12@@Z
?setStatus@QSettingsPrivate@kso_qt@@QEBAXW4Status@QSettings@2@@Z
?setStatus@QTextStream@kso_qt@@QEAAXW4Status@12@@Z
?setStdCppSet@QMetaPropertyBuilder@kso_qt@@QEAAX_N@Z
?setStored@QMetaPropertyBuilder@kso_qt@@QEAAX_N@Z
?setString@QTextStream@kso_qt@@QEAAXPEAVQString@2@V?$QFlags@W4OpenModeFlag@QIODevice@kso_qt@@@2@@Z
?setStringList@QStringListModel@kso_qt@@QEAAXAEBVQStringList@2@@Z
?setSuperClass@QMetaObjectBuilder@kso_qt@@QEAAXPEBUQMetaObject@2@@Z
?setSupportedDragActions@QAbstractItemModel@kso_qt@@QEAAXV?$QFlags@W4DropAction@Qt@kso_qt@@@2@@Z
?setSystemIniPath@QSettings@kso_qt@@SAXAEBVQString@2@@Z
?setTag@QMetaMethodBuilder@kso_qt@@QEAAXAEBVQByteArray@2@@Z
?setTargetObject@QPropertyAnimation@kso_qt@@QEAAXPEAVQObject@2@@Z
?setTargetState@QAbstractTransition@kso_qt@@QEAAXPEAVQAbstractState@2@@Z
?setTargetStates@QAbstractTransition@kso_qt@@QEAAXAEBV?$QList@PEAVQAbstractState@kso_qt@@@2@@Z
?setTerminationEnabled@QThread@kso_qt@@KAX_N@Z
?setTestModeEnabled@QStandardPaths@kso_qt@@SAX_N@Z
?setText@QMimeData@kso_qt@@QEAAXAEBVQString@2@@Z
?setTextModeEnabled@QIODevice@kso_qt@@QEAAX_N@Z
?setThreadData_helper@QObjectPrivate@kso_qt@@QEAAXPEAVQThreadData@2@0@Z
?setThreadPool@QFutureInterfaceBase@kso_qt@@QEAAXPEAVQThreadPool@2@@Z
?setThrottled@QFutureInterfaceBase@kso_qt@@QEAAX_N@Z
?setTime@QDateTime@kso_qt@@QEAAXAEBVQTime@2@@Z
?setTimeSpec@QDateTime@kso_qt@@QEAAXW4TimeSpec@Qt@2@@Z
?setTimeZone@QDateTime@kso_qt@@QEAAXAEBVQTimeZone@2@@Z
?setTime_t@QDateTime@kso_qt@@QEAAXI@Z
?setTimerType@QDeadlineTimer@kso_qt@@QEAAXW4TimerType@Qt@2@@Z
?setTimerType@QTimer@kso_qt@@QEAAXW4TimerType@Qt@2@@Z
?setTimingInterval@QUnifiedTimer@kso_qt@@QEAAXH@Z
?setTop@QRect@kso_qt@@QEAAXH@Z
?setTop@QRectF@kso_qt@@QEAAXN@Z
?setTopLeft@QRect@kso_qt@@QEAAXAEBVQPoint@2@@Z
?setTopLeft@QRectF@kso_qt@@QEAAXAEBVQPointF@2@@Z
?setTopRight@QRect@kso_qt@@QEAAXAEBVQPoint@2@@Z
?setTopRight@QRectF@kso_qt@@QEAAXAEBVQPointF@2@@Z
?setTransitionType@QAbstractTransition@kso_qt@@QEAAXW4TransitionType@12@@Z
?setType@QEasingCurve@kso_qt@@QEAAXW4Type@12@@Z
?setUnicode@QString@kso_qt@@QEAAAEAV12@PEBVQChar@2@H@Z
?setUpdateInterval@QTimeLine@kso_qt@@QEAAXH@Z
?setUrl@QUrl@kso_qt@@QEAAXAEBVQString@2@W4ParsingMode@12@@Z
?setUrls@QMimeData@kso_qt@@QEAAXAEBV?$QList@VQUrl@kso_qt@@@2@@Z
?setUser@QMetaPropertyBuilder@kso_qt@@QEAAX_N@Z
?setUserData@QObject@kso_qt@@QEAAXIPEAVQObjectUserData@2@@Z
?setUserInfo@QUrl@kso_qt@@QEAAXAEBVQString@2@W4ParsingMode@12@@Z
?setUserIniPath@QSettings@kso_qt@@SAXAEBVQString@2@@Z
?setUserName@QUrl@kso_qt@@QEAAXAEBVQString@2@W4ParsingMode@12@@Z
?setUtcOffset@QDateTime@kso_qt@@QEAAXH@Z
?setUtf16@QString@kso_qt@@QEAAAEAV12@PEBGH@Z
?setValue@QSettings@kso_qt@@QEAAXAEBVQString@2@AEBVQVariant@2@@Z
?setValueAt@QJsonObject@kso_qt@@AEAAXHAEBVQJsonValue@2@@Z
?setValueName@QCommandLineOption@kso_qt@@QEAAXAEBVQString@2@@Z
?setVector@SegmentStorage@QVersionNumber@kso_qt@@AEAAXHHHH@Z
?setVerbosity@QDebug@kso_qt@@QEAAXH@Z
?setVersion@QDataStream@kso_qt@@QEAAXH@Z
?setWidgetParent@QAbstractDeclarativeData@kso_qt@@2P6AXPEAVQObject@2@0@ZEA
?setWidth@QRect@kso_qt@@QEAAXH@Z
?setWidth@QRectF@kso_qt@@QEAAXN@Z
?setWidth@QSize@kso_qt@@QEAAXH@Z
?setWidth@QSizeF@kso_qt@@QEAAXN@Z
?setWorkingDirectory@QProcess@kso_qt@@QEAAXAEBVQString@2@@Z
?setWritable@QMetaPropertyBuilder@kso_qt@@QEAAX_N@Z
?setWriteChannelCount@QIODevicePrivate@kso_qt@@QEAAXH@Z
?setX@QPoint@kso_qt@@QEAAXH@Z
?setX@QPointF@kso_qt@@QEAAXN@Z
?setX@QRect@kso_qt@@QEAAXH@Z
?setX@QRectF@kso_qt@@QEAAXN@Z
?setY@QPoint@kso_qt@@QEAAXH@Z
?setY@QPointF@kso_qt@@QEAAXN@Z
?setY@QRect@kso_qt@@QEAAXH@Z
?setY@QRectF@kso_qt@@QEAAXN@Z
?setYMD@QDate@kso_qt@@QEAA_NHHH@Z
?setuidAllowed@QCoreApplicationPrivate@kso_qt@@2_NA
?setupChildProcess@QProcess@kso_qt@@MEAAXXZ
?sharedNull@QArrayData@kso_qt@@SAPEAU12@XZ
?sharedPointerFromVariant_internal@QtSharedPointer@kso_qt@@YA?AV?$QSharedPointer@VQObject@kso_qt@@@2@AEBVQVariant@2@@Z
?shared_null@QArrayData@kso_qt@@2QBU12@B
?shared_null@QHashData@kso_qt@@2U12@B
?shared_null@QLinkedListData@kso_qt@@2U12@B
?shared_null@QListData@kso_qt@@2UData@12@B
?shared_null@QMapDataBase@kso_qt@@2U12@B
?shifttable@qfloat16@kso_qt@@0QBIB
?shortDayName@QDate@kso_qt@@SA?AVQString@2@HW4MonthNameType@12@@Z
?shortMonthName@QDate@kso_qt@@SA?AVQString@2@HW4MonthNameType@12@@Z
?shouldLogToStderr@QtPrivate@kso_qt@@YA_NXZ
?shouldQuit@QCoreApplicationPrivate@kso_qt@@UEAA_NXZ
?showHelp@QCommandLineParser@kso_qt@@QEAAXH@Z
?showVersion@QCommandLineParser@kso_qt@@QEAAXXZ
?showbase@kso_qt@@YAAEAVQTextStream@1@AEAV21@@Z
?shrink_to_fit@?$QVector@VQPoint@kso_qt@@@kso_qt@@QEAAXXZ
?shrink_to_fit@?$QVector@VQPointF@kso_qt@@@kso_qt@@QEAAXXZ
?shrink_to_fit@?$QVector@VQXmlStreamAttribute@kso_qt@@@kso_qt@@QEAAXXZ
?shrink_to_fit@QByteArray@kso_qt@@QEAAXXZ
?shrink_to_fit@QString@kso_qt@@QEAAXXZ
?sibling@QAbstractItemModel@kso_qt@@UEBA?AVQModelIndex@2@HHAEBV32@@Z
?sibling@QAbstractListModel@kso_qt@@UEBA?AVQModelIndex@2@HHAEBV32@@Z
?sibling@QAbstractProxyModel@kso_qt@@UEBA?AVQModelIndex@2@HHAEBV32@@Z
?sibling@QAbstractTableModel@kso_qt@@UEBA?AVQModelIndex@2@HHAEBV32@@Z
?sibling@QIdentityProxyModel@kso_qt@@UEBA?AVQModelIndex@2@HHAEBV32@@Z
?sibling@QModelIndex@kso_qt@@QEBA?AV12@HH@Z
?sibling@QPersistentModelIndex@kso_qt@@QEBA?AVQModelIndex@2@HH@Z
?sibling@QSortFilterProxyModel@kso_qt@@UEBA?AVQModelIndex@2@HHAEBV32@@Z
?sibling@QStringListModel@kso_qt@@UEBA?AVQModelIndex@2@HHAEBV32@@Z
?siblingAtColumn@QModelIndex@kso_qt@@QEBA?AV12@H@Z
?siblingAtRow@QModelIndex@kso_qt@@QEBA?AV12@H@Z
?signal@QMetaObjectPrivate@kso_qt@@SA?AVQMetaMethod@2@PEBUQMetaObject@2@H@Z
?signal@QSignalTransition@kso_qt@@QEBA?AVQByteArray@2@XZ
?signalChanged@QSignalTransition@kso_qt@@QEAAXUQPrivateSignal@12@@Z
?signalEmitted@QAbstractDeclarativeData@kso_qt@@2P6AXPEAV12@PEAVQObject@2@HPEAPEAX@ZEA
?signalId@QMetaCallEvent@kso_qt@@QEBAHXZ
?signalIndex@QMetaObjectPrivate@kso_qt@@SAHAEBVQMetaMethod@2@@Z
?signalIndex@QObjectPrivate@kso_qt@@QEBAHPEBDPEAPEBUQMetaObject@2@@Z
?signalIndex@SignalEvent@QStateMachine@kso_qt@@QEBAHXZ
?signalOffset@QMetaObjectPrivate@kso_qt@@SAHPEBUQMetaObject@2@@Z
?signalsBlocked@QObject@kso_qt@@QEBA_NXZ
?signature@QMetaMethodBuilder@kso_qt@@QEBA?AVQByteArray@2@XZ
?simplified@QByteArray@kso_qt@@QEBA?AV12@XZ
?simplified@QByteArray@kso_qt@@QEGBA?AV12@XZ
?simplified@QByteArray@kso_qt@@QEHAA?AV12@XZ
?simplified@QString@kso_qt@@QEBA?AV12@XZ
?simplified@QString@kso_qt@@QEGBA?AV12@XZ
?simplified@QString@kso_qt@@QEHAA?AV12@XZ
?simplified_helper@QByteArray@kso_qt@@CA?AV12@AEAV12@@Z
?simplified_helper@QByteArray@kso_qt@@CA?AV12@AEBV12@@Z
?simplified_helper@QString@kso_qt@@CA?AV12@AEAV12@@Z
?simplified_helper@QString@kso_qt@@CA?AV12@AEBV12@@Z
?singleShot@QTimer@kso_qt@@SAXHPEBVQObject@2@PEBD@Z
?singleShot@QTimer@kso_qt@@SAXHW4TimerType@Qt@2@PEBVQObject@2@PEBD@Z
?singleShot@QTimer@kso_qt@@SAXV?$duration@_JU?$ratio@$00$0DOI@@std@@@chrono@std@@PEBVQObject@2@PEBD@Z
?singleShot@QTimer@kso_qt@@SAXV?$duration@_JU?$ratio@$00$0DOI@@std@@@chrono@std@@W4TimerType@Qt@2@PEBVQObject@2@PEBD@Z
?singleShotImpl@QTimer@kso_qt@@CAXHW4TimerType@Qt@2@PEBVQObject@2@PEAVQSlotObjectBase@QtPrivate@2@@Z
?singleShotImpl@QTimer@kso_qt@@CAXV?$duration@_JU?$ratio@$00$0DOI@@std@@@chrono@std@@W4TimerType@Qt@2@PEBVQObject@2@PEAVQSlotObjectBase@QtPrivate@2@@Z
?size@?$QList@VQItemSelectionRange@kso_qt@@@kso_qt@@QEBAHXZ
?size@?$QVector@VQPoint@kso_qt@@@kso_qt@@QEBAHXZ
?size@?$QVector@VQPointF@kso_qt@@@kso_qt@@QEBAHXZ
?size@?$QVector@VQXmlStreamAttribute@kso_qt@@@kso_qt@@QEBAHXZ
?size@QAbstractFileEngine@kso_qt@@UEBA_JXZ
?size@QAssociativeIterable@kso_qt@@QEBAHXZ
?size@QBitArray@kso_qt@@QEBAHXZ
?size@QBuffer@kso_qt@@UEBA_JXZ
?size@QByteArray@kso_qt@@QEBAHXZ
?size@QCborArray@kso_qt@@QEBA_JXZ
?size@QCborMap@kso_qt@@QEBA_JXZ
?size@QFSFileEngine@kso_qt@@UEBA_JXZ
?size@QFile@kso_qt@@UEBA_JXZ
?size@QFileDevice@kso_qt@@UEBA_JXZ
?size@QFileInfo@kso_qt@@QEBA_JXZ
?size@QFileSystemMetaData@kso_qt@@QEBA_JXZ
?size@QIODevice@kso_qt@@UEBA_JXZ
?size@QJsonArray@kso_qt@@QEBAHXZ
?size@QJsonObject@kso_qt@@QEBAHXZ
?size@QListData@kso_qt@@QEBAHXZ
?size@QRect@kso_qt@@QEBA?AVQSize@2@XZ
?size@QRectF@kso_qt@@QEBA?AVQSizeF@2@XZ
?size@QResource@kso_qt@@QEBA_JXZ
?size@QSequentialIterable@kso_qt@@QEBAHXZ
?size@QSharedMemory@kso_qt@@QEBAHXZ
?size@QString@kso_qt@@QEBAHXZ
?size@QStringRef@kso_qt@@QEBAHXZ
?size@QXmlStreamStringRef@kso_qt@@QEBAHXZ
?sizeExtended@QMetaType@kso_qt@@AEBAIXZ
?sizeOf@QMetaType@kso_qt@@QEBAHXZ
?sizeOf@QMetaType@kso_qt@@SAHH@Z
?skip@QIODevice@kso_qt@@QEAA_J_J@Z
?skip@QIODevicePrivate@kso_qt@@UEAA_J_J@Z
?skipByReading@QIODevicePrivate@kso_qt@@QEAA_J_J@Z
?skipCurrentElement@QXmlStreamReader@kso_qt@@QEAAXXZ
?skipRawData@QDataStream@kso_qt@@QEAAHH@Z
?skipToNextSection@QDateTimeParser@kso_qt@@IEBA_NHAEBVQDateTime@2@AEBVQString@2@@Z
?skipToNextSection@QDateTimeParser@kso_qt@@IEBA_NHAEBVQDateTime@2@AEBVQStringRef@2@@Z
?skipWhiteSpace@QTextStream@kso_qt@@QEAAXXZ
?sleep@QThread@kso_qt@@SAXK@Z
?slotObject@QMetaCallEvent@kso_qt@@QEBAPEAVQSlotObjectBase@QtPrivate@2@XZ
?socket@QSocketNotifier@kso_qt@@QEBA_JXZ
?sort@QAbstractItemModel@kso_qt@@UEAAXHW4SortOrder@Qt@2@@Z
?sort@QAbstractProxyModel@kso_qt@@UEAAXHW4SortOrder@Qt@2@@Z
?sort@QSortFilterProxyModel@kso_qt@@UEAAXHW4SortOrder@Qt@2@@Z
?sort@QStringListModel@kso_qt@@UEAAXHW4SortOrder@Qt@2@@Z
?sortCaseSensitivity@QSortFilterProxyModel@kso_qt@@QEBA?AW4CaseSensitivity@Qt@2@XZ
?sortColumn@QSortFilterProxyModel@kso_qt@@QEBAHXZ
?sortKey@QCollator@kso_qt@@QEBA?AVQCollatorSortKey@2@AEBVQString@2@@Z
?sortOrder@QSortFilterProxyModel@kso_qt@@QEBA?AW4SortOrder@Qt@2@XZ
?sortRole@QSortFilterProxyModel@kso_qt@@QEBAHXZ
?sorting@QDir@kso_qt@@QEBA?AV?$QFlags@W4SortFlag@QDir@kso_qt@@@2@XZ
?sourceModel@QAbstractProxyModel@kso_qt@@QEBAPEAVQAbstractItemModel@2@XZ
?sourceModelChanged@QAbstractProxyModel@kso_qt@@QEAAXUQPrivateSignal@12@@Z
?sourceState@QAbstractTransition@kso_qt@@QEBAPEAVQState@2@XZ
?sourceState@QAbstractTransitionPrivate@kso_qt@@QEBAPEAVQState@2@XZ
?space@QDebug@kso_qt@@QEAAAEAV12@XZ
?span@QAbstractItemModel@kso_qt@@UEBA?AVQSize@2@AEBVQModelIndex@2@@Z
?span@QAbstractProxyModel@kso_qt@@UEBA?AVQSize@2@AEBVQModelIndex@2@@Z
?span@QSortFilterProxyModel@kso_qt@@UEBA?AVQSize@2@AEBVQModelIndex@2@@Z
?split@QByteArray@kso_qt@@QEBA?AV?$QList@VQByteArray@kso_qt@@@2@D@Z
?split@QItemSelection@kso_qt@@SAXAEBVQItemSelectionRange@2@0PEAV12@@Z
?split@QString@kso_qt@@QEBA?AVQStringList@2@AEBV12@W4SplitBehavior@12@W4CaseSensitivity@Qt@2@@Z
?split@QString@kso_qt@@QEBA?AVQStringList@2@AEBVQRegExp@2@W4SplitBehavior@12@@Z
?split@QString@kso_qt@@QEBA?AVQStringList@2@AEBVQRegularExpression@2@W4SplitBehavior@12@@Z
?split@QString@kso_qt@@QEBA?AVQStringList@2@VQChar@2@W4SplitBehavior@12@W4CaseSensitivity@Qt@2@@Z
?split@QStringRef@kso_qt@@QEBA?AV?$QVector@VQStringRef@kso_qt@@@2@AEBVQString@2@W4SplitBehavior@42@W4CaseSensitivity@Qt@2@@Z
?split@QStringRef@kso_qt@@QEBA?AV?$QVector@VQStringRef@kso_qt@@@2@VQChar@2@W4SplitBehavior@QString@2@W4CaseSensitivity@Qt@2@@Z
?splitArgs@QSettingsPrivate@kso_qt@@SA?AVQStringList@2@AEBVQString@2@H@Z
?splitRef@QString@kso_qt@@QEBA?AV?$QVector@VQStringRef@kso_qt@@@2@AEBV12@W4SplitBehavior@12@W4CaseSensitivity@Qt@2@@Z
?splitRef@QString@kso_qt@@QEBA?AV?$QVector@VQStringRef@kso_qt@@@2@AEBVQRegExp@2@W4SplitBehavior@12@@Z
?splitRef@QString@kso_qt@@QEBA?AV?$QVector@VQStringRef@kso_qt@@@2@AEBVQRegularExpression@2@W4SplitBehavior@12@@Z
?splitRef@QString@kso_qt@@QEBA?AV?$QVector@VQStringRef@kso_qt@@@2@VQChar@2@W4SplitBehavior@12@W4CaseSensitivity@Qt@2@@Z
?spontaneous@QEvent@kso_qt@@QEBA_NXZ
?sprintf@QString@kso_qt@@QEAAAEAV12@PEBDZZ
?squeeze@?$QVector@VQPoint@kso_qt@@@kso_qt@@QEAAXXZ
?squeeze@?$QVector@VQPointF@kso_qt@@@kso_qt@@QEAAXXZ
?squeeze@?$QVector@VQXmlStreamAttribute@kso_qt@@@kso_qt@@QEAAXXZ
?squeeze@QByteArray@kso_qt@@QEAAXXZ
?squeeze@QString@kso_qt@@QEAAXXZ
?stackSize@QThread@kso_qt@@QEBAIXZ
?stackSize@QThreadPool@kso_qt@@QEBAIXZ
?staleLockTime@QLockFile@kso_qt@@QEBAHXZ
?standaloneDayName@QLocale@kso_qt@@QEBA?AVQString@2@HW4FormatType@12@@Z
?standaloneMonthName@QLocale@kso_qt@@QEBA?AVQString@2@HW4FormatType@12@@Z
?standardLocations@QStandardPaths@kso_qt@@SA?AVQStringList@2@W4StandardLocation@12@@Z
?standardTimeOffset@QTimeZone@kso_qt@@QEBAHAEBVQDateTime@2@@Z
?standardTimeOffset@QTimeZonePrivate@kso_qt@@UEBAH_J@Z
?standardTimeOffset@QUtcTimeZonePrivate@kso_qt@@UEBAH_J@Z
?standardTimeOffset@QWinTimeZonePrivate@kso_qt@@UEBAH_J@Z
?start@QAbstractAnimation@kso_qt@@QEAAXW4DeletionPolicy@12@@Z
?start@QAnimationDriver@kso_qt@@MEAAXXZ
?start@QBasicTimer@kso_qt@@QEAAXHPEAVQObject@2@@Z
?start@QBasicTimer@kso_qt@@QEAAXHW4TimerType@Qt@2@PEAVQObject@2@@Z
?start@QElapsedTimer@kso_qt@@QEAAXXZ
?start@QProcess@kso_qt@@QEAAXAEBVQString@2@AEBVQStringList@2@V?$QFlags@W4OpenModeFlag@QIODevice@kso_qt@@@2@@Z
?start@QProcess@kso_qt@@QEAAXAEBVQString@2@V?$QFlags@W4OpenModeFlag@QIODevice@kso_qt@@@2@@Z
?start@QProcess@kso_qt@@QEAAXV?$QFlags@W4OpenModeFlag@QIODevice@kso_qt@@@2@@Z
?start@QStateMachine@kso_qt@@QEAAXXZ
?start@QThread@kso_qt@@QEAAXW4Priority@12@@Z
?start@QThreadPool@kso_qt@@QEAAXPEAVQRunnable@2@H@Z
?start@QTime@kso_qt@@QEAAXXZ
?start@QTimeLine@kso_qt@@QEAAXXZ
?start@QTimer@kso_qt@@QEAAXH@Z
?start@QTimer@kso_qt@@QEAAXV?$duration@_JU?$ratio@$00$0DOI@@std@@@chrono@std@@@Z
?start@QTimer@kso_qt@@QEAAXXZ
?startAnimationDriver@QUnifiedTimer@kso_qt@@QEAAXXZ
?startAnimationTimer@QUnifiedTimer@kso_qt@@SAXPEAVQAbstractAnimationTimer@2@@Z
?startArray@QCborStreamWriter@kso_qt@@QEAAXXZ
?startArray@QCborStreamWriter@kso_qt@@QEAAX_K@Z
?startAsyncRead@QWindowsPipeReader@kso_qt@@QEAAXXZ
?startDetached@QProcess@kso_qt@@QEAA_NPEA_J@Z
?startDetached@QProcess@kso_qt@@SA_NAEBVQString@2@@Z
?startDetached@QProcess@kso_qt@@SA_NAEBVQString@2@AEBVQStringList@2@0PEA_J@Z
?startDetached@QProcess@kso_qt@@SA_NAEBVQString@2@AEBVQStringList@2@@Z
?startFrame@QTimeLine@kso_qt@@QEBAHXZ
?startMap@QCborStreamWriter@kso_qt@@QEAAXXZ
?startMap@QCborStreamWriter@kso_qt@@QEAAX_K@Z
?startThread@QThreadPoolPrivate@kso_qt@@QEAAXPEAVQRunnable@2@@Z
?startTime@QAnimationDriver@kso_qt@@QEBA_JXZ
?startTimer@QObject@kso_qt@@QEAAHHW4TimerType@Qt@2@@Z
?startTimer@QObject@kso_qt@@QEAAHV?$duration@_JU?$ratio@$00$0DOI@@std@@@chrono@std@@W4TimerType@Qt@2@@Z
?startTimer@QTimer@kso_qt@@AEAAHH@Z
?startTimers@QUnifiedTimer@kso_qt@@AEAAXXZ
?startTransaction@QDataStream@kso_qt@@QEAAXXZ
?startTransaction@QIODevice@kso_qt@@QEAAXXZ
?startValue@QVariantAnimation@kso_qt@@QEBA?AVQVariant@2@XZ
?started@QAnimationDriver@kso_qt@@QEAAXXZ
?started@QFutureWatcherBase@kso_qt@@QEAAXXZ
?started@QProcess@kso_qt@@QEAAXUQPrivateSignal@12@@Z
?started@QStateMachine@kso_qt@@QEAAXUQPrivateSignal@12@@Z
?started@QThread@kso_qt@@QEAAXUQPrivateSignal@12@@Z
?startingUp@QAbstractEventDispatcher@kso_qt@@UEAAXXZ
?startingUp@QCoreApplication@kso_qt@@SA_NXZ
?startingUp@QEventDispatcherWin32@kso_qt@@UEAAXXZ
?startsWith@?$QList@VQItemSelectionRange@kso_qt@@@kso_qt@@QEBA_NAEBVQItemSelectionRange@2@@Z
?startsWith@?$QVector@VQPoint@kso_qt@@@kso_qt@@QEBA_NAEBVQPoint@2@@Z
?startsWith@?$QVector@VQPointF@kso_qt@@@kso_qt@@QEBA_NAEBVQPointF@2@@Z
?startsWith@?$QVector@VQXmlStreamAttribute@kso_qt@@@kso_qt@@QEBA_NAEBVQXmlStreamAttribute@2@@Z
?startsWith@QByteArray@kso_qt@@QEBA_NAEBV12@@Z
?startsWith@QByteArray@kso_qt@@QEBA_ND@Z
?startsWith@QByteArray@kso_qt@@QEBA_NPEBD@Z
?startsWith@QString@kso_qt@@QEBA_NAEBV12@W4CaseSensitivity@Qt@2@@Z
?startsWith@QString@kso_qt@@QEBA_NAEBVQStringRef@2@W4CaseSensitivity@Qt@2@@Z
?startsWith@QString@kso_qt@@QEBA_NVQChar@2@W4CaseSensitivity@Qt@2@@Z
?startsWith@QString@kso_qt@@QEBA_NVQLatin1String@2@W4CaseSensitivity@Qt@2@@Z
?startsWith@QString@kso_qt@@QEBA_NVQStringView@2@W4CaseSensitivity@Qt@2@@Z
?startsWith@QStringRef@kso_qt@@QEBA_NAEBV12@W4CaseSensitivity@Qt@2@@Z
?startsWith@QStringRef@kso_qt@@QEBA_NAEBVQString@2@W4CaseSensitivity@Qt@2@@Z
?startsWith@QStringRef@kso_qt@@QEBA_NVQChar@2@W4CaseSensitivity@Qt@2@@Z
?startsWith@QStringRef@kso_qt@@QEBA_NVQLatin1String@2@W4CaseSensitivity@Qt@2@@Z
?startsWith@QStringRef@kso_qt@@QEBA_NVQStringView@2@W4CaseSensitivity@Qt@2@@Z
?startsWith@QtPrivate@kso_qt@@YA_NVQLatin1String@2@0W4CaseSensitivity@Qt@2@@Z
?startsWith@QtPrivate@kso_qt@@YA_NVQLatin1String@2@VQStringView@2@W4CaseSensitivity@Qt@2@@Z
?startsWith@QtPrivate@kso_qt@@YA_NVQStringView@2@0W4CaseSensitivity@Qt@2@@Z
?startsWith@QtPrivate@kso_qt@@YA_NVQStringView@2@VQLatin1String@2@W4CaseSensitivity@Qt@2@@Z
?startsWithLocalTimeZone@QDateTimeParser@kso_qt@@CAHVQStringRef@2@@Z
?startupHook@QStateMachinePrivate@kso_qt@@UEAAXXZ
?state@QAbstractAnimation@kso_qt@@QEBA?AW4State@12@XZ
?state@QProcess@kso_qt@@QEBA?AW4ProcessState@12@XZ
?state@QTimeLine@kso_qt@@QEBA?AW4State@12@XZ
?stateChanged@QAbstractAnimation@kso_qt@@QEAAXW4State@12@0@Z
?stateChanged@QProcess@kso_qt@@QEAAXW4ProcessState@12@UQPrivateSignal@12@@Z
?stateChanged@QTimeLine@kso_qt@@QEAAXW4State@12@UQPrivateSignal@12@@Z
?stateEntryLessThan@QStateMachinePrivate@kso_qt@@SA_NPEAVQAbstractState@2@0@Z
?stateExitLessThan@QStateMachinePrivate@kso_qt@@SA_NPEAVQAbstractState@2@0@Z
?stateForWaitCondition@QReadWriteLock@kso_qt@@AEBA?AW4StateForWaitCondition@12@XZ
?stateName@QDateTimeParser@kso_qt@@IEBA?AVQString@2@W4State@12@@Z
?staticEmptyModel@QAbstractItemModelPrivate@kso_qt@@SAPEAVQAbstractItemModel@2@XZ
?staticInstances@QPluginLoader@kso_qt@@SA?AV?$QList@PEAVQObject@kso_qt@@@2@XZ
?staticMetaObject@QAbstractAnimation@kso_qt@@2UQMetaObject@2@B
?staticMetaObject@QAbstractAnimationTimer@kso_qt@@2UQMetaObject@2@B
?staticMetaObject@QAbstractEventDispatcher@kso_qt@@2UQMetaObject@2@B
?staticMetaObject@QAbstractItemModel@kso_qt@@2UQMetaObject@2@B
?staticMetaObject@QAbstractListModel@kso_qt@@2UQMetaObject@2@B
?staticMetaObject@QAbstractProxyModel@kso_qt@@2UQMetaObject@2@B
?staticMetaObject@QAbstractState@kso_qt@@2UQMetaObject@2@B
?staticMetaObject@QAbstractTableModel@kso_qt@@2UQMetaObject@2@B
?staticMetaObject@QAbstractTransition@kso_qt@@2UQMetaObject@2@B
?staticMetaObject@QAnimationDriver@kso_qt@@2UQMetaObject@2@B
?staticMetaObject@QAnimationGroup@kso_qt@@2UQMetaObject@2@B
?staticMetaObject@QBuffer@kso_qt@@2UQMetaObject@2@B
?staticMetaObject@QCborError@kso_qt@@2UQMetaObject@2@B
?staticMetaObject@QCborStreamReader@kso_qt@@2UQMetaObject@2@B
?staticMetaObject@QCborValue@kso_qt@@2UQMetaObject@2@B
?staticMetaObject@QCoreApplication@kso_qt@@2UQMetaObject@2@B
?staticMetaObject@QCryptographicHash@kso_qt@@2UQMetaObject@2@B
?staticMetaObject@QEasingCurve@kso_qt@@2UQMetaObject@2@B
?staticMetaObject@QEvent@kso_qt@@2UQMetaObject@2@B
?staticMetaObject@QEventDispatcherWin32@kso_qt@@2UQMetaObject@2@B
?staticMetaObject@QEventLoop@kso_qt@@2UQMetaObject@2@B
?staticMetaObject@QEventTransition@kso_qt@@2UQMetaObject@2@B
?staticMetaObject@QFactoryLoader@kso_qt@@2UQMetaObject@2@B
?staticMetaObject@QFile@kso_qt@@2UQMetaObject@2@B
?staticMetaObject@QFileDevice@kso_qt@@2UQMetaObject@2@B
?staticMetaObject@QFileSelector@kso_qt@@2UQMetaObject@2@B
?staticMetaObject@QFileSystemWatcher@kso_qt@@2UQMetaObject@2@B
?staticMetaObject@QFinalState@kso_qt@@2UQMetaObject@2@B
?staticMetaObject@QFutureWatcherBase@kso_qt@@2UQMetaObject@2@B
?staticMetaObject@QHistoryState@kso_qt@@2UQMetaObject@2@B
?staticMetaObject@QIODevice@kso_qt@@2UQMetaObject@2@B
?staticMetaObject@QIdentityProxyModel@kso_qt@@2UQMetaObject@2@B
?staticMetaObject@QItemSelectionModel@kso_qt@@2UQMetaObject@2@B
?staticMetaObject@QLibrary@kso_qt@@2UQMetaObject@2@B
?staticMetaObject@QLocale@kso_qt@@2UQMetaObject@2@B
?staticMetaObject@QMimeData@kso_qt@@2UQMetaObject@2@B
?staticMetaObject@QMimeType@kso_qt@@2UQMetaObject@2@B
?staticMetaObject@QNonContiguousByteDevice@kso_qt@@2UQMetaObject@2@B
?staticMetaObject@QObject@kso_qt@@2UQMetaObject@2@B
?staticMetaObject@QObjectCleanupHandler@kso_qt@@2UQMetaObject@2@B
?staticMetaObject@QParallelAnimationGroup@kso_qt@@2UQMetaObject@2@B
?staticMetaObject@QPauseAnimation@kso_qt@@2UQMetaObject@2@B
?staticMetaObject@QPluginLoader@kso_qt@@2UQMetaObject@2@B
?staticMetaObject@QProcess@kso_qt@@2UQMetaObject@2@B
?staticMetaObject@QPropertyAnimation@kso_qt@@2UQMetaObject@2@B
?staticMetaObject@QSaveFile@kso_qt@@2UQMetaObject@2@B
?staticMetaObject@QSequentialAnimationGroup@kso_qt@@2UQMetaObject@2@B
?staticMetaObject@QSettings@kso_qt@@2UQMetaObject@2@B
?staticMetaObject@QSharedMemory@kso_qt@@2UQMetaObject@2@B
?staticMetaObject@QSignalMapper@kso_qt@@2UQMetaObject@2@B
?staticMetaObject@QSignalTransition@kso_qt@@2UQMetaObject@2@B
?staticMetaObject@QSocketNotifier@kso_qt@@2UQMetaObject@2@B
?staticMetaObject@QSortFilterProxyModel@kso_qt@@2UQMetaObject@2@B
?staticMetaObject@QStandardPaths@kso_qt@@2UQMetaObject@2@B
?staticMetaObject@QState@kso_qt@@2UQMetaObject@2@B
?staticMetaObject@QStateMachine@kso_qt@@2UQMetaObject@2@B
?staticMetaObject@QStringListModel@kso_qt@@2UQMetaObject@2@B
?staticMetaObject@QTemporaryFile@kso_qt@@2UQMetaObject@2@B
?staticMetaObject@QThread@kso_qt@@2UQMetaObject@2@B
?staticMetaObject@QThreadPool@kso_qt@@2UQMetaObject@2@B
?staticMetaObject@QTimeLine@kso_qt@@2UQMetaObject@2@B
?staticMetaObject@QTimer@kso_qt@@2UQMetaObject@2@B
?staticMetaObject@QTranslator@kso_qt@@2UQMetaObject@2@B
?staticMetaObject@QUnifiedTimer@kso_qt@@2UQMetaObject@2@B
?staticMetaObject@QVariantAnimation@kso_qt@@2UQMetaObject@2@B
?staticMetaObject@QWinEventNotifier@kso_qt@@2UQMetaObject@2@B
?staticMetaObject@QWindowsPipeReader@kso_qt@@2UQMetaObject@2@B
?staticMetaObject@QWindowsPipeWriter@kso_qt@@2UQMetaObject@2@B
?staticMetacallFunction@QMetaObjectBuilder@kso_qt@@QEBAP6AXPEAVQObject@2@W4Call@QMetaObject@2@HPEAPEAX@ZXZ
?staticPlugins@QPluginLoader@kso_qt@@SA?AV?$QVector@UQStaticPlugin@kso_qt@@@2@XZ
?staticQtMetaObject@QObject@kso_qt@@1UQMetaObject@2@B
?static_metacall@QMetaObject@kso_qt@@QEBAHW4Call@12@HPEAPEAX@Z
?status@QDataStream@kso_qt@@QEBA?AW4Status@12@XZ
?status@QSettings@kso_qt@@QEBA?AW4Status@12@XZ
?status@QTextStream@kso_qt@@QEBA?AW4Status@12@XZ
?stdString@QSystemError@kso_qt@@SA?AVQString@2@H@Z
?stealAndRunRunnable@QThreadPoolPrivate@kso_qt@@QEAAXPEAVQRunnable@2@@Z
?stop@QAbstractAnimation@kso_qt@@QEAAXXZ
?stop@QAnimationDriver@kso_qt@@MEAAXXZ
?stop@QBasicTimer@kso_qt@@QEAAXXZ
?stop@QStateMachine@kso_qt@@QEAAXXZ
?stop@QTimeLine@kso_qt@@QEAAXXZ
?stop@QTimer@kso_qt@@QEAAXXZ
?stop@QWindowsPipeReader@kso_qt@@QEAAXXZ
?stop@QWindowsPipeWriter@kso_qt@@QEAAXXZ
?stopAnimationDriver@QUnifiedTimer@kso_qt@@QEAAXXZ
?stopAnimationTimer@QUnifiedTimer@kso_qt@@SAXPEAVQAbstractAnimationTimer@2@@Z
?stopTimer@QUnifiedTimer@kso_qt@@AEAAXXZ
?stopped@QAnimationDriver@kso_qt@@QEAAXXZ
?stopped@QStateMachine@kso_qt@@QEAAXUQPrivateSignal@12@@Z
?string@QStringRef@kso_qt@@QEBAPEBVQString@2@XZ
?string@QSystemError@kso_qt@@SA?AVQString@2@W4ErrorScope@12@H@Z
?string@QTextBoundaryFinder@kso_qt@@QEBA?AVQString@2@XZ
?string@QTextStream@kso_qt@@QEBAPEAVQString@2@XZ
?string@QXmlStreamStringRef@kso_qt@@QEBAPEBVQString@2@XZ
?stringDataFromQStringHelper@QJsonValue@kso_qt@@AEAAXAEBVQString@2@@Z
?stringList@QStringListModel@kso_qt@@QEBA?AVQStringList@2@XZ
?stringListToVariantList@QSettingsPrivate@kso_qt@@SA?AVQVariant@2@AEBVQStringList@2@@Z
?stringToVariant@QSettingsPrivate@kso_qt@@SA?AVQVariant@2@AEBVQString@2@@Z
?submit@QAbstractItemModel@kso_qt@@UEAA_NXZ
?submit@QAbstractProxyModel@kso_qt@@UEAA_NXZ
?subvolume@QStorageInfo@kso_qt@@QEBA?AVQByteArray@2@XZ
?suffix@QFileInfo@kso_qt@@QEBA?AVQString@2@XZ
?suffixForFileName@QMimeDatabase@kso_qt@@QEBA?AVQString@2@AEBV32@@Z
?suffixes@QMimeType@kso_qt@@QEBA?AVQStringList@2@XZ
?superClass@QMetaObject@kso_qt@@QEBAPEBU12@XZ
?superClass@QMetaObjectBuilder@kso_qt@@QEBAPEBUQMetaObject@2@XZ
?supportDPIAware@QLibraryInfo@kso_qt@@SA?AVQString@2@XZ
?supportedDragActions@QAbstractItemModel@kso_qt@@UEBA?AV?$QFlags@W4DropAction@Qt@kso_qt@@@2@XZ
?supportedDragActions@QAbstractProxyModel@kso_qt@@UEBA?AV?$QFlags@W4DropAction@Qt@kso_qt@@@2@XZ
?supportedDropActions@QAbstractItemModel@kso_qt@@UEBA?AV?$QFlags@W4DropAction@Qt@kso_qt@@@2@XZ
?supportedDropActions@QAbstractProxyModel@kso_qt@@UEBA?AV?$QFlags@W4DropAction@Qt@kso_qt@@@2@XZ
?supportedDropActions@QSortFilterProxyModel@kso_qt@@UEBA?AV?$QFlags@W4DropAction@Qt@kso_qt@@@2@XZ
?supportedDropActions@QStringListModel@kso_qt@@UEBA?AV?$QFlags@W4DropAction@Qt@kso_qt@@@2@XZ
?supportsExtension@QAbstractFileEngine@kso_qt@@UEBA_NW4Extension@12@@Z
?supportsExtension@QFSFileEngine@kso_qt@@UEBA_NW4Extension@QAbstractFileEngine@2@@Z
?surrogateToUcs4@QChar@kso_qt@@SAIGG@Z
?surrogateToUcs4@QChar@kso_qt@@SAIV12@0@Z
?swap@?$QList@VQItemSelectionRange@kso_qt@@@kso_qt@@QEAAXAEAV12@@Z
?swap@?$QList@VQItemSelectionRange@kso_qt@@@kso_qt@@QEAAXHH@Z
?swap@?$QVector@VQPoint@kso_qt@@@kso_qt@@QEAAXAEAV12@@Z
?swap@?$QVector@VQPointF@kso_qt@@@kso_qt@@QEAAXAEAV12@@Z
?swap@?$QVector@VQXmlStreamAttribute@kso_qt@@@kso_qt@@QEAAXAEAV12@@Z
?swap@QBitArray@kso_qt@@QEAAXAEAV12@@Z
?swap@QByteArray@kso_qt@@QEAAXAEAV12@@Z
?swap@QCborArray@kso_qt@@QEAAXAEAV12@@Z
?swap@QCborMap@kso_qt@@QEAAXAEAV12@@Z
?swap@QCborValue@kso_qt@@QEAAXAEAV12@@Z
?swap@QCollator@kso_qt@@QEAAXAEAV12@@Z
?swap@QCollatorSortKey@kso_qt@@QEAAXAEAV12@@Z
?swap@QCommandLineOption@kso_qt@@QEAAXAEAV12@@Z
?swap@QDateTime@kso_qt@@QEAAXAEAV12@@Z
?swap@QDeadlineTimer@kso_qt@@QEAAXAEAV12@@Z
?swap@QDebug@kso_qt@@QEAAXAEAV12@@Z
?swap@QDir@kso_qt@@QEAAXAEAV12@@Z
?swap@QEasingCurve@kso_qt@@QEAAXAEAV12@@Z
?swap@QFileInfo@kso_qt@@QEAAXAEAV12@@Z
?swap@QItemSelectionRange@kso_qt@@QEAAXAEAV12@@Z
?swap@QJsonArray@kso_qt@@QEAAXAEAV12@@Z
?swap@QJsonDocument@kso_qt@@QEAAXAEAV12@@Z
?swap@QJsonObject@kso_qt@@QEAAXAEAV12@@Z
?swap@QJsonValue@kso_qt@@QEAAXAEAV12@@Z
?swap@QLocale@kso_qt@@QEAAXAEAV12@@Z
?swap@QMimeType@kso_qt@@QEAAXAEAV12@@Z
?swap@QPersistentModelIndex@kso_qt@@QEAAXAEAV12@@Z
?swap@QProcessEnvironment@kso_qt@@QEAAXAEAV12@@Z
?swap@QRegExp@kso_qt@@QEAAXAEAV12@@Z
?swap@QRegularExpression@kso_qt@@QEAAXAEAV12@@Z
?swap@QRegularExpressionMatch@kso_qt@@QEAAXAEAV12@@Z
?swap@QRegularExpressionMatchIterator@kso_qt@@QEAAXAEAV12@@Z
?swap@QStorageInfo@kso_qt@@QEAAXAEAV12@@Z
?swap@QString@kso_qt@@QEAAXAEAV12@@Z
?swap@QTimeZone@kso_qt@@QEAAXAEAV12@@Z
?swap@QUrl@kso_qt@@QEAAXAEAV12@@Z
?swap@QUrlQuery@kso_qt@@QEAAXAEAV12@@Z
?swap@QVariant@kso_qt@@QEAAXAEAV12@@Z
?swap@QXmlStreamStringRef@kso_qt@@QEAAXAEAV12@@Z
?symLinkTarget@QFile@kso_qt@@QEBA?AVQString@2@XZ
?symLinkTarget@QFile@kso_qt@@SA?AVQString@2@AEBV32@@Z
?symLinkTarget@QFileInfo@kso_qt@@QEBA?AVQString@2@XZ
?sync@QSettings@kso_qt@@QEAAXXZ
?syncPendingResults@ResultStoreBase@QtPrivate@kso_qt@@IEAAXXZ
?syncResultCount@ResultStoreBase@QtPrivate@kso_qt@@IEAAXXZ
?syncToDisk@QAbstractFileEngine@kso_qt@@UEAA_NXZ
?syncToDisk@QFSFileEngine@kso_qt@@UEAA_NXZ
?system@QLocale@kso_qt@@SA?AV12@XZ
?system@QRandomGenerator64@kso_qt@@SAPEAV12@XZ
?systemEnvironment@QProcess@kso_qt@@SA?AVQStringList@2@XZ
?systemEnvironment@QProcessEnvironment@kso_qt@@SA?AV12@XZ
?systemId@QXmlStreamEntityDeclaration@kso_qt@@QEBA?AVQStringRef@2@XZ
?systemId@QXmlStreamNotationDeclaration@kso_qt@@QEBA?AVQStringRef@2@XZ
?systemTimeZone@QTimeZone@kso_qt@@SA?AV12@XZ
?systemTimeZoneId@QTimeZone@kso_qt@@SA?AVQByteArray@2@XZ
?systemTimeZoneId@QTimeZonePrivate@kso_qt@@UEBA?AVQByteArray@2@XZ
?systemTimeZoneId@QUtcTimeZonePrivate@kso_qt@@UEBA?AVQByteArray@2@XZ
?systemTimeZoneId@QWinTimeZonePrivate@kso_qt@@UEBA?AVQByteArray@2@XZ
?tag@QCborValue@kso_qt@@QEBA?AW4QCborTag@2@W432@@Z
?tag@QCborValueRef@kso_qt@@QEBA?AW4QCborTag@2@W432@@Z
?tag@QMetaMethod@kso_qt@@QEBAPEBDXZ
?tag@QMetaMethodBuilder@kso_qt@@QEBA?AVQByteArray@2@XZ
?taggedValue@QCborValue@kso_qt@@QEBA?AV12@AEBV12@@Z
?taggedValue@QCborValueRef@kso_qt@@QEBA?AVQCborValue@2@AEBV32@@Z
?take@QCborMap@kso_qt@@QEAA?AVQCborValue@2@AEBV32@@Z
?take@QCborMap@kso_qt@@QEAA?AVQCborValue@2@AEBVQString@2@@Z
?take@QCborMap@kso_qt@@QEAA?AVQCborValue@2@VQLatin1String@2@@Z
?take@QCborMap@kso_qt@@QEAA?AVQCborValue@2@_J@Z
?take@QJsonObject@kso_qt@@QEAA?AVQJsonValue@2@AEBVQString@2@@Z
?takeAnimation@QAnimationGroup@kso_qt@@QEAAPEAVQAbstractAnimation@2@H@Z
?takeAt@?$QList@VQItemSelectionRange@kso_qt@@@kso_qt@@QEAA?AVQItemSelectionRange@2@H@Z
?takeAt@?$QVector@VQPoint@kso_qt@@@kso_qt@@QEAA?AVQPoint@2@H@Z
?takeAt@?$QVector@VQPointF@kso_qt@@@kso_qt@@QEAA?AVQPointF@2@H@Z
?takeAt@?$QVector@VQXmlStreamAttribute@kso_qt@@@kso_qt@@QEAA?AVQXmlStreamAttribute@2@H@Z
?takeAt@QCborArray@kso_qt@@QEAA?AVQCborValue@2@_J@Z
?takeAt@QJsonArray@kso_qt@@QEAA?AVQJsonValue@2@H@Z
?takeFirst@?$QList@VQItemSelectionRange@kso_qt@@@kso_qt@@QEAA?AVQItemSelectionRange@2@XZ
?takeFirst@?$QVector@VQPoint@kso_qt@@@kso_qt@@QEAA?AVQPoint@2@XZ
?takeFirst@?$QVector@VQPointF@kso_qt@@@kso_qt@@QEAA?AVQPointF@2@XZ
?takeFirst@?$QVector@VQXmlStreamAttribute@kso_qt@@@kso_qt@@QEAA?AVQXmlStreamAttribute@2@XZ
?takeFirst@QCborArray@kso_qt@@QEAA?AVQCborValue@2@XZ
?takeLast@?$QList@VQItemSelectionRange@kso_qt@@@kso_qt@@QEAA?AVQItemSelectionRange@2@XZ
?takeLast@?$QVector@VQPoint@kso_qt@@@kso_qt@@QEAA?AVQPoint@2@XZ
?takeLast@?$QVector@VQPointF@kso_qt@@@kso_qt@@QEAA?AVQPointF@2@XZ
?takeLast@?$QVector@VQXmlStreamAttribute@kso_qt@@@kso_qt@@QEAA?AVQXmlStreamAttribute@2@XZ
?takeLast@QCborArray@kso_qt@@QEAA?AVQCborValue@2@XZ
?targetObject@QPropertyAnimation@kso_qt@@QEBAPEAVQObject@2@XZ
?targetState@QAbstractTransition@kso_qt@@QEBAPEAVQAbstractState@2@XZ
?targetStateChanged@QAbstractTransition@kso_qt@@QEAAXUQPrivateSignal@12@@Z
?targetStates@QAbstractTransition@kso_qt@@QEBA?AV?$QList@PEAVQAbstractState@kso_qt@@@2@XZ
?targetStatesChanged@QAbstractTransition@kso_qt@@QEAAXUQPrivateSignal@12@@Z
?temp@QDir@kso_qt@@SA?AV12@XZ
?tempPath@QDir@kso_qt@@SA?AVQString@2@XZ
?tempPath@QFSFileEngine@kso_qt@@SA?AVQString@2@XZ
?terminate@QProcess@kso_qt@@QEAAXXZ
?terminate@QThread@kso_qt@@QEAAXXZ
?terminateActiveAnimations@QStateMachinePrivate@kso_qt@@QEAAXPEAVQAbstractState@2@AEBV?$QHash@PEAVQAbstractState@kso_qt@@V?$QVector@UQPropertyAssignment@kso_qt@@@2@@2@@Z
?testAttribute@QCoreApplication@kso_qt@@SA_NW4ApplicationAttribute@Qt@2@@Z
?testAttribute@QCoreApplicationPrivate@kso_qt@@SA_NI@Z
?testBit@QBitArray@kso_qt@@QEBA_NH@Z
?text@QMimeData@kso_qt@@QEBA?AVQString@2@XZ
?text@QXmlStreamReader@kso_qt@@QEBA?AVQStringRef@2@XZ
?textDirection@QLocale@kso_qt@@QEBA?AW4LayoutDirection@Qt@2@XZ
?theMainThread@QCoreApplicationPrivate@kso_qt@@2V?$QBasicAtomicPointer@VQThread@kso_qt@@@2@A
?themeType@QAppThemeChangeEvent@kso_qt@@QEBA?AW4ThemeMode@12@XZ
?thread@QObject@kso_qt@@QEBAPEAVQThread@2@XZ
?threadRequiresCoreApplication@QCoreApplicationPrivate@kso_qt@@SA_NXZ
?throwPossibleException@ExceptionStore@QtPrivate@kso_qt@@QEAAXXZ
?time@QDateTime@kso_qt@@QEBA?AVQTime@2@XZ
?timeFormat@QLocale@kso_qt@@QEBA?AVQString@2@W4FormatType@12@@Z
?timeSpec@QDateTime@kso_qt@@QEBA?AW4TimeSpec@Qt@2@XZ
?timeZone@QDateTime@kso_qt@@QEBA?AVQTimeZone@2@XZ
?timeZoneAbbreviation@QDateTime@kso_qt@@QEBA?AVQString@2@XZ
?timeout@QTimer@kso_qt@@QEAAXUQPrivateSignal@12@@Z
?timerEvent@QObject@kso_qt@@MEAAXPEAVQTimerEvent@2@@Z
?timerEvent@QTimeLine@kso_qt@@MEAAXPEAVQTimerEvent@2@@Z
?timerEvent@QTimer@kso_qt@@MEAAXPEAVQTimerEvent@2@@Z
?timerEvent@QUnifiedTimer@kso_qt@@MEAAXPEAVQTimerEvent@2@@Z
?timerId@QBasicTimer@kso_qt@@QEBAHXZ
?timerId@QTimer@kso_qt@@QEBAHXZ
?timerId@QTimerEvent@kso_qt@@QEBAHXZ
?timerType@QDeadlineTimer@kso_qt@@QEBA?AW4TimerType@Qt@2@XZ
?timerType@QTimer@kso_qt@@QEBA?AW4TimerType@Qt@2@XZ
?toAce@QUrl@kso_qt@@SA?AVQByteArray@2@AEBVQString@2@@Z
?toAlignedRect@QRectF@kso_qt@@QEBA?AVQRect@2@XZ
?toArray@QCborValue@kso_qt@@QEBA?AVQCborArray@2@AEBV32@@Z
?toArray@QCborValue@kso_qt@@QEBA?AVQCborArray@2@XZ
?toArray@QCborValueRef@kso_qt@@QEBA?AVQCborArray@2@AEBV32@@Z
?toArray@QCborValueRef@kso_qt@@QEBA?AVQCborArray@2@XZ
?toArray@QJsonValue@kso_qt@@QEBA?AVQJsonArray@2@AEBV32@@Z
?toArray@QJsonValue@kso_qt@@QEBA?AVQJsonArray@2@XZ
?toArray@QJsonValueRef@kso_qt@@QEBA?AVQJsonArray@2@XZ
?toAscii@QChar@kso_qt@@QEBADXZ
?toAscii@QCharRef@kso_qt@@QEBADXZ
?toAscii@QString@kso_qt@@QEBA?AVQByteArray@2@XZ
?toAscii@QStringRef@kso_qt@@QEBA?AVQByteArray@2@XZ
?toBase64@QByteArray@kso_qt@@QEBA?AV12@V?$QFlags@W4Base64Option@QByteArray@kso_qt@@@2@@Z
?toBase64@QByteArray@kso_qt@@QEBA?AV12@XZ
?toBinaryData@QJsonDocument@kso_qt@@QEBA?AVQByteArray@2@XZ
?toBitArray@QVariant@kso_qt@@QEBA?AVQBitArray@2@XZ
?toBool@QCborStreamReader@kso_qt@@QEBA_NXZ
?toBool@QCborValue@kso_qt@@QEBA_N_N@Z
?toBool@QCborValueRef@kso_qt@@QEBA_N_N@Z
?toBool@QJsonValue@kso_qt@@QEBA_N_N@Z
?toBool@QJsonValueRef@kso_qt@@QEBA_NXZ
?toBool@QJsonValueRef@kso_qt@@QEBA_N_N@Z
?toBool@QVariant@kso_qt@@QEBA_NXZ
?toByteArray@QCborValue@kso_qt@@QEBA?AVQByteArray@2@AEBV32@@Z
?toByteArray@QCborValueRef@kso_qt@@QEBA?AVQByteArray@2@AEBV32@@Z
?toByteArray@QUuid@kso_qt@@QEBA?AVQByteArray@2@W4StringFormat@12@@Z
?toByteArray@QUuid@kso_qt@@QEBA?AVQByteArray@2@XZ
?toByteArray@QVariant@kso_qt@@QEBA?AVQByteArray@2@XZ
?toCaseFolded@QChar@kso_qt@@QEBA?AV12@XZ
?toCaseFolded@QChar@kso_qt@@SAII@Z
?toCaseFolded@QString@kso_qt@@QEBA?AV12@XZ
?toCaseFolded@QString@kso_qt@@QEGBA?AV12@XZ
?toCaseFolded@QString@kso_qt@@QEHAA?AV12@XZ
?toCaseFolded_helper@QString@kso_qt@@CA?AV12@AEAV12@@Z
?toCaseFolded_helper@QString@kso_qt@@CA?AV12@AEBV12@@Z
?toCbor@QCborValue@kso_qt@@QEAA?AVQByteArray@2@V?$QFlags@W4EncodingOption@QCborValue@kso_qt@@@2@@Z
?toCbor@QCborValue@kso_qt@@QEAAXAEAVQCborStreamWriter@2@V?$QFlags@W4EncodingOption@QCborValue@kso_qt@@@2@@Z
?toCbor@QCborValueRef@kso_qt@@QEAA?AVQByteArray@2@V?$QFlags@W4EncodingOption@QCborValue@kso_qt@@@2@@Z
?toCbor@QCborValueRef@kso_qt@@QEAAXAEAVQCborStreamWriter@2@V?$QFlags@W4EncodingOption@QCborValue@kso_qt@@@2@@Z
?toCborValue@QCborArray@kso_qt@@QEBA?AVQCborValue@2@XZ
?toCborValue@QCborMap@kso_qt@@QEBA?AVQCborValue@2@XZ
?toChar@QVariant@kso_qt@@QEBA?AVQChar@2@XZ
?toCubicSpline@QEasingCurve@kso_qt@@QEBA?AV?$QVector@VQPointF@kso_qt@@@2@XZ
?toCurrencyString@QLocale@kso_qt@@QEBA?AVQString@2@FAEBV32@@Z
?toCurrencyString@QLocale@kso_qt@@QEBA?AVQString@2@GAEBV32@@Z
?toCurrencyString@QLocale@kso_qt@@QEBA?AVQString@2@HAEBV32@@Z
?toCurrencyString@QLocale@kso_qt@@QEBA?AVQString@2@IAEBV32@@Z
?toCurrencyString@QLocale@kso_qt@@QEBA?AVQString@2@MAEBV32@@Z
?toCurrencyString@QLocale@kso_qt@@QEBA?AVQString@2@MAEBV32@H@Z
?toCurrencyString@QLocale@kso_qt@@QEBA?AVQString@2@NAEBV32@@Z
?toCurrencyString@QLocale@kso_qt@@QEBA?AVQString@2@NAEBV32@H@Z
?toCurrencyString@QLocale@kso_qt@@QEBA?AVQString@2@_JAEBV32@@Z
?toCurrencyString@QLocale@kso_qt@@QEBA?AVQString@2@_KAEBV32@@Z
?toDate@QLocale@kso_qt@@QEBA?AVQDate@2@AEBVQString@2@0@Z
?toDate@QLocale@kso_qt@@QEBA?AVQDate@2@AEBVQString@2@W4FormatType@12@@Z
?toDate@QVariant@kso_qt@@QEBA?AVQDate@2@XZ
?toDateTime@QCborValue@kso_qt@@QEBA?AVQDateTime@2@AEBV32@@Z
?toDateTime@QCborValueRef@kso_qt@@QEBA?AVQDateTime@2@AEBV32@@Z
?toDateTime@QLocale@kso_qt@@QEBA?AVQDateTime@2@AEBVQString@2@0@Z
?toDateTime@QLocale@kso_qt@@QEBA?AVQDateTime@2@AEBVQString@2@W4FormatType@12@@Z
?toDateTime@QVariant@kso_qt@@QEBA?AVQDateTime@2@XZ
?toDiagnosticNotation@QCborValue@kso_qt@@QEBA?AVQString@2@V?$QFlags@W4DiagnosticNotationOption@QCborValue@kso_qt@@@2@@Z
?toDiagnosticNotation@QCborValueRef@kso_qt@@QEAA?AVQString@2@V?$QFlags@W4DiagnosticNotationOption@QCborValue@kso_qt@@@2@@Z
?toDisplayString@QUrl@kso_qt@@QEBA?AVQString@2@V?$QUrlTwoFlags@W4UrlFormattingOption@QUrl@kso_qt@@W4ComponentFormattingOption@23@@2@@Z
?toDouble@QByteArray@kso_qt@@QEBANPEA_N@Z
?toDouble@QCborStreamReader@kso_qt@@QEBANXZ
?toDouble@QCborValue@kso_qt@@QEBANN@Z
?toDouble@QCborValueRef@kso_qt@@QEBANN@Z
?toDouble@QJsonValue@kso_qt@@QEBANN@Z
?toDouble@QJsonValueRef@kso_qt@@QEBANN@Z
?toDouble@QJsonValueRef@kso_qt@@QEBANXZ
?toDouble@QLocale@kso_qt@@QEBANAEBVQString@2@PEA_N@Z
?toDouble@QLocale@kso_qt@@QEBANAEBVQStringRef@2@PEA_N@Z
?toDouble@QLocale@kso_qt@@QEBANVQStringView@2@PEA_N@Z
?toDouble@QString@kso_qt@@QEBANPEA_N@Z
?toDouble@QStringRef@kso_qt@@QEBANPEA_N@Z
?toDouble@QVariant@kso_qt@@QEBANPEA_N@Z
?toDynamicMetaObject@QAbstractDynamicMetaObject@kso_qt@@UEAAPEAU12@PEAVQObject@2@@Z
?toEasingCurve@QVariant@kso_qt@@QEBA?AVQEasingCurve@2@XZ
?toEncoded@QUrl@kso_qt@@QEBA?AVQByteArray@2@V?$QUrlTwoFlags@W4UrlFormattingOption@QUrl@kso_qt@@W4ComponentFormattingOption@23@@2@@Z
?toEnd@QTextBoundaryFinder@kso_qt@@QEAAXXZ
?toFinalState@QStateMachinePrivate@kso_qt@@SAPEAVQFinalState@2@PEAVQAbstractState@2@@Z
?toFloat16@QCborStreamReader@kso_qt@@QEBA?AVqfloat16@2@XZ
?toFloat@QByteArray@kso_qt@@QEBAMPEA_N@Z
?toFloat@QCborStreamReader@kso_qt@@QEBAMXZ
?toFloat@QLocale@kso_qt@@QEBAMAEBVQString@2@PEA_N@Z
?toFloat@QLocale@kso_qt@@QEBAMAEBVQStringRef@2@PEA_N@Z
?toFloat@QLocale@kso_qt@@QEBAMVQStringView@2@PEA_N@Z
?toFloat@QString@kso_qt@@QEBAMPEA_N@Z
?toFloat@QStringRef@kso_qt@@QEBAMPEA_N@Z
?toFloat@QVariant@kso_qt@@QEBAMPEA_N@Z
?toHash@QVariant@kso_qt@@QEBA?AV?$QHash@VQString@kso_qt@@VQVariant@2@@2@XZ
?toHex@QByteArray@kso_qt@@QEBA?AV12@D@Z
?toHex@QByteArray@kso_qt@@QEBA?AV12@XZ
?toHistoryState@QStateMachinePrivate@kso_qt@@SAPEAVQHistoryState@2@PEAVQAbstractState@2@@Z
?toHtmlEscaped@QString@kso_qt@@QEBA?AV12@XZ
?toInt@QByteArray@kso_qt@@QEBAHPEA_NH@Z
?toInt@QJsonValue@kso_qt@@QEBAHH@Z
?toInt@QJsonValueRef@kso_qt@@QEBAHH@Z
?toInt@QJsonValueRef@kso_qt@@QEBAHXZ
?toInt@QLocale@kso_qt@@QEBAHAEBVQString@2@PEA_N@Z
?toInt@QLocale@kso_qt@@QEBAHAEBVQStringRef@2@PEA_N@Z
?toInt@QLocale@kso_qt@@QEBAHVQStringView@2@PEA_N@Z
?toInt@QString@kso_qt@@QEBAHPEA_NH@Z
?toInt@QStringRef@kso_qt@@QEBAHPEA_NH@Z
?toInt@QVariant@kso_qt@@QEBAHPEA_N@Z
?toInteger@QCborStreamReader@kso_qt@@QEBA_JXZ
?toInteger@QCborValue@kso_qt@@QEBA_J_J@Z
?toInteger@QCborValueRef@kso_qt@@QEBA_J_J@Z
?toIntegral_helper@QString@kso_qt@@CA_JPEBVQChar@2@HPEA_NH@Z
?toIntegral_helper@QString@kso_qt@@CA_KPEBVQChar@2@IPEA_NH@Z
?toJson@QJsonDocument@kso_qt@@QEBA?AVQByteArray@2@W4JsonFormat@12@@Z
?toJson@QJsonDocument@kso_qt@@QEBA?AVQByteArray@2@XZ
?toJsonArray@QCborArray@kso_qt@@QEBA?AVQJsonArray@2@XZ
?toJsonArray@QVariant@kso_qt@@QEBA?AVQJsonArray@2@XZ
?toJsonDocument@QVariant@kso_qt@@QEBA?AVQJsonDocument@2@XZ
?toJsonObject@QCborMap@kso_qt@@QEBA?AVQJsonObject@2@XZ
?toJsonObject@QVariant@kso_qt@@QEBA?AVQJsonObject@2@XZ
?toJsonValue@QCborValue@kso_qt@@QEBA?AVQJsonValue@2@XZ
?toJsonValue@QCborValueRef@kso_qt@@QEBA?AVQJsonValue@2@XZ
?toJsonValue@QVariant@kso_qt@@QEBA?AVQJsonValue@2@XZ
?toJulianDay@QDate@kso_qt@@QEBA_JXZ
?toLatin1@QChar@kso_qt@@QEBADXZ
?toLatin1@QCharRef@kso_qt@@QEBADXZ
?toLatin1@QString@kso_qt@@QEBA?AVQByteArray@2@XZ
?toLatin1@QString@kso_qt@@QEGBA?AVQByteArray@2@XZ
?toLatin1@QString@kso_qt@@QEHAA?AVQByteArray@2@XZ
?toLatin1@QStringRef@kso_qt@@QEBA?AVQByteArray@2@XZ
?toLatin1_helper@QString@kso_qt@@CA?AVQByteArray@2@AEBV12@@Z
?toLatin1_helper@QUrl@kso_qt@@CA?AVQByteArray@2@AEBVQString@2@@Z
?toLatin1_helper_inplace@QString@kso_qt@@CA?AVQByteArray@2@AEAV12@@Z
?toLine@QLineF@kso_qt@@QEBA?AVQLine@2@XZ
?toLine@QVariant@kso_qt@@QEBA?AVQLine@2@XZ
?toLineF@QVariant@kso_qt@@QEBA?AVQLineF@2@XZ
?toList@?$QVector@VQPoint@kso_qt@@@kso_qt@@QEBA?AV?$QList@VQPoint@kso_qt@@@2@XZ
?toList@?$QVector@VQPointF@kso_qt@@@kso_qt@@QEBA?AV?$QList@VQPointF@kso_qt@@@2@XZ
?toList@?$QVector@VQXmlStreamAttribute@kso_qt@@@kso_qt@@QEBA?AV?$QList@VQXmlStreamAttribute@kso_qt@@@2@XZ
?toList@QVariant@kso_qt@@QEBA?AV?$QList@VQVariant@kso_qt@@@2@XZ
?toLocal8Bit@QString@kso_qt@@QEBA?AVQByteArray@2@XZ
?toLocal8Bit@QString@kso_qt@@QEGBA?AVQByteArray@2@XZ
?toLocal8Bit@QString@kso_qt@@QEHAA?AVQByteArray@2@XZ
?toLocal8Bit@QStringRef@kso_qt@@QEBA?AVQByteArray@2@XZ
?toLocal8Bit_helper@QString@kso_qt@@CA?AVQByteArray@2@PEBVQChar@2@H@Z
?toLocalFile@QUrl@kso_qt@@QEBA?AVQString@2@XZ
?toLocalTime@QDateTime@kso_qt@@QEBA?AV12@XZ
?toLocale@QVariant@kso_qt@@QEBA?AVQLocale@2@XZ
?toLong@QByteArray@kso_qt@@QEBAJPEA_NH@Z
?toLong@QString@kso_qt@@QEBAJPEA_NH@Z
?toLong@QStringRef@kso_qt@@QEBAJPEA_NH@Z
?toLongLong@QByteArray@kso_qt@@QEBA_JPEA_NH@Z
?toLongLong@QLocale@kso_qt@@QEBA_JAEBVQString@2@PEA_N@Z
?toLongLong@QLocale@kso_qt@@QEBA_JAEBVQStringRef@2@PEA_N@Z
?toLongLong@QLocale@kso_qt@@QEBA_JVQStringView@2@PEA_N@Z
?toLongLong@QString@kso_qt@@QEBA_JPEA_NH@Z
?toLongLong@QStringRef@kso_qt@@QEBA_JPEA_NH@Z
?toLongLong@QVariant@kso_qt@@QEBA_JPEA_N@Z
?toLower@QByteArray@kso_qt@@QEBA?AV12@XZ
?toLower@QByteArray@kso_qt@@QEGBA?AV12@XZ
?toLower@QByteArray@kso_qt@@QEHAA?AV12@XZ
?toLower@QChar@kso_qt@@QEBA?AV12@XZ
?toLower@QChar@kso_qt@@SAII@Z
?toLower@QCharRef@kso_qt@@QEBA?AVQChar@2@XZ
?toLower@QLocale@kso_qt@@QEBA?AVQString@2@AEBV32@@Z
?toLower@QString@kso_qt@@QEBA?AV12@XZ
?toLower@QString@kso_qt@@QEGBA?AV12@XZ
?toLower@QString@kso_qt@@QEHAA?AV12@XZ
?toLower_helper@QByteArray@kso_qt@@CA?AV12@AEAV12@@Z
?toLower_helper@QByteArray@kso_qt@@CA?AV12@AEBV12@@Z
?toLower_helper@QString@kso_qt@@CA?AV12@AEAV12@@Z
?toLower_helper@QString@kso_qt@@CA?AV12@AEBV12@@Z
?toMSecsSinceEpoch@QDateTime@kso_qt@@QEBA_JXZ
?toMap@QCborValue@kso_qt@@QEBA?AVQCborMap@2@AEBV32@@Z
?toMap@QCborValue@kso_qt@@QEBA?AVQCborMap@2@XZ
?toMap@QCborValueRef@kso_qt@@QEBA?AVQCborMap@2@AEBV32@@Z
?toMap@QCborValueRef@kso_qt@@QEBA?AVQCborMap@2@XZ
?toMap@QVariant@kso_qt@@QEBA?AV?$QMap@VQString@kso_qt@@VQVariant@2@@2@XZ
?toMetaObject@QMetaObjectBuilder@kso_qt@@QEBAPEAUQMetaObject@2@XZ
?toModelIndex@QVariant@kso_qt@@QEBA?AVQModelIndex@2@XZ
?toNativeSeparators@QDir@kso_qt@@SA?AVQString@2@AEBV32@@Z
?toNegativeInteger@QCborStreamReader@kso_qt@@QEBA?AW4QCborNegativeInteger@2@XZ
?toNextBoundary@QTextBoundaryFinder@kso_qt@@QEAAHXZ
?toObject@QJsonValue@kso_qt@@QEBA?AVQJsonObject@2@AEBV32@@Z
?toObject@QJsonValue@kso_qt@@QEBA?AVQJsonObject@2@XZ
?toObject@QJsonValueRef@kso_qt@@QEBA?AVQJsonObject@2@XZ
?toOffsetData@QTimeZonePrivate@kso_qt@@SA?AUOffsetData@QTimeZone@2@AEBUData@12@@Z
?toOffsetFromUtc@QDateTime@kso_qt@@QEBA?AV12@H@Z
?toPercentEncoding@QByteArray@kso_qt@@QEBA?AV12@AEBV12@0D@Z
?toPercentEncoding@QUrl@kso_qt@@SA?AVQByteArray@2@AEBVQString@2@AEBV32@1@Z
?toPersistentModelIndex@QVariant@kso_qt@@QEBA?AVQPersistentModelIndex@2@XZ
?toPoint@QPointF@kso_qt@@QEBA?AVQPoint@2@XZ
?toPoint@QVariant@kso_qt@@QEBA?AVQPoint@2@XZ
?toPointF@QVariant@kso_qt@@QEBA?AVQPointF@2@XZ
?toPreviousBoundary@QTextBoundaryFinder@kso_qt@@QEAAHXZ
?toPunycode@QUrl@kso_qt@@SA?AVQByteArray@2@AEBVQString@2@@Z
?toReal@QVariant@kso_qt@@QEBANPEA_N@Z
?toRect@QRectF@kso_qt@@QEBA?AVQRect@2@XZ
?toRect@QVariant@kso_qt@@QEBA?AVQRect@2@XZ
?toRectF@QVariant@kso_qt@@QEBA?AVQRectF@2@XZ
?toRegExp@QVariant@kso_qt@@QEBA?AVQRegExp@2@XZ
?toRegularExpression@QCborValue@kso_qt@@QEBA?AVQRegularExpression@2@AEBV32@@Z
?toRegularExpression@QCborValueRef@kso_qt@@QEBA?AVQRegularExpression@2@AEBV32@@Z
?toRegularExpression@QVariant@kso_qt@@QEBA?AVQRegularExpression@2@XZ
?toRelocatableData@QMetaObjectBuilder@kso_qt@@QEBA?AVQByteArray@2@PEA_N@Z
?toRfc4122@QUuid@kso_qt@@QEBA?AVQByteArray@2@XZ
?toSecsSinceEpoch@QDateTime@kso_qt@@QEBA_JXZ
?toSet@?$QList@VQItemSelectionRange@kso_qt@@@kso_qt@@QEBA?AV?$QSet@VQItemSelectionRange@kso_qt@@@2@XZ
?toShort@QByteArray@kso_qt@@QEBAFPEA_NH@Z
?toShort@QLocale@kso_qt@@QEBAFAEBVQString@2@PEA_N@Z
?toShort@QLocale@kso_qt@@QEBAFAEBVQStringRef@2@PEA_N@Z
?toShort@QLocale@kso_qt@@QEBAFVQStringView@2@PEA_N@Z
?toShort@QString@kso_qt@@QEBAFPEA_NH@Z
?toShort@QStringRef@kso_qt@@QEBAFPEA_NH@Z
?toSimpleType@QCborStreamReader@kso_qt@@QEBA?AW4QCborSimpleType@2@XZ
?toSimpleType@QCborValue@kso_qt@@QEBA?AW4QCborSimpleType@2@W432@@Z
?toSize@QSizeF@kso_qt@@QEBA?AVQSize@2@XZ
?toSize@QVariant@kso_qt@@QEBA?AVQSize@2@XZ
?toSizeF@QVariant@kso_qt@@QEBA?AVQSizeF@2@XZ
?toStandardState@QStateMachinePrivate@kso_qt@@SAPEAVQState@2@PEAVQAbstractState@2@@Z
?toStandardState@QStateMachinePrivate@kso_qt@@SAPEBVQState@2@PEBVQAbstractState@2@@Z
?toStart@QTextBoundaryFinder@kso_qt@@QEAAXXZ
?toStdList@?$QList@VQItemSelectionRange@kso_qt@@@kso_qt@@QEBA?AV?$list@VQItemSelectionRange@kso_qt@@V?$allocator@VQItemSelectionRange@kso_qt@@@std@@@std@@XZ
?toStdString@QByteArray@kso_qt@@QEBA?AV?$basic_string@DU?$char_traits@D@std@@V?$allocator@D@2@@std@@XZ
?toStdString@QString@kso_qt@@QEBA?AV?$basic_string@DU?$char_traits@D@std@@V?$allocator@D@2@@std@@XZ
?toStdU16String@QString@kso_qt@@QEBA?AV?$basic_string@_SU?$char_traits@_S@std@@V?$allocator@_S@2@@std@@XZ
?toStdU32String@QString@kso_qt@@QEBA?AV?$basic_string@_UU?$char_traits@_U@std@@V?$allocator@_U@2@@std@@XZ
?toStdVector@?$QVector@VQPoint@kso_qt@@@kso_qt@@QEBA?AV?$vector@VQPoint@kso_qt@@V?$allocator@VQPoint@kso_qt@@@std@@@std@@XZ
?toStdVector@?$QVector@VQPointF@kso_qt@@@kso_qt@@QEBA?AV?$vector@VQPointF@kso_qt@@V?$allocator@VQPointF@kso_qt@@@std@@@std@@XZ
?toStdVector@?$QVector@VQXmlStreamAttribute@kso_qt@@@kso_qt@@QEBA?AV?$vector@VQXmlStreamAttribute@kso_qt@@V?$allocator@VQXmlStreamAttribute@kso_qt@@@std@@@std@@XZ
?toStdWString@QString@kso_qt@@QEBA?AV?$basic_string@_WU?$char_traits@_W@std@@V?$allocator@_W@2@@std@@XZ
?toString@QCborError@kso_qt@@QEBA?AVQString@2@XZ
?toString@QCborValue@kso_qt@@QEBA?AVQString@2@AEBV32@@Z
?toString@QCborValueRef@kso_qt@@QEBA?AVQString@2@AEBV32@@Z
?toString@QDate@kso_qt@@QEBA?AVQString@2@AEBV32@@Z
?toString@QDate@kso_qt@@QEBA?AVQString@2@VQStringView@2@@Z
?toString@QDate@kso_qt@@QEBA?AVQString@2@W4DateFormat@Qt@2@@Z
?toString@QDateTime@kso_qt@@QEBA?AVQString@2@AEBV32@@Z
?toString@QDateTime@kso_qt@@QEBA?AVQString@2@VQStringView@2@@Z
?toString@QDateTime@kso_qt@@QEBA?AVQString@2@W4DateFormat@Qt@2@@Z
?toString@QIPAddressUtils@kso_qt@@YAXAEAVQString@2@I@Z
?toString@QIPAddressUtils@kso_qt@@YAXAEAVQString@2@QEAE@Z
?toString@QJsonValue@kso_qt@@QEBA?AVQString@2@AEBV32@@Z
?toString@QJsonValue@kso_qt@@QEBA?AVQString@2@XZ
?toString@QJsonValueRef@kso_qt@@QEBA?AVQString@2@AEBV32@@Z
?toString@QJsonValueRef@kso_qt@@QEBA?AVQString@2@XZ
?toString@QLocale@kso_qt@@QEBA?AVQString@2@AEBVQDate@2@AEBV32@@Z
?toString@QLocale@kso_qt@@QEBA?AVQString@2@AEBVQDate@2@VQStringView@2@@Z
?toString@QLocale@kso_qt@@QEBA?AVQString@2@AEBVQDate@2@W4FormatType@12@@Z
?toString@QLocale@kso_qt@@QEBA?AVQString@2@AEBVQDateTime@2@AEBV32@@Z
?toString@QLocale@kso_qt@@QEBA?AVQString@2@AEBVQDateTime@2@VQStringView@2@@Z
?toString@QLocale@kso_qt@@QEBA?AVQString@2@AEBVQDateTime@2@W4FormatType@12@@Z
?toString@QLocale@kso_qt@@QEBA?AVQString@2@AEBVQTime@2@AEBV32@@Z
?toString@QLocale@kso_qt@@QEBA?AVQString@2@AEBVQTime@2@VQStringView@2@@Z
?toString@QLocale@kso_qt@@QEBA?AVQString@2@AEBVQTime@2@W4FormatType@12@@Z
?toString@QLocale@kso_qt@@QEBA?AVQString@2@F@Z
?toString@QLocale@kso_qt@@QEBA?AVQString@2@G@Z
?toString@QLocale@kso_qt@@QEBA?AVQString@2@H@Z
?toString@QLocale@kso_qt@@QEBA?AVQString@2@I@Z
?toString@QLocale@kso_qt@@QEBA?AVQString@2@MDH@Z
?toString@QLocale@kso_qt@@QEBA?AVQString@2@NDH@Z
?toString@QLocale@kso_qt@@QEBA?AVQString@2@_J@Z
?toString@QLocale@kso_qt@@QEBA?AVQString@2@_K@Z
?toString@QStringRef@kso_qt@@QEBA?AVQString@2@XZ
?toString@QTime@kso_qt@@QEBA?AVQString@2@AEBV32@@Z
?toString@QTime@kso_qt@@QEBA?AVQString@2@VQStringView@2@@Z
?toString@QTime@kso_qt@@QEBA?AVQString@2@W4DateFormat@Qt@2@@Z
?toString@QUrl@kso_qt@@QEBA?AVQString@2@V?$QUrlTwoFlags@W4UrlFormattingOption@QUrl@kso_qt@@W4ComponentFormattingOption@23@@2@@Z
?toString@QUrlQuery@kso_qt@@QEBA?AVQString@2@V?$QFlags@W4ComponentFormattingOption@QUrl@kso_qt@@@2@@Z
?toString@QUuid@kso_qt@@QEBA?AVQString@2@W4StringFormat@12@@Z
?toString@QUuid@kso_qt@@QEBA?AVQString@2@XZ
?toString@QVariant@kso_qt@@QEBA?AVQString@2@XZ
?toString@QVersionNumber@kso_qt@@QEBA?AVQString@2@XZ
?toStringEx@QDate@kso_qt@@QEBA?AVQString@2@AEBV32@@Z
?toStringEx@QDate@kso_qt@@QEBA?AVQString@2@VQStringView@2@@Z
?toStringEx@QDateTime@kso_qt@@QEBA?AVQString@2@AEBV32@@Z
?toStringEx@QDateTime@kso_qt@@QEBA?AVQString@2@VQStringView@2@@Z
?toStringEx@QTime@kso_qt@@QEBA?AVQString@2@AEBV32@@Z
?toStringEx@QTime@kso_qt@@QEBA?AVQString@2@VQStringView@2@@Z
?toStringList@QProcessEnvironment@kso_qt@@QEBA?AVQStringList@2@XZ
?toStringList@QUrl@kso_qt@@SA?AVQStringList@2@AEBV?$QList@VQUrl@kso_qt@@@2@V?$QUrlTwoFlags@W4UrlFormattingOption@QUrl@kso_qt@@W4ComponentFormattingOption@23@@2@@Z
?toStringList@QVariant@kso_qt@@QEBA?AVQStringList@2@XZ
?toTag@QCborStreamReader@kso_qt@@QEBA?AW4QCborTag@2@XZ
?toTime@QLocale@kso_qt@@QEBA?AVQTime@2@AEBVQString@2@0@Z
?toTime@QLocale@kso_qt@@QEBA?AVQTime@2@AEBVQString@2@W4FormatType@12@@Z
?toTime@QVariant@kso_qt@@QEBA?AVQTime@2@XZ
?toTimeSpec@QDateTime@kso_qt@@QEBA?AV12@W4TimeSpec@Qt@2@@Z
?toTimeZone@QDateTime@kso_qt@@QEBA?AV12@AEBVQTimeZone@2@@Z
?toTime_t@QDateTime@kso_qt@@QEBAIXZ
?toTitleCase@QChar@kso_qt@@QEBA?AV12@XZ
?toTitleCase@QChar@kso_qt@@SAII@Z
?toTitleCase@QCharRef@kso_qt@@QEBA?AVQChar@2@XZ
?toUInt@QByteArray@kso_qt@@QEBAIPEA_NH@Z
?toUInt@QLocale@kso_qt@@QEBAIAEBVQString@2@PEA_N@Z
?toUInt@QLocale@kso_qt@@QEBAIAEBVQStringRef@2@PEA_N@Z
?toUInt@QLocale@kso_qt@@QEBAIVQStringView@2@PEA_N@Z
?toUInt@QString@kso_qt@@QEBAIPEA_NH@Z
?toUInt@QStringRef@kso_qt@@QEBAIPEA_NH@Z
?toUInt@QVariant@kso_qt@@QEBAIPEA_N@Z
?toULong@QByteArray@kso_qt@@QEBAKPEA_NH@Z
?toULong@QString@kso_qt@@QEBAKPEA_NH@Z
?toULong@QStringRef@kso_qt@@QEBAKPEA_NH@Z
?toULongLong@QByteArray@kso_qt@@QEBA_KPEA_NH@Z
?toULongLong@QLocale@kso_qt@@QEBA_KAEBVQString@2@PEA_N@Z
?toULongLong@QLocale@kso_qt@@QEBA_KAEBVQStringRef@2@PEA_N@Z
?toULongLong@QLocale@kso_qt@@QEBA_KVQStringView@2@PEA_N@Z
?toULongLong@QString@kso_qt@@QEBA_KPEA_NH@Z
?toULongLong@QStringRef@kso_qt@@QEBA_KPEA_NH@Z
?toULongLong@QVariant@kso_qt@@QEBA_KPEA_N@Z
?toUShort@QByteArray@kso_qt@@QEBAGPEA_NH@Z
?toUShort@QLocale@kso_qt@@QEBAGAEBVQString@2@PEA_N@Z
?toUShort@QLocale@kso_qt@@QEBAGAEBVQStringRef@2@PEA_N@Z
?toUShort@QLocale@kso_qt@@QEBAGVQStringView@2@PEA_N@Z
?toUShort@QString@kso_qt@@QEBAGPEA_NH@Z
?toUShort@QStringRef@kso_qt@@QEBAGPEA_NH@Z
?toUTC@QDateTime@kso_qt@@QEBA?AV12@XZ
?toUcs4@QString@kso_qt@@QEBA?AV?$QVector@I@2@XZ
?toUcs4@QStringRef@kso_qt@@QEBA?AV?$QVector@I@2@XZ
?toUcs4_helper@QString@kso_qt@@CAHPEBGHPEAI@Z
?toUnicode@QTextCodec@kso_qt@@QEBA?AVQString@2@AEBVQByteArray@2@@Z
?toUnicode@QTextCodec@kso_qt@@QEBA?AVQString@2@PEBD@Z
?toUnicode@QTextCodec@kso_qt@@QEBA?AVQString@2@PEBDHPEAUConverterState@12@@Z
?toUnicode@QTextDecoder@kso_qt@@QEAA?AVQString@2@AEBVQByteArray@2@@Z
?toUnicode@QTextDecoder@kso_qt@@QEAA?AVQString@2@PEBDH@Z
?toUnicode@QTextDecoder@kso_qt@@QEAAXPEAVQString@2@PEBDH@Z
?toUnsignedInteger@QCborStreamReader@kso_qt@@QEBA_KXZ
?toUpper@QByteArray@kso_qt@@QEBA?AV12@XZ
?toUpper@QByteArray@kso_qt@@QEGBA?AV12@XZ
?toUpper@QByteArray@kso_qt@@QEHAA?AV12@XZ
?toUpper@QChar@kso_qt@@QEBA?AV12@XZ
?toUpper@QChar@kso_qt@@SAII@Z
?toUpper@QCharRef@kso_qt@@QEBA?AVQChar@2@XZ
?toUpper@QLocale@kso_qt@@QEBA?AVQString@2@AEBV32@@Z
?toUpper@QString@kso_qt@@QEBA?AV12@XZ
?toUpper@QString@kso_qt@@QEGBA?AV12@XZ
?toUpper@QString@kso_qt@@QEHAA?AV12@XZ
?toUpper_helper@QByteArray@kso_qt@@CA?AV12@AEAV12@@Z
?toUpper_helper@QByteArray@kso_qt@@CA?AV12@AEBV12@@Z
?toUpper_helper@QString@kso_qt@@CA?AV12@AEAV12@@Z
?toUpper_helper@QString@kso_qt@@CA?AV12@AEBV12@@Z
?toUrl@QCborValue@kso_qt@@QEBA?AVQUrl@2@AEBV32@@Z
?toUrl@QCborValueRef@kso_qt@@QEBA?AVQUrl@2@AEBV32@@Z
?toUrl@QVariant@kso_qt@@QEBA?AVQUrl@2@XZ
?toUtf8@QString@kso_qt@@QEBA?AVQByteArray@2@XZ
?toUtf8@QString@kso_qt@@QEGBA?AVQByteArray@2@XZ
?toUtf8@QString@kso_qt@@QEHAA?AVQByteArray@2@XZ
?toUtf8@QStringRef@kso_qt@@QEBA?AVQByteArray@2@XZ
?toUtf8_helper@QString@kso_qt@@CA?AVQByteArray@2@AEBV12@@Z
?toUuid@QCborValue@kso_qt@@QEBA?AVQUuid@2@AEBV32@@Z
?toUuid@QCborValueRef@kso_qt@@QEBA?AVQUuid@2@AEBV32@@Z
?toUuid@QVariant@kso_qt@@QEBA?AVQUuid@2@XZ
?toValue@QJsonValueRef@kso_qt@@AEBA?AVQJsonValue@2@XZ
?toVariant@QCborValue@kso_qt@@QEBA?AVQVariant@2@XZ
?toVariant@QCborValueRef@kso_qt@@QEBA?AVQVariant@2@XZ
?toVariant@QJsonDocument@kso_qt@@QEBA?AVQVariant@2@XZ
?toVariant@QJsonValue@kso_qt@@QEBA?AVQVariant@2@XZ
?toVariant@QJsonValueRef@kso_qt@@QEBA?AVQVariant@2@XZ
?toVariantHash@QCborMap@kso_qt@@QEBA?AV?$QHash@VQString@kso_qt@@VQVariant@2@@2@XZ
?toVariantHash@QJsonObject@kso_qt@@QEBA?AV?$QHash@VQString@kso_qt@@VQVariant@2@@2@XZ
?toVariantList@QCborArray@kso_qt@@QEBA?AV?$QList@VQVariant@kso_qt@@@2@XZ
?toVariantList@QJsonArray@kso_qt@@QEBA?AV?$QList@VQVariant@kso_qt@@@2@XZ
?toVariantMap@QCborMap@kso_qt@@QEBA?AV?$QMap@VQString@kso_qt@@VQVariant@2@@2@XZ
?toVariantMap@QJsonObject@kso_qt@@QEBA?AV?$QMap@VQString@kso_qt@@VQVariant@2@@2@XZ
?toVector@?$QList@VQItemSelectionRange@kso_qt@@@kso_qt@@QEBA?AV?$QVector@VQItemSelectionRange@kso_qt@@@2@XZ
?toWCharArray@QString@kso_qt@@QEBAHPEA_W@Z
?toggleBit@QBitArray@kso_qt@@QEAA_NH@Z
?toggleDirection@QTimeLine@kso_qt@@QEAAXXZ
?togglePaused@QFutureInterfaceBase@kso_qt@@QEAAXXZ
?togglePaused@QFutureWatcherBase@kso_qt@@QEAAXXZ
?tokenString@QXmlStreamReader@kso_qt@@QEBA?AVQString@2@XZ
?tokenType@QXmlStreamReader@kso_qt@@QEBA?AW4TokenType@12@XZ
?tooManyThreadsActive@QThreadPoolPrivate@kso_qt@@QEBA_NXZ
?top@QItemSelectionRange@kso_qt@@QEBAHXZ
?top@QRect@kso_qt@@QEBAHXZ
?top@QRectF@kso_qt@@QEBANXZ
?topLeft@QItemSelectionRange@kso_qt@@QEBAAEBVQPersistentModelIndex@2@XZ
?topLeft@QRect@kso_qt@@QEBA?AVQPoint@2@XZ
?topLeft@QRectF@kso_qt@@QEBA?AVQPointF@2@XZ
?topLevelDomain@QUrl@kso_qt@@QEBA?AVQString@2@V?$QFlags@W4ComponentFormattingOption@QUrl@kso_qt@@@2@@Z
?topRight@QRect@kso_qt@@QEBA?AVQPoint@2@XZ
?topRight@QRectF@kso_qt@@QEBA?AVQPointF@2@XZ
?totalDuration@QAbstractAnimation@kso_qt@@QEBAHXZ
?tr@QAbstractAnimation@kso_qt@@SA?AVQString@2@PEBD0H@Z
?tr@QAbstractAnimationTimer@kso_qt@@SA?AVQString@2@PEBD0H@Z
?tr@QAbstractEventDispatcher@kso_qt@@SA?AVQString@2@PEBD0H@Z
?tr@QAbstractItemModel@kso_qt@@SA?AVQString@2@PEBD0H@Z
?tr@QAbstractListModel@kso_qt@@SA?AVQString@2@PEBD0H@Z
?tr@QAbstractProxyModel@kso_qt@@SA?AVQString@2@PEBD0H@Z
?tr@QAbstractState@kso_qt@@SA?AVQString@2@PEBD0H@Z
?tr@QAbstractTableModel@kso_qt@@SA?AVQString@2@PEBD0H@Z
?tr@QAbstractTransition@kso_qt@@SA?AVQString@2@PEBD0H@Z
?tr@QAnimationDriver@kso_qt@@SA?AVQString@2@PEBD0H@Z
?tr@QAnimationGroup@kso_qt@@SA?AVQString@2@PEBD0H@Z
?tr@QBuffer@kso_qt@@SA?AVQString@2@PEBD0H@Z
?tr@QCommandLineParser@kso_qt@@SA?AVQString@2@PEBD0H@Z
?tr@QCoreApplication@kso_qt@@SA?AVQString@2@PEBD0H@Z
?tr@QDateTimeParser@kso_qt@@SA?AVQString@2@PEBD0H@Z
?tr@QEventDispatcherWin32@kso_qt@@SA?AVQString@2@PEBD0H@Z
?tr@QEventLoop@kso_qt@@SA?AVQString@2@PEBD0H@Z
?tr@QEventTransition@kso_qt@@SA?AVQString@2@PEBD0H@Z
?tr@QFactoryLoader@kso_qt@@SA?AVQString@2@PEBD0H@Z
?tr@QFile@kso_qt@@SA?AVQString@2@PEBD0H@Z
?tr@QFileDevice@kso_qt@@SA?AVQString@2@PEBD0H@Z
?tr@QFileSelector@kso_qt@@SA?AVQString@2@PEBD0H@Z
?tr@QFileSystemWatcher@kso_qt@@SA?AVQString@2@PEBD0H@Z
?tr@QFinalState@kso_qt@@SA?AVQString@2@PEBD0H@Z
?tr@QFutureWatcherBase@kso_qt@@SA?AVQString@2@PEBD0H@Z
?tr@QHistoryState@kso_qt@@SA?AVQString@2@PEBD0H@Z
?tr@QIODevice@kso_qt@@SA?AVQString@2@PEBD0H@Z
?tr@QIdentityProxyModel@kso_qt@@SA?AVQString@2@PEBD0H@Z
?tr@QItemSelectionModel@kso_qt@@SA?AVQString@2@PEBD0H@Z
?tr@QLibrary@kso_qt@@SA?AVQString@2@PEBD0H@Z
?tr@QMetaObject@kso_qt@@QEBA?AVQString@2@PEBD0H@Z
?tr@QMimeData@kso_qt@@SA?AVQString@2@PEBD0H@Z
?tr@QNonContiguousByteDevice@kso_qt@@SA?AVQString@2@PEBD0H@Z
?tr@QObject@kso_qt@@SA?AVQString@2@PEBD0H@Z
?tr@QObjectCleanupHandler@kso_qt@@SA?AVQString@2@PEBD0H@Z
?tr@QParallelAnimationGroup@kso_qt@@SA?AVQString@2@PEBD0H@Z
?tr@QPauseAnimation@kso_qt@@SA?AVQString@2@PEBD0H@Z
?tr@QPluginLoader@kso_qt@@SA?AVQString@2@PEBD0H@Z
?tr@QProcess@kso_qt@@SA?AVQString@2@PEBD0H@Z
?tr@QPropertyAnimation@kso_qt@@SA?AVQString@2@PEBD0H@Z
?tr@QSaveFile@kso_qt@@SA?AVQString@2@PEBD0H@Z
?tr@QSequentialAnimationGroup@kso_qt@@SA?AVQString@2@PEBD0H@Z
?tr@QSettings@kso_qt@@SA?AVQString@2@PEBD0H@Z
?tr@QSharedMemory@kso_qt@@SA?AVQString@2@PEBD0H@Z
?tr@QSignalMapper@kso_qt@@SA?AVQString@2@PEBD0H@Z
?tr@QSignalTransition@kso_qt@@SA?AVQString@2@PEBD0H@Z
?tr@QSocketNotifier@kso_qt@@SA?AVQString@2@PEBD0H@Z
?tr@QSortFilterProxyModel@kso_qt@@SA?AVQString@2@PEBD0H@Z
?tr@QState@kso_qt@@SA?AVQString@2@PEBD0H@Z
?tr@QStateMachine@kso_qt@@SA?AVQString@2@PEBD0H@Z
?tr@QStringListModel@kso_qt@@SA?AVQString@2@PEBD0H@Z
?tr@QTemporaryFile@kso_qt@@SA?AVQString@2@PEBD0H@Z
?tr@QThread@kso_qt@@SA?AVQString@2@PEBD0H@Z
?tr@QThreadPool@kso_qt@@SA?AVQString@2@PEBD0H@Z
?tr@QTimeLine@kso_qt@@SA?AVQString@2@PEBD0H@Z
?tr@QTimer@kso_qt@@SA?AVQString@2@PEBD0H@Z
?tr@QTranslator@kso_qt@@SA?AVQString@2@PEBD0H@Z
?tr@QUnifiedTimer@kso_qt@@SA?AVQString@2@PEBD0H@Z
?tr@QVariantAnimation@kso_qt@@SA?AVQString@2@PEBD0H@Z
?tr@QWinEventNotifier@kso_qt@@SA?AVQString@2@PEBD0H@Z
?tr@QWindowsPipeReader@kso_qt@@SA?AVQString@2@PEBD0H@Z
?tr@QWindowsPipeWriter@kso_qt@@SA?AVQString@2@PEBD0H@Z
?trUtf8@QAbstractAnimation@kso_qt@@SA?AVQString@2@PEBD0H@Z
?trUtf8@QAbstractAnimationTimer@kso_qt@@SA?AVQString@2@PEBD0H@Z
?trUtf8@QAbstractEventDispatcher@kso_qt@@SA?AVQString@2@PEBD0H@Z
?trUtf8@QAbstractItemModel@kso_qt@@SA?AVQString@2@PEBD0H@Z
?trUtf8@QAbstractListModel@kso_qt@@SA?AVQString@2@PEBD0H@Z
?trUtf8@QAbstractProxyModel@kso_qt@@SA?AVQString@2@PEBD0H@Z
?trUtf8@QAbstractState@kso_qt@@SA?AVQString@2@PEBD0H@Z
?trUtf8@QAbstractTableModel@kso_qt@@SA?AVQString@2@PEBD0H@Z
?trUtf8@QAbstractTransition@kso_qt@@SA?AVQString@2@PEBD0H@Z
?trUtf8@QAnimationDriver@kso_qt@@SA?AVQString@2@PEBD0H@Z
?trUtf8@QAnimationGroup@kso_qt@@SA?AVQString@2@PEBD0H@Z
?trUtf8@QBuffer@kso_qt@@SA?AVQString@2@PEBD0H@Z
?trUtf8@QCommandLineParser@kso_qt@@SA?AVQString@2@PEBD0H@Z
?trUtf8@QCoreApplication@kso_qt@@SA?AVQString@2@PEBD0H@Z
?trUtf8@QDateTimeParser@kso_qt@@SA?AVQString@2@PEBD0H@Z
?trUtf8@QEventDispatcherWin32@kso_qt@@SA?AVQString@2@PEBD0H@Z
?trUtf8@QEventLoop@kso_qt@@SA?AVQString@2@PEBD0H@Z
?trUtf8@QEventTransition@kso_qt@@SA?AVQString@2@PEBD0H@Z
?trUtf8@QFactoryLoader@kso_qt@@SA?AVQString@2@PEBD0H@Z
?trUtf8@QFile@kso_qt@@SA?AVQString@2@PEBD0H@Z
?trUtf8@QFileDevice@kso_qt@@SA?AVQString@2@PEBD0H@Z
?trUtf8@QFileSelector@kso_qt@@SA?AVQString@2@PEBD0H@Z
?trUtf8@QFileSystemWatcher@kso_qt@@SA?AVQString@2@PEBD0H@Z
?trUtf8@QFinalState@kso_qt@@SA?AVQString@2@PEBD0H@Z
?trUtf8@QFutureWatcherBase@kso_qt@@SA?AVQString@2@PEBD0H@Z
?trUtf8@QHistoryState@kso_qt@@SA?AVQString@2@PEBD0H@Z
?trUtf8@QIODevice@kso_qt@@SA?AVQString@2@PEBD0H@Z
?trUtf8@QIdentityProxyModel@kso_qt@@SA?AVQString@2@PEBD0H@Z
?trUtf8@QItemSelectionModel@kso_qt@@SA?AVQString@2@PEBD0H@Z
?trUtf8@QLibrary@kso_qt@@SA?AVQString@2@PEBD0H@Z
?trUtf8@QMimeData@kso_qt@@SA?AVQString@2@PEBD0H@Z
?trUtf8@QNonContiguousByteDevice@kso_qt@@SA?AVQString@2@PEBD0H@Z
?trUtf8@QObject@kso_qt@@SA?AVQString@2@PEBD0H@Z
?trUtf8@QObjectCleanupHandler@kso_qt@@SA?AVQString@2@PEBD0H@Z
?trUtf8@QParallelAnimationGroup@kso_qt@@SA?AVQString@2@PEBD0H@Z
?trUtf8@QPauseAnimation@kso_qt@@SA?AVQString@2@PEBD0H@Z
?trUtf8@QPluginLoader@kso_qt@@SA?AVQString@2@PEBD0H@Z
?trUtf8@QProcess@kso_qt@@SA?AVQString@2@PEBD0H@Z
?trUtf8@QPropertyAnimation@kso_qt@@SA?AVQString@2@PEBD0H@Z
?trUtf8@QSaveFile@kso_qt@@SA?AVQString@2@PEBD0H@Z
?trUtf8@QSequentialAnimationGroup@kso_qt@@SA?AVQString@2@PEBD0H@Z
?trUtf8@QSettings@kso_qt@@SA?AVQString@2@PEBD0H@Z
?trUtf8@QSharedMemory@kso_qt@@SA?AVQString@2@PEBD0H@Z
?trUtf8@QSignalMapper@kso_qt@@SA?AVQString@2@PEBD0H@Z
?trUtf8@QSignalTransition@kso_qt@@SA?AVQString@2@PEBD0H@Z
?trUtf8@QSocketNotifier@kso_qt@@SA?AVQString@2@PEBD0H@Z
?trUtf8@QSortFilterProxyModel@kso_qt@@SA?AVQString@2@PEBD0H@Z
?trUtf8@QState@kso_qt@@SA?AVQString@2@PEBD0H@Z
?trUtf8@QStateMachine@kso_qt@@SA?AVQString@2@PEBD0H@Z
?trUtf8@QStringListModel@kso_qt@@SA?AVQString@2@PEBD0H@Z
?trUtf8@QTemporaryFile@kso_qt@@SA?AVQString@2@PEBD0H@Z
?trUtf8@QThread@kso_qt@@SA?AVQString@2@PEBD0H@Z
?trUtf8@QThreadPool@kso_qt@@SA?AVQString@2@PEBD0H@Z
?trUtf8@QTimeLine@kso_qt@@SA?AVQString@2@PEBD0H@Z
?trUtf8@QTimer@kso_qt@@SA?AVQString@2@PEBD0H@Z
?trUtf8@QTranslator@kso_qt@@SA?AVQString@2@PEBD0H@Z
?trUtf8@QUnifiedTimer@kso_qt@@SA?AVQString@2@PEBD0H@Z
?trUtf8@QVariantAnimation@kso_qt@@SA?AVQString@2@PEBD0H@Z
?trUtf8@QWinEventNotifier@kso_qt@@SA?AVQString@2@PEBD0H@Z
?trUtf8@QWindowsPipeReader@kso_qt@@SA?AVQString@2@PEBD0H@Z
?trUtf8@QWindowsPipeWriter@kso_qt@@SA?AVQString@2@PEBD0H@Z
?transitionStateEntryLessThan@QStateMachinePrivate@kso_qt@@SA_NPEAVQAbstractTransition@2@0@Z
?transitionType@QAbstractTransition@kso_qt@@QEBA?AW4TransitionType@12@XZ
?transitions@QState@kso_qt@@QEBA?AV?$QList@PEAVQAbstractTransition@kso_qt@@@2@XZ
?transitions@QStatePrivate@kso_qt@@QEBA?AV?$QList@PEAVQAbstractTransition@kso_qt@@@2@XZ
?transitions@QTimeZone@kso_qt@@QEBA?AV?$QVector@UOffsetData@QTimeZone@kso_qt@@@2@AEBVQDateTime@2@0@Z
?transitions@QTimeZonePrivate@kso_qt@@QEBA?AV?$QVector@UData@QTimeZonePrivate@kso_qt@@@2@_J0@Z
?translate@QCoreApplication@kso_qt@@SA?AVQString@2@PEBD00H@Z
?translate@QCoreApplication@kso_qt@@SA?AVQString@2@PEBD00W4Encoding@12@H@Z
?translate@QLine@kso_qt@@QEAAXAEBVQPoint@2@@Z
?translate@QLine@kso_qt@@QEAAXHH@Z
?translate@QLineF@kso_qt@@QEAAXAEBVQPointF@2@@Z
?translate@QLineF@kso_qt@@QEAAXNN@Z
?translate@QRect@kso_qt@@QEAAXAEBVQPoint@2@@Z
?translate@QRect@kso_qt@@QEAAXHH@Z
?translate@QRectF@kso_qt@@QEAAXAEBVQPointF@2@@Z
?translate@QRectF@kso_qt@@QEAAXNN@Z
?translate@QTranslator@kso_qt@@UEBA?AVQString@2@PEBD00H@Z
?translated@QLine@kso_qt@@QEBA?AV12@AEBVQPoint@2@@Z
?translated@QLine@kso_qt@@QEBA?AV12@HH@Z
?translated@QLineF@kso_qt@@QEBA?AV12@AEBVQPointF@2@@Z
?translated@QLineF@kso_qt@@QEBA?AV12@NN@Z
?translated@QRect@kso_qt@@QEBA?AV12@AEBVQPoint@2@@Z
?translated@QRect@kso_qt@@QEBA?AV12@HH@Z
?translated@QRectF@kso_qt@@QEBA?AV12@AEBVQPointF@2@@Z
?translated@QRectF@kso_qt@@QEBA?AV12@NN@Z
?transpose@QSize@kso_qt@@QEAAXXZ
?transpose@QSizeF@kso_qt@@QEAAXXZ
?transposed@QRect@kso_qt@@QEBA?AV12@XZ
?transposed@QRectF@kso_qt@@QEBA?AV12@XZ
?transposed@QSize@kso_qt@@QEBA?AV12@XZ
?transposed@QSizeF@kso_qt@@QEBA?AV12@XZ
?triggered@QAbstractTransition@kso_qt@@QEAAXUQPrivateSignal@12@@Z
?trimmed@QByteArray@kso_qt@@QEBA?AV12@XZ
?trimmed@QByteArray@kso_qt@@QEGBA?AV12@XZ
?trimmed@QByteArray@kso_qt@@QEHAA?AV12@XZ
?trimmed@QString@kso_qt@@QEBA?AV12@XZ
?trimmed@QString@kso_qt@@QEGBA?AV12@XZ
?trimmed@QString@kso_qt@@QEHAA?AV12@XZ
?trimmed@QStringRef@kso_qt@@QEBA?AV12@XZ
?trimmed@QtPrivate@kso_qt@@YA?AVQLatin1String@2@V32@@Z
?trimmed@QtPrivate@kso_qt@@YA?AVQStringView@2@V32@@Z
?trimmed_helper@QByteArray@kso_qt@@CA?AV12@AEAV12@@Z
?trimmed_helper@QByteArray@kso_qt@@CA?AV12@AEBV12@@Z
?trimmed_helper@QString@kso_qt@@CA?AV12@AEAV12@@Z
?trimmed_helper@QString@kso_qt@@CA?AV12@AEBV12@@Z
?true_element@VectorBoolElements@QtMetaTypePrivate@kso_qt@@2_NB
?truncate@QBitArray@kso_qt@@QEAAXH@Z
?truncate@QByteArray@kso_qt@@QEAAXH@Z
?truncate@QString@kso_qt@@QEAAXH@Z
?truncate@QStringRef@kso_qt@@QEAAXH@Z
?tryAcquire@QSemaphore@kso_qt@@QEAA_NH@Z
?tryAcquire@QSemaphore@kso_qt@@QEAA_NHH@Z
?tryLock@QBasicMutex@kso_qt@@QEAA_NXZ
?tryLock@QLockFile@kso_qt@@QEAA_NH@Z
?tryLock@QMutex@kso_qt@@QEAA_NH@Z
?tryLockForRead@QReadWriteLock@kso_qt@@QEAA_NH@Z
?tryLockForRead@QReadWriteLock@kso_qt@@QEAA_NXZ
?tryLockForWrite@QReadWriteLock@kso_qt@@QEAA_NH@Z
?tryLockForWrite@QReadWriteLock@kso_qt@@QEAA_NXZ
?tryLocker@QSharedMemoryPrivate@kso_qt@@QEAA_NPEAVQSharedMemoryLocker@2@AEBVQString@2@@Z
?tryStart@QThreadPool@kso_qt@@QEAA_NPEAVQRunnable@2@@Z
?tryStart@QThreadPoolPrivate@kso_qt@@QEAA_NPEAVQRunnable@2@@Z
?tryTake@QThreadPool@kso_qt@@QEAA_NPEAVQRunnable@2@@Z
?tryToStartMoreThreads@QThreadPoolPrivate@kso_qt@@QEAAXXZ
?try_lock@QBasicMutex@kso_qt@@QEAA_NXZ
?try_lock@QMutex@kso_qt@@QEAA_NXZ
?type@QCborStreamReader@kso_qt@@QEBA?AW4Type@12@XZ
?type@QCborValue@kso_qt@@QEBA?AW4Type@12@XZ
?type@QCborValueRef@kso_qt@@QEBA?AW4Type@QCborValue@2@XZ
?type@QEasingCurve@kso_qt@@QEBA?AW4Type@12@XZ
?type@QEvent@kso_qt@@QEBA?AW4Type@12@XZ
?type@QJsonValue@kso_qt@@QEBA?AW4Type@12@XZ
?type@QJsonValueRef@kso_qt@@QEBA?AW4Type@QJsonValue@2@XZ
?type@QMetaProperty@kso_qt@@QEBA?AW4Type@QVariant@2@XZ
?type@QMetaPropertyBuilder@kso_qt@@QEBA?AVQByteArray@2@XZ
?type@QMetaType@kso_qt@@SAHAEBVQByteArray@2@@Z
?type@QMetaType@kso_qt@@SAHPEBD@Z
?type@QOperatingSystemVersion@kso_qt@@QEBA?AW4OSType@12@XZ
?type@QSocketNotifier@kso_qt@@QEBA?AW4Type@12@XZ
?type@QTextBoundaryFinder@kso_qt@@QEBA?AW4BoundaryType@12@XZ
?type@QVariant@kso_qt@@QEBA?AW4Type@12@XZ
?typeFlags@QMetaType@kso_qt@@SA?AV?$QFlags@W4TypeFlag@QMetaType@kso_qt@@@2@H@Z
?typeInfo@QMetaType@kso_qt@@CA?AV12@H@Z
?typeName@QMetaMethod@kso_qt@@QEBAPEBDXZ
?typeName@QMetaProperty@kso_qt@@QEBAPEBDXZ
?typeName@QMetaType@kso_qt@@SAPEBDH@Z
?typeName@QVariant@kso_qt@@QEBAPEBDXZ
?typeToName@QVariant@kso_qt@@SAPEBDH@Z
?type_helper@QCborValue@kso_qt@@CA?AW4Type@12@W4QCborSimpleType@2@@Z
?uiLanguages@QLocale@kso_qt@@QEBA?AVQStringList@2@XZ
?ungetChar@QIODevice@kso_qt@@QEAAXD@Z
?unicode@QChar@kso_qt@@QEAAAEAGXZ
?unicode@QChar@kso_qt@@QEBAGXZ
?unicode@QCharRef@kso_qt@@QEAAAEAGXZ
?unicode@QCharRef@kso_qt@@QEBAGXZ
?unicode@QString@kso_qt@@QEBAPEBVQChar@2@XZ
?unicode@QStringRef@kso_qt@@QEBAPEBVQChar@2@XZ
?unicodeVersion@QChar@kso_qt@@QEBA?AW4UnicodeVersion@12@XZ
?unicodeVersion@QChar@kso_qt@@SA?AW4UnicodeVersion@12@I@Z
?unicodeVersion@QCharRef@kso_qt@@QEBA?AW4UnicodeVersion@QChar@2@XZ
?uninstall@QAnimationDriver@kso_qt@@QEAAXXZ
?uninstallAnimationDriver@QUnifiedTimer@kso_qt@@QEAAXPEAVQAnimationDriver@2@@Z
?uninstallMessageHook@QEventDispatcherWin32@kso_qt@@IEAAXXZ
?unitVector@QLineF@kso_qt@@QEBA?AV12@XZ
?unite@QRect@kso_qt@@QEBA?AV12@AEBV12@@Z
?unite@QRectF@kso_qt@@QEBA?AV12@AEBV12@@Z
?united@QRect@kso_qt@@QEBA?AV12@AEBV12@@Z
?united@QRectF@kso_qt@@QEBA?AV12@AEBV12@@Z
?unknownOptionNames@QCommandLineParser@kso_qt@@QEBA?AVQStringList@2@XZ
?unload@QLibrary@kso_qt@@QEAA_NXZ
?unload@QPluginLoader@kso_qt@@QEAA_NXZ
?unlock@QBasicMutex@kso_qt@@QEAAXXZ
?unlock@QLockFile@kso_qt@@QEAAXXZ
?unlock@QMutex@kso_qt@@QEAAXXZ
?unlock@QMutexLocker@kso_qt@@QEAAXXZ
?unlock@QReadLocker@kso_qt@@QEAAXXZ
?unlock@QReadWriteLock@kso_qt@@QEAAXXZ
?unlock@QSharedMemory@kso_qt@@QEAA_NXZ
?unlock@QWriteLocker@kso_qt@@QEAAXXZ
?unlockInternal@QBasicMutex@kso_qt@@AEAAXXZ
?unmap@QAbstractFileEngine@kso_qt@@QEAA_NPEAE@Z
?unmap@QFSFileEnginePrivate@kso_qt@@QEAA_NPEAE@Z
?unmap@QFileDevice@kso_qt@@QEAA_NPEAE@Z
?unmapAll@QFSFileEnginePrivate@kso_qt@@QEAAXXZ
?unregister@QEventTransitionPrivate@kso_qt@@QEAAXXZ
?unregisterAllTransitions@QStateMachinePrivate@kso_qt@@QEAAXXZ
?unregisterCallback@QInternal@kso_qt@@SA_NW4Callback@12@P6A_NPEAPEAX@Z@Z
?unregisterCategory@QLoggingRegistry@kso_qt@@QEAAXPEAVQLoggingCategory@2@@Z
?unregisterConverterFunction@QMetaType@kso_qt@@SAXHH@Z
?unregisterEventNotifier@QEventDispatcherWin32@kso_qt@@UEAAXPEAVQWinEventNotifier@2@@Z
?unregisterEventTransition@QStateMachinePrivate@kso_qt@@QEAAXPEAVQEventTransition@2@@Z
?unregisterResource@QResource@kso_qt@@SA_NAEBVQString@2@0@Z
?unregisterResource@QResource@kso_qt@@SA_NPEBEAEBVQString@2@@Z
?unregisterRestorables@QStateMachinePrivate@kso_qt@@QEAAXAEBV?$QList@PEAVQAbstractState@kso_qt@@@2@PEAVQObject@2@AEBVQByteArray@2@@Z
?unregisterSignalTransition@QStateMachinePrivate@kso_qt@@QEAAXPEAVQSignalTransition@2@@Z
?unregisterSocketNotifier@QEventDispatcherWin32@kso_qt@@UEAAXPEAVQSocketNotifier@2@@Z
?unregisterTimer@QEventDispatcherWin32@kso_qt@@UEAA_NH@Z
?unregisterTimer@QEventDispatcherWin32Private@kso_qt@@QEAAXPEAUWinTimerInfo@2@@Z
?unregisterTimers@QEventDispatcherWin32@kso_qt@@UEAA_NPEAVQObject@2@@Z
?unregisterTransition@QStateMachinePrivate@kso_qt@@QEAAXPEAVQAbstractTransition@2@@Z
?unregisterType@QMetaType@kso_qt@@SA_NH@Z
?unsetDevice@QDataStream@kso_qt@@QEAAXXZ
?unsetError@QFileDevice@kso_qt@@QEAAXXZ
?update@QFactoryLoader@kso_qt@@QEAAXXZ
?update@QSettingsPrivate@kso_qt@@QEAAXXZ
?updateAnimationTimers@QUnifiedTimer@kso_qt@@QEAAX_J@Z
?updateCurrentTime@QParallelAnimationGroup@kso_qt@@MEAAXH@Z
?updateCurrentTime@QPauseAnimation@kso_qt@@MEAAXH@Z
?updateCurrentTime@QSequentialAnimationGroup@kso_qt@@MEAAXH@Z
?updateCurrentTime@QVariantAnimation@kso_qt@@MEAAXH@Z
?updateCurrentValue@QPropertyAnimation@kso_qt@@MEAAXAEBVQVariant@2@@Z
?updateCurrentValue@QVariantAnimation@kso_qt@@MEAAXAEBVQVariant@2@@Z
?updateDirection@QAbstractAnimation@kso_qt@@MEAAXW4Direction@12@@Z
?updateDirection@QParallelAnimationGroup@kso_qt@@MEAAXW4Direction@QAbstractAnimation@2@@Z
?updateDirection@QSequentialAnimationGroup@kso_qt@@MEAAXW4Direction@QAbstractAnimation@2@@Z
?updateInsertIndex@ResultStoreBase@QtPrivate@kso_qt@@IEAAHHH@Z
?updateInterval@QTimeLine@kso_qt@@QEBAHXZ
?updateRules@QLoggingRegistry@kso_qt@@AEAAXXZ
?updateSelectors@QFileSelectorPrivate@kso_qt@@SAXXZ
?updateState@QAbstractAnimation@kso_qt@@MEAAXW4State@12@0@Z
?updateState@QParallelAnimationGroup@kso_qt@@MEAAXW4State@QAbstractAnimation@2@0@Z
?updateState@QPropertyAnimation@kso_qt@@MEAAXW4State@QAbstractAnimation@2@0@Z
?updateState@QSequentialAnimationGroup@kso_qt@@MEAAXW4State@QAbstractAnimation@2@0@Z
?updateState@QVariantAnimation@kso_qt@@MEAAXW4State@QAbstractAnimation@2@0@Z
?updateSystemPrivate@QLocalePrivate@kso_qt@@SAXXZ
?uppercasebase@kso_qt@@YAAEAVQTextStream@1@AEAV21@@Z
?uppercasedigits@kso_qt@@YAAEAVQTextStream@1@AEAV21@@Z
?url@QUrl@kso_qt@@QEBA?AVQString@2@V?$QUrlTwoFlags@W4UrlFormattingOption@QUrl@kso_qt@@W4ComponentFormattingOption@23@@2@@Z
?urls@QMimeData@kso_qt@@QEBA?AV?$QList@VQUrl@kso_qt@@@2@XZ
?userData@QObject@kso_qt@@QEBAPEAVQObjectUserData@2@I@Z
?userId@QFileSystemMetaData@kso_qt@@QEBAIXZ
?userInfo@QUrl@kso_qt@@QEBA?AVQString@2@V?$QFlags@W4ComponentFormattingOption@QUrl@kso_qt@@@2@@Z
?userName@QUrl@kso_qt@@QEBA?AVQString@2@V?$QFlags@W4ComponentFormattingOption@QUrl@kso_qt@@@2@@Z
?userProperty@QMetaObject@kso_qt@@QEBA?AVQMetaProperty@2@XZ
?userType@QMetaProperty@kso_qt@@QEBAHXZ
?userType@QVariant@kso_qt@@QEBAHXZ
?usleep@QThread@kso_qt@@SAXK@Z
?utc@QTimeZone@kso_qt@@SA?AV12@XZ
?utcOffset@QDateTime@kso_qt@@QEBAHXZ
?utcQByteArray@QTimeZonePrivate@kso_qt@@SA?AVQByteArray@2@XZ
?utcQString@QTimeZonePrivate@kso_qt@@SA?AVQString@2@XZ
?utf16@QString@kso_qt@@QEBAPEBGXZ
?validateChars@QLocaleData@kso_qt@@QEBA_NVQStringView@2@W4NumberMode@12@PEAVQByteArray@2@HV?$QFlags@W4NumberOption@QLocale@kso_qt@@@2@@Z
?value@?$QList@VQItemSelectionRange@kso_qt@@@kso_qt@@QEBA?AVQItemSelectionRange@2@H@Z
?value@?$QList@VQItemSelectionRange@kso_qt@@@kso_qt@@QEBA?AVQItemSelectionRange@2@HAEBV32@@Z
?value@?$QVector@VQPoint@kso_qt@@@kso_qt@@QEBA?AVQPoint@2@H@Z
?value@?$QVector@VQPoint@kso_qt@@@kso_qt@@QEBA?AVQPoint@2@HAEBV32@@Z
?value@?$QVector@VQPointF@kso_qt@@@kso_qt@@QEBA?AVQPointF@2@H@Z
?value@?$QVector@VQPointF@kso_qt@@@kso_qt@@QEBA?AVQPointF@2@HAEBV32@@Z
?value@?$QVector@VQXmlStreamAttribute@kso_qt@@@kso_qt@@QEBA?AVQXmlStreamAttribute@2@H@Z
?value@?$QVector@VQXmlStreamAttribute@kso_qt@@@kso_qt@@QEBA?AVQXmlStreamAttribute@2@HAEBV32@@Z
?value@QAssociativeIterable@kso_qt@@QEBA?AVQVariant@2@AEBV32@@Z
?value@QCborMap@kso_qt@@QEBA?AVQCborValue@2@AEBV32@@Z
?value@QCborMap@kso_qt@@QEBA?AVQCborValue@2@AEBVQString@2@@Z
?value@QCborMap@kso_qt@@QEBA?AVQCborValue@2@VQLatin1String@2@@Z
?value@QCborMap@kso_qt@@QEBA?AVQCborValue@2@_J@Z
?value@QCommandLineParser@kso_qt@@QEBA?AVQString@2@AEBV32@@Z
?value@QCommandLineParser@kso_qt@@QEBA?AVQString@2@AEBVQCommandLineOption@2@@Z
?value@QJsonObject@kso_qt@@QEBA?AVQJsonValue@2@AEBVQString@2@@Z
?value@QJsonObject@kso_qt@@QEBA?AVQJsonValue@2@VQLatin1String@2@@Z
?value@QMetaClassInfo@kso_qt@@QEBAPEBDXZ
?value@QMetaEnum@kso_qt@@QEBAHH@Z
?value@QMetaEnumBuilder@kso_qt@@QEBAHH@Z
?value@QProcessEnvironment@kso_qt@@QEBA?AVQString@2@AEBV32@0@Z
?value@QSettings@kso_qt@@QEBA?AVQVariant@2@AEBVQString@2@AEBV32@@Z
?value@QXmlStreamAttribute@kso_qt@@QEBA?AVQStringRef@2@XZ
?value@QXmlStreamAttributes@kso_qt@@QEBA?AVQStringRef@2@AEBVQString@2@0@Z
?value@QXmlStreamAttributes@kso_qt@@QEBA?AVQStringRef@2@AEBVQString@2@@Z
?value@QXmlStreamAttributes@kso_qt@@QEBA?AVQStringRef@2@AEBVQString@2@VQLatin1String@2@@Z
?value@QXmlStreamAttributes@kso_qt@@QEBA?AVQStringRef@2@VQLatin1String@2@0@Z
?value@QXmlStreamAttributes@kso_qt@@QEBA?AVQStringRef@2@VQLatin1String@2@@Z
?value@QXmlStreamEntityDeclaration@kso_qt@@QEBA?AVQStringRef@2@XZ
?value@const_iterator@QAssociativeIterable@kso_qt@@QEBA?BVQVariant@3@XZ
?valueAt@QJsonObject@kso_qt@@AEBA?AVQJsonValue@2@H@Z
?valueChanged@QTimeLine@kso_qt@@QEAAXNUQPrivateSignal@12@@Z
?valueChanged@QVariantAnimation@kso_qt@@QEAAXAEBVQVariant@2@@Z
?valueForProgress@QEasingCurve@kso_qt@@QEBANN@Z
?valueForTime@QTimeLine@kso_qt@@UEBANH@Z
?valueName@QCommandLineOption@kso_qt@@QEBA?AVQString@2@XZ
?valueToKey@QMetaEnum@kso_qt@@QEBAPEBDH@Z
?valueToKeys@QMetaEnum@kso_qt@@QEBA?AVQByteArray@2@H@Z
?value_helper@QCborValue@kso_qt@@AEBA_JXZ
?values@QCommandLineParser@kso_qt@@QEBA?AVQStringList@2@AEBVQCommandLineOption@2@@Z
?values@QCommandLineParser@kso_qt@@QEBA?AVQStringList@2@AEBVQString@2@@Z
?variant@QUuid@kso_qt@@QEBA?AW4Variant@12@XZ
?variantLessThan@QAbstractItemModelPrivate@kso_qt@@SA_NAEBVQVariant@2@0@Z
?variantListToStringList@QSettingsPrivate@kso_qt@@SA?AVQStringList@2@AEBV?$QList@VQVariant@kso_qt@@@2@@Z
?variantToString@QSettingsPrivate@kso_qt@@SA?AVQString@2@AEBVQVariant@2@@Z
?vasprintf@QString@kso_qt@@SA?AV12@PEBDPEAD@Z
?vectorIndex@ResultIteratorBase@QtPrivate@kso_qt@@QEBAHXZ
?verbosity@QDebug@kso_qt@@QEBAHXZ
?version@QDataStream@kso_qt@@QEBAHXZ
?version@QLibraryInfo@kso_qt@@SA?AVQVersionNumber@2@XZ
?version@QUuid@kso_qt@@QEBA?AW4Version@12@XZ
?vsprintf@QString@kso_qt@@QEAAAEAV12@PEBDPEAD@Z
?wait@QThread@kso_qt@@QEAA_NK@Z
?wait@QWaitCondition@kso_qt@@QEAA_NPEAVQMutex@2@K@Z
?wait@QWaitCondition@kso_qt@@QEAA_NPEAVQMutex@2@VQDeadlineTimer@2@@Z
?wait@QWaitCondition@kso_qt@@QEAA_NPEAVQReadWriteLock@2@K@Z
?wait@QWaitCondition@kso_qt@@QEAA_NPEAVQReadWriteLock@2@VQDeadlineTimer@2@@Z
?waitForBytesWritten@QIODevice@kso_qt@@UEAA_NH@Z
?waitForBytesWritten@QProcess@kso_qt@@UEAA_NH@Z
?waitForDone@QThreadPool@kso_qt@@QEAA_NH@Z
?waitForDone@QThreadPoolPrivate@kso_qt@@QEAA_NAEBVQDeadlineTimer@2@@Z
?waitForDone@QThreadPoolPrivate@kso_qt@@QEAA_NH@Z
?waitForFinished@QFutureInterfaceBase@kso_qt@@QEAAXXZ
?waitForFinished@QFutureWatcherBase@kso_qt@@QEAAXXZ
?waitForFinished@QProcess@kso_qt@@QEAA_NH@Z
?waitForNextResult@QFutureInterfaceBase@kso_qt@@QEAA_NXZ
?waitForNotification@QWindowsPipeReader@kso_qt@@AEAA_NH@Z
?waitForNotification@QWindowsPipeWriter@kso_qt@@AEAA_NH@Z
?waitForPipeClosed@QWindowsPipeReader@kso_qt@@QEAA_NH@Z
?waitForReadyRead@QIODevice@kso_qt@@UEAA_NH@Z
?waitForReadyRead@QProcess@kso_qt@@UEAA_NH@Z
?waitForReadyRead@QWindowsPipeReader@kso_qt@@QEAA_NH@Z
?waitForResult@QFutureInterfaceBase@kso_qt@@QEAAXH@Z
?waitForResume@QFutureInterfaceBase@kso_qt@@QEAAXXZ
?waitForStarted@QProcess@kso_qt@@QEAA_NH@Z
?waitForWrite@QWindowsPipeWriter@kso_qt@@QEAA_NH@Z
?wakeAll@QWaitCondition@kso_qt@@QEAAXXZ
?wakeOne@QWaitCondition@kso_qt@@QEAAXXZ
?wakeUp@QEventDispatcherWin32@kso_qt@@UEAAXXZ
?wakeUp@QEventLoop@kso_qt@@QEAAXXZ
?warning@QMessageLogger@kso_qt@@QEBA?AVQDebug@2@AEBVQLoggingCategory@2@@Z
?warning@QMessageLogger@kso_qt@@QEBA?AVQDebug@2@P6AAEBVQLoggingCategory@2@XZ@Z
?warning@QMessageLogger@kso_qt@@QEBA?AVQDebug@2@XZ
?warning@QMessageLogger@kso_qt@@QEBAXAEBVQLoggingCategory@2@PEBDZZ
?warning@QMessageLogger@kso_qt@@QEBAXP6AAEBVQLoggingCategory@2@XZPEBDZZ
?warning@QMessageLogger@kso_qt@@QEBAXPEBDZZ
?wasDeleted@QFileSystemMetaData@kso_qt@@QEBA_NXZ
?weakPointerFromVariant_internal@QtSharedPointer@kso_qt@@YA?AV?$QWeakPointer@VQObject@kso_qt@@@2@AEBVQVariant@2@@Z
?weekNumber@QDate@kso_qt@@QEBAHPEAH@Z
?weekdays@QLocale@kso_qt@@QEBA?AV?$QList@W4DayOfWeek@Qt@kso_qt@@@2@XZ
?width@QItemSelectionRange@kso_qt@@QEBAHXZ
?width@QRect@kso_qt@@QEBAHXZ
?width@QRectF@kso_qt@@QEBANXZ
?width@QSize@kso_qt@@QEBAHXZ
?width@QSizeF@kso_qt@@QEBANXZ
?wildcardToRegularExpression@QRegularExpression@kso_qt@@SA?AVQString@2@AEBV32@@Z
?willGrow@QHashData@kso_qt@@QEAA_NXZ
?winError@QWindowsPipeReader@kso_qt@@QEAAXKAEBVQString@2@@Z
?windowsIdToDefaultIanaId@QTimeZone@kso_qt@@SA?AVQByteArray@2@AEBV32@@Z
?windowsIdToDefaultIanaId@QTimeZone@kso_qt@@SA?AVQByteArray@2@AEBV32@W4Country@QLocale@2@@Z
?windowsIdToDefaultIanaId@QTimeZonePrivate@kso_qt@@SA?AVQByteArray@2@AEBV32@@Z
?windowsIdToDefaultIanaId@QTimeZonePrivate@kso_qt@@SA?AVQByteArray@2@AEBV32@W4Country@QLocale@2@@Z
?windowsIdToIanaIds@QTimeZone@kso_qt@@SA?AV?$QList@VQByteArray@kso_qt@@@2@AEBVQByteArray@2@@Z
?windowsIdToIanaIds@QTimeZone@kso_qt@@SA?AV?$QList@VQByteArray@kso_qt@@@2@AEBVQByteArray@2@W4Country@QLocale@2@@Z
?windowsIdToIanaIds@QTimeZonePrivate@kso_qt@@SA?AV?$QList@VQByteArray@kso_qt@@@2@AEBVQByteArray@2@@Z
?windowsIdToIanaIds@QTimeZonePrivate@kso_qt@@SA?AV?$QList@VQByteArray@kso_qt@@@2@AEBVQByteArray@2@W4Country@QLocale@2@@Z
?windowsString@QSystemError@kso_qt@@SA?AVQString@2@H@Z
?windowsVersion@QSysInfo@kso_qt@@SA?AW4WinVersion@12@XZ
?wordBreakClass@QUnicodeTables@kso_qt@@YA?AW4WordBreakClass@12@I@Z
?workingDirectory@QProcess@kso_qt@@QEBA?AVQString@2@XZ
?wrap@QNonContiguousByteDeviceFactory@kso_qt@@SAPEAVQIODevice@2@PEAVQNonContiguousByteDevice@2@@Z
?writableLocation@QStandardPaths@kso_qt@@SA?AVQString@2@W4StandardLocation@12@@Z
?write@QAbstractFileEngine@kso_qt@@UEAA_JPEBD_J@Z
?write@QFSFileEngine@kso_qt@@UEAA_JPEBD_J@Z
?write@QIODevice@kso_qt@@QEAA_JAEBVQByteArray@2@@Z
?write@QIODevice@kso_qt@@QEAA_JPEBD@Z
?write@QIODevice@kso_qt@@QEAA_JPEBD_J@Z
?write@QMetaProperty@kso_qt@@QEBA_NPEAVQObject@2@AEBVQVariant@2@@Z
?write@QWindowsPipeWriter@kso_qt@@QEAA_NAEBVQByteArray@2@@Z
?writeAttribute@QXmlStreamWriter@kso_qt@@QEAAXAEBVQString@2@00@Z
?writeAttribute@QXmlStreamWriter@kso_qt@@QEAAXAEBVQString@2@0@Z
?writeAttribute@QXmlStreamWriter@kso_qt@@QEAAXAEBVQXmlStreamAttribute@2@@Z
?writeAttributes@QXmlStreamWriter@kso_qt@@QEAAXAEBVQXmlStreamAttributes@2@@Z
?writeBlob@QMetaStringTable@kso_qt@@QEBAXPEAD@Z
?writeBytes@QDataStream@kso_qt@@QEAAAEAV12@PEBDI@Z
?writeCDATA@QXmlStreamWriter@kso_qt@@QEAAXAEBVQString@2@@Z
?writeChannelCount@QIODevice@kso_qt@@QEBAHXZ
?writeCharacters@QXmlStreamWriter@kso_qt@@QEAAXAEBVQString@2@@Z
?writeComment@QXmlStreamWriter@kso_qt@@QEAAXAEBVQString@2@@Z
?writeCurrentToken@QXmlStreamWriter@kso_qt@@QEAAXAEBVQXmlStreamReader@2@@Z
?writeDTD@QXmlStreamWriter@kso_qt@@QEAAXAEBVQString@2@@Z
?writeData@QBuffer@kso_qt@@MEAA_JPEBD_J@Z
?writeData@QFileDevice@kso_qt@@MEAA_JPEBD_J@Z
?writeData@QProcess@kso_qt@@MEAA_JPEBD_J@Z
?writeData@QSaveFile@kso_qt@@MEAA_JPEBD_J@Z
?writeDefaultNamespace@QXmlStreamWriter@kso_qt@@QEAAXAEBVQString@2@@Z
?writeEmptyElement@QXmlStreamWriter@kso_qt@@QEAAXAEBVQString@2@0@Z
?writeEmptyElement@QXmlStreamWriter@kso_qt@@QEAAXAEBVQString@2@@Z
?writeEndDocument@QXmlStreamWriter@kso_qt@@QEAAXXZ
?writeEndElement@QXmlStreamWriter@kso_qt@@QEAAXXZ
?writeEntityReference@QXmlStreamWriter@kso_qt@@QEAAXAEBVQString@2@@Z
?writeFdFh@QFSFileEnginePrivate@kso_qt@@QEAA_JPEBD_J@Z
?writeFileCompleted@QWindowsPipeWriter@kso_qt@@CAXKKPEAU_OVERLAPPED@@@Z
?writeNamespace@QXmlStreamWriter@kso_qt@@QEAAXAEBVQString@2@0@Z
?writeOnGadget@QMetaProperty@kso_qt@@QEBA_NPEAXAEBVQVariant@2@@Z
?writeProcessingInstruction@QXmlStreamWriter@kso_qt@@QEAAXAEBVQString@2@0@Z
?writeRawData@QDataStream@kso_qt@@QEAAHPEBDH@Z
?writeStartDocument@QXmlStreamWriter@kso_qt@@QEAAXAEBVQString@2@@Z
?writeStartDocument@QXmlStreamWriter@kso_qt@@QEAAXAEBVQString@2@_N@Z
?writeStartDocument@QXmlStreamWriter@kso_qt@@QEAAXXZ
?writeStartElement@QXmlStreamWriter@kso_qt@@QEAAXAEBVQString@2@0@Z
?writeStartElement@QXmlStreamWriter@kso_qt@@QEAAXAEBVQString@2@@Z
?writeTextElement@QXmlStreamWriter@kso_qt@@QEAAXAEBVQString@2@00@Z
?writeTextElement@QXmlStreamWriter@kso_qt@@QEAAXAEBVQString@2@0@Z
?ws@kso_qt@@YAAEAVQTextStream@1@AEAV21@@Z
?x1@QLine@kso_qt@@QEBAHXZ
?x1@QLineF@kso_qt@@QEBANXZ
?x2@QLine@kso_qt@@QEBAHXZ
?x2@QLineF@kso_qt@@QEBANXZ
?x@QPoint@kso_qt@@QEBAHXZ
?x@QPointF@kso_qt@@QEBANXZ
?x@QRect@kso_qt@@QEBAHXZ
?x@QRectF@kso_qt@@QEBANXZ
?y1@QLine@kso_qt@@QEBAHXZ
?y1@QLineF@kso_qt@@QEBANXZ
?y2@QLine@kso_qt@@QEBAHXZ
?y2@QLineF@kso_qt@@QEBANXZ
?y@QPoint@kso_qt@@QEBAHXZ
?y@QPointF@kso_qt@@QEBANXZ
?y@QRect@kso_qt@@QEBAHXZ
?y@QRectF@kso_qt@@QEBANXZ
?year@QDate@kso_qt@@QEBAHXZ
?yieldCurrentThread@QThread@kso_qt@@SAXXZ
?zero@QLocalePrivate@kso_qt@@QEBA?AVQChar@2@XZ
?zeroDigit@QLocale@kso_qt@@QEBA?AVQChar@2@XZ
qEquivalentFunctions
qt_addObject
qt_removeObject
qt_startup_hook
z_adler32
z_adler32_combine
z_adler32_z
z_compress
z_compress2
z_compressBound
z_crc32
z_crc32_combine
z_crc32_combine_gen
z_crc32_combine_op
z_crc32_z
z_deflate
z_deflateBound
z_deflateCopy
z_deflateEnd
z_deflateGetDictionary
z_deflateInit2_
z_deflateInit_
z_deflateParams
z_deflatePending
z_deflatePrime
z_deflateReset
z_deflateResetKeep
z_deflateSetDictionary
z_deflateSetHeader
z_deflateTune
z_get_crc_table
z_gzbuffer
z_gzclearerr
z_gzclose
z_gzclose_r
z_gzclose_w
z_gzdirect
z_gzdopen
z_gzeof
z_gzerror
z_gzflush
z_gzfread
z_gzfwrite
z_gzgetc
z_gzgetc_
z_gzgets
z_gzoffset
z_gzoffset64
z_gzopen
z_gzopen64
z_gzopen_w
z_gzprintf
z_gzputc
z_gzputs
z_gzread
z_gzrewind
z_gzseek
z_gzseek64
z_gzsetparams
z_gztell
z_gztell64
z_gzungetc
z_gzvprintf
z_gzwrite
z_inflate
z_inflateBack
z_inflateBackEnd
z_inflateBackInit_
z_inflateCodesUsed
z_inflateCopy
z_inflateEnd
z_inflateGetDictionary
z_inflateGetHeader
z_inflateInit2_
z_inflateInit_
z_inflateMark
z_inflatePrime
z_inflateReset
z_inflateReset2
z_inflateResetKeep
z_inflateSetDictionary
z_inflateSync
z_inflateSyncPoint
z_inflateUndermine
z_inflateValidate
z_uncompress
z_uncompress2
z_zError
z_zlibCompileFlags
z_zlibVersion
