LIBRARY Qt5CoreKso.dll
EXPORTS
??$qbswap@$01@kso_qt@@YAPAXPBXHPAX@Z
??$qbswap@$03@kso_qt@@YAPAXPBXHPAX@Z
??$qbswap@$07@kso_qt@@YAPAXPBXHPAX@Z
??0?$QList@VQItemSelectionRange@kso_qt@@@kso_qt@@QAE@$$QAV01@@Z
??0?$QList@VQItemSelectionRange@kso_qt@@@kso_qt@@QAE@ABV01@@Z
??0?$QList@VQItemSelectionRange@kso_qt@@@kso_qt@@QAE@V?$initializer_list@VQItemSelectionRange@kso_qt@@@std@@@Z
??0?$QList@VQItemSelectionRange@kso_qt@@@kso_qt@@QAE@XZ
??0?$QVector@VQPoint@kso_qt@@@kso_qt@@QAE@$$QAV01@@Z
??0?$QVector@VQPoint@kso_qt@@@kso_qt@@QAE@ABV01@@Z
??0?$QVector@VQPoint@kso_qt@@@kso_qt@@QAE@H@Z
??0?$QVector@VQPoint@kso_qt@@@kso_qt@@QAE@HABVQPoint@1@@Z
??0?$QVector@VQPoint@kso_qt@@@kso_qt@@QAE@V?$initializer_list@VQPoint@kso_qt@@@std@@@Z
??0?$QVector@VQPoint@kso_qt@@@kso_qt@@QAE@XZ
??0?$QVector@VQPointF@kso_qt@@@kso_qt@@QAE@$$QAV01@@Z
??0?$QVector@VQPointF@kso_qt@@@kso_qt@@QAE@ABV01@@Z
??0?$QVector@VQPointF@kso_qt@@@kso_qt@@QAE@H@Z
??0?$QVector@VQPointF@kso_qt@@@kso_qt@@QAE@HABVQPointF@1@@Z
??0?$QVector@VQPointF@kso_qt@@@kso_qt@@QAE@V?$initializer_list@VQPointF@kso_qt@@@std@@@Z
??0?$QVector@VQPointF@kso_qt@@@kso_qt@@QAE@XZ
??0?$QVector@VQXmlStreamAttribute@kso_qt@@@kso_qt@@QAE@$$QAV01@@Z
??0?$QVector@VQXmlStreamAttribute@kso_qt@@@kso_qt@@QAE@ABV01@@Z
??0?$QVector@VQXmlStreamAttribute@kso_qt@@@kso_qt@@QAE@H@Z
??0?$QVector@VQXmlStreamAttribute@kso_qt@@@kso_qt@@QAE@HABVQXmlStreamAttribute@1@@Z
??0?$QVector@VQXmlStreamAttribute@kso_qt@@@kso_qt@@QAE@V?$initializer_list@VQXmlStreamAttribute@kso_qt@@@std@@@Z
??0?$QVector@VQXmlStreamAttribute@kso_qt@@@kso_qt@@QAE@XZ
??0Connection@QMetaObject@kso_qt@@AAE@PAX@Z
??0Connection@QMetaObject@kso_qt@@QAE@$$QAV012@@Z
??0Connection@QMetaObject@kso_qt@@QAE@ABV012@@Z
??0Connection@QMetaObject@kso_qt@@QAE@XZ
??0ConverterState@QTextCodec@kso_qt@@QAE@V?$QFlags@W4ConversionFlag@QTextCodec@kso_qt@@@2@@Z
??0ExceptionHolder@QtPrivate@kso_qt@@QAE@ABV012@@Z
??0ExceptionHolder@QtPrivate@kso_qt@@QAE@PAVQException@2@@Z
??0ExceptionStore@QtPrivate@kso_qt@@QAE@$$QAV012@@Z
??0ExceptionStore@QtPrivate@kso_qt@@QAE@ABV012@@Z
??0ExceptionStore@QtPrivate@kso_qt@@QAE@XZ
??0QAbstractAnimation@kso_qt@@IAE@AAVQAbstractAnimationPrivate@1@PAVQObject@1@@Z
??0QAbstractAnimation@kso_qt@@QAE@PAVQObject@1@@Z
??0QAbstractAnimationTimer@kso_qt@@QAE@XZ
??0QAbstractDynamicMetaObject@kso_qt@@QAE@ABU01@@Z
??0QAbstractDynamicMetaObject@kso_qt@@QAE@XZ
??0QAbstractEventDispatcher@kso_qt@@IAE@AAVQAbstractEventDispatcherPrivate@1@PAVQObject@1@@Z
??0QAbstractEventDispatcher@kso_qt@@QAE@PAVQObject@1@@Z
??0QAbstractEventDispatcherPrivate@kso_qt@@QAE@$$QAV01@@Z
??0QAbstractEventDispatcherPrivate@kso_qt@@QAE@ABV01@@Z
??0QAbstractEventDispatcherPrivate@kso_qt@@QAE@XZ
??0QAbstractFileEngine@kso_qt@@IAE@AAVQAbstractFileEnginePrivate@1@@Z
??0QAbstractFileEngine@kso_qt@@IAE@XZ
??0QAbstractFileEngineHandler@kso_qt@@QAE@ABV01@@Z
??0QAbstractFileEngineHandler@kso_qt@@QAE@XZ
??0QAbstractFileEngineIterator@kso_qt@@QAE@V?$QFlags@W4Filter@QDir@kso_qt@@@1@ABVQStringList@1@@Z
??0QAbstractItemModel@kso_qt@@IAE@AAVQAbstractItemModelPrivate@1@PAVQObject@1@@Z
??0QAbstractItemModel@kso_qt@@QAE@PAVQObject@1@@Z
??0QAbstractItemModelPrivate@kso_qt@@QAE@ABV01@@Z
??0QAbstractItemModelPrivate@kso_qt@@QAE@XZ
??0QAbstractListModel@kso_qt@@IAE@AAVQAbstractItemModelPrivate@1@PAVQObject@1@@Z
??0QAbstractListModel@kso_qt@@QAE@PAVQObject@1@@Z
??0QAbstractNativeEventFilter@kso_qt@@QAE@XZ
??0QAbstractProxyModel@kso_qt@@IAE@AAVQAbstractProxyModelPrivate@1@PAVQObject@1@@Z
??0QAbstractProxyModel@kso_qt@@QAE@PAVQObject@1@@Z
??0QAbstractProxyModelPrivate@kso_qt@@QAE@$$QAV01@@Z
??0QAbstractProxyModelPrivate@kso_qt@@QAE@ABV01@@Z
??0QAbstractProxyModelPrivate@kso_qt@@QAE@XZ
??0QAbstractState@kso_qt@@IAE@AAVQAbstractStatePrivate@1@PAVQState@1@@Z
??0QAbstractState@kso_qt@@IAE@PAVQState@1@@Z
??0QAbstractTableModel@kso_qt@@IAE@AAVQAbstractItemModelPrivate@1@PAVQObject@1@@Z
??0QAbstractTableModel@kso_qt@@QAE@PAVQObject@1@@Z
??0QAbstractTransition@kso_qt@@IAE@AAVQAbstractTransitionPrivate@1@PAVQState@1@@Z
??0QAbstractTransition@kso_qt@@QAE@PAVQState@1@@Z
??0QAbstractTransitionPrivate@kso_qt@@QAE@$$QAV01@@Z
??0QAbstractTransitionPrivate@kso_qt@@QAE@ABV01@@Z
??0QAbstractTransitionPrivate@kso_qt@@QAE@XZ
??0QAnimationDriver@kso_qt@@IAE@AAVQAnimationDriverPrivate@1@PAVQObject@1@@Z
??0QAnimationDriver@kso_qt@@QAE@PAVQObject@1@@Z
??0QAnimationDriverPrivate@kso_qt@@QAE@$$QAV01@@Z
??0QAnimationDriverPrivate@kso_qt@@QAE@ABV01@@Z
??0QAnimationDriverPrivate@kso_qt@@QAE@XZ
??0QAnimationGroup@kso_qt@@IAE@AAVQAnimationGroupPrivate@1@PAVQObject@1@@Z
??0QAnimationGroup@kso_qt@@QAE@PAVQObject@1@@Z
??0QArrayData@kso_qt@@QAE@XZ
??0QAssociativeIterable@kso_qt@@QAE@VQAssociativeIterableImpl@QtMetaTypePrivate@1@@Z
??0QBasicMutex@kso_qt@@QAE@XZ
??0QBasicTimer@kso_qt@@QAE@XZ
??0QBitArray@kso_qt@@QAE@$$QAV01@@Z
??0QBitArray@kso_qt@@QAE@ABV01@@Z
??0QBitArray@kso_qt@@QAE@H_N@Z
??0QBitArray@kso_qt@@QAE@XZ
??0QBitRef@kso_qt@@AAE@AAVQBitArray@1@H@Z
??0QBitRef@kso_qt@@QAE@$$QAV01@@Z
??0QBuffer@kso_qt@@QAE@PAVQByteArray@1@PAVQObject@1@@Z
??0QBuffer@kso_qt@@QAE@PAVQObject@1@@Z
??0QByteArray@kso_qt@@QAE@$$QAV01@@Z
??0QByteArray@kso_qt@@QAE@ABV01@@Z
??0QByteArray@kso_qt@@QAE@HD@Z
??0QByteArray@kso_qt@@QAE@HW4Initialization@Qt@1@@Z
??0QByteArray@kso_qt@@QAE@PBDH@Z
??0QByteArray@kso_qt@@QAE@UQByteArrayDataPtr@1@@Z
??0QByteArray@kso_qt@@QAE@XZ
??0QByteArrayMatcher@kso_qt@@QAE@ABV01@@Z
??0QByteArrayMatcher@kso_qt@@QAE@ABVQByteArray@1@@Z
??0QByteArrayMatcher@kso_qt@@QAE@PBDH@Z
??0QByteArrayMatcher@kso_qt@@QAE@XZ
??0QByteRef@kso_qt@@AAE@AAVQByteArray@1@H@Z
??0QByteRef@kso_qt@@QAE@$$QAV01@@Z
??0QCborArray@kso_qt@@AAE@AAVQCborContainerPrivate@1@@Z
??0QCborArray@kso_qt@@QAE@ABV01@@Z
??0QCborArray@kso_qt@@QAE@V?$initializer_list@VQCborValue@kso_qt@@@std@@@Z
??0QCborArray@kso_qt@@QAE@XZ
??0QCborMap@kso_qt@@AAE@AAVQCborContainerPrivate@1@@Z
??0QCborMap@kso_qt@@QAE@ABV01@@Z
??0QCborMap@kso_qt@@QAE@V?$initializer_list@U?$QPair@VQCborValue@kso_qt@@V12@@kso_qt@@@std@@@Z
??0QCborMap@kso_qt@@QAE@XZ
??0QCborStreamReader@kso_qt@@QAE@ABVQByteArray@1@@Z
??0QCborStreamReader@kso_qt@@QAE@PAVQIODevice@1@@Z
??0QCborStreamReader@kso_qt@@QAE@PBDH@Z
??0QCborStreamReader@kso_qt@@QAE@PBEH@Z
??0QCborStreamReader@kso_qt@@QAE@XZ
??0QCborStreamWriter@kso_qt@@QAE@PAVQByteArray@1@@Z
??0QCborStreamWriter@kso_qt@@QAE@PAVQIODevice@1@@Z
??0QCborValue@kso_qt@@QAE@$$QAV01@@Z
??0QCborValue@kso_qt@@QAE@$$QAVQCborArray@1@@Z
??0QCborValue@kso_qt@@QAE@$$QAVQCborMap@1@@Z
??0QCborValue@kso_qt@@QAE@$$T@Z
??0QCborValue@kso_qt@@QAE@ABV01@@Z
??0QCborValue@kso_qt@@QAE@ABVQByteArray@1@@Z
??0QCborValue@kso_qt@@QAE@ABVQCborArray@1@@Z
??0QCborValue@kso_qt@@QAE@ABVQCborMap@1@@Z
??0QCborValue@kso_qt@@QAE@ABVQDateTime@1@@Z
??0QCborValue@kso_qt@@QAE@ABVQRegularExpression@1@@Z
??0QCborValue@kso_qt@@QAE@ABVQString@1@@Z
??0QCborValue@kso_qt@@QAE@ABVQUrl@1@@Z
??0QCborValue@kso_qt@@QAE@ABVQUuid@1@@Z
??0QCborValue@kso_qt@@QAE@H@Z
??0QCborValue@kso_qt@@QAE@I@Z
??0QCborValue@kso_qt@@QAE@N@Z
??0QCborValue@kso_qt@@QAE@PBD@Z
??0QCborValue@kso_qt@@QAE@VQLatin1String@1@@Z
??0QCborValue@kso_qt@@QAE@W4QCborKnownTags@1@ABV01@@Z
??0QCborValue@kso_qt@@QAE@W4QCborSimpleType@1@@Z
??0QCborValue@kso_qt@@QAE@W4QCborTag@1@ABV01@@Z
??0QCborValue@kso_qt@@QAE@W4Type@01@@Z
??0QCborValue@kso_qt@@QAE@XZ
??0QCborValue@kso_qt@@QAE@_J@Z
??0QCborValue@kso_qt@@QAE@_N@Z
??0QCborValueRef@kso_qt@@AAE@PAVQCborContainerPrivate@1@H@Z
??0QCborValueRef@kso_qt@@AAE@XZ
??0QChar@kso_qt@@QAE@D@Z
??0QChar@kso_qt@@QAE@E@Z
??0QChar@kso_qt@@QAE@EE@Z
??0QChar@kso_qt@@QAE@F@Z
??0QChar@kso_qt@@QAE@G@Z
??0QChar@kso_qt@@QAE@H@Z
??0QChar@kso_qt@@QAE@I@Z
??0QChar@kso_qt@@QAE@UQLatin1Char@1@@Z
??0QChar@kso_qt@@QAE@W4SpecialCharacter@01@@Z
??0QChar@kso_qt@@QAE@XZ
??0QChar@kso_qt@@QAE@_S@Z
??0QChar@kso_qt@@QAE@_W@Z
??0QCharRef@kso_qt@@AAE@AAVQString@1@H@Z
??0QCharRef@kso_qt@@QAE@$$QAV01@@Z
??0QChildEvent@kso_qt@@QAE@ABV01@@Z
??0QChildEvent@kso_qt@@QAE@W4Type@QEvent@1@PAVQObject@1@@Z
??0QCollator@kso_qt@@QAE@$$QAV01@@Z
??0QCollator@kso_qt@@QAE@ABV01@@Z
??0QCollator@kso_qt@@QAE@ABVQLocale@1@@Z
??0QCollatorSortKey@kso_qt@@IAE@PAVQCollatorSortKeyPrivate@1@@Z
??0QCollatorSortKey@kso_qt@@QAE@ABV01@@Z
??0QCommandLineOption@kso_qt@@QAE@ABV01@@Z
??0QCommandLineOption@kso_qt@@QAE@ABVQString@1@000@Z
??0QCommandLineOption@kso_qt@@QAE@ABVQString@1@@Z
??0QCommandLineOption@kso_qt@@QAE@ABVQStringList@1@@Z
??0QCommandLineOption@kso_qt@@QAE@ABVQStringList@1@ABVQString@1@11@Z
??0QCommandLineParser@kso_qt@@QAE@XZ
??0QConfFile@kso_qt@@AAE@ABVQString@1@_N@Z
??0QContiguousCacheData@kso_qt@@QAE@XZ
??0QCoreApplication@kso_qt@@IAE@AAVQCoreApplicationPrivate@1@@Z
??0QCoreApplication@kso_qt@@QAE@AAHPAPADH@Z
??0QCoreApplicationPrivate@kso_qt@@QAE@AAHPAPADI@Z
??0QCryptographicHash@kso_qt@@QAE@W4Algorithm@01@@Z
??0QDaemonThread@kso_qt@@QAE@PAVQObject@1@@Z
??0QDataStream@kso_qt@@QAE@ABVQByteArray@1@@Z
??0QDataStream@kso_qt@@QAE@PAVQByteArray@1@V?$QFlags@W4OpenModeFlag@QIODevice@kso_qt@@@1@@Z
??0QDataStream@kso_qt@@QAE@PAVQIODevice@1@@Z
??0QDataStream@kso_qt@@QAE@XZ
??0QDate@kso_qt@@AAE@_J@Z
??0QDate@kso_qt@@QAE@HHH@Z
??0QDate@kso_qt@@QAE@XZ
??0QDateTime@kso_qt@@QAE@$$QAV01@@Z
??0QDateTime@kso_qt@@QAE@ABV01@@Z
??0QDateTime@kso_qt@@QAE@ABVQDate@1@@Z
??0QDateTime@kso_qt@@QAE@ABVQDate@1@ABVQTime@1@ABVQTimeZone@1@@Z
??0QDateTime@kso_qt@@QAE@ABVQDate@1@ABVQTime@1@W4TimeSpec@Qt@1@@Z
??0QDateTime@kso_qt@@QAE@ABVQDate@1@ABVQTime@1@W4TimeSpec@Qt@1@H@Z
??0QDateTime@kso_qt@@QAE@XZ
??0QDateTimeParser@kso_qt@@QAE@ABV01@@Z
??0QDateTimeParser@kso_qt@@QAE@W4Type@QVariant@1@W4Context@01@@Z
??0QDeadlineTimer@kso_qt@@QAE@W4ForeverConstant@01@W4TimerType@Qt@1@@Z
??0QDeadlineTimer@kso_qt@@QAE@W4TimerType@Qt@1@@Z
??0QDeadlineTimer@kso_qt@@QAE@_JW4TimerType@Qt@1@@Z
??0QDebug@kso_qt@@QAE@ABV01@@Z
??0QDebug@kso_qt@@QAE@PAVQIODevice@1@@Z
??0QDebug@kso_qt@@QAE@PAVQString@1@@Z
??0QDebug@kso_qt@@QAE@W4QtMsgType@1@@Z
??0QDebugStateSaver@kso_qt@@QAE@AAVQDebug@1@@Z
??0QDeferredDeleteEvent@kso_qt@@QAE@ABV01@@Z
??0QDeferredDeleteEvent@kso_qt@@QAE@XZ
??0QDir@kso_qt@@IAE@AAVQDirPrivate@1@@Z
??0QDir@kso_qt@@QAE@ABV01@@Z
??0QDir@kso_qt@@QAE@ABVQString@1@0V?$QFlags@W4SortFlag@QDir@kso_qt@@@1@V?$QFlags@W4Filter@QDir@kso_qt@@@1@@Z
??0QDir@kso_qt@@QAE@ABVQString@1@@Z
??0QDirIterator@kso_qt@@QAE@ABVQDir@1@V?$QFlags@W4IteratorFlag@QDirIterator@kso_qt@@@1@@Z
??0QDirIterator@kso_qt@@QAE@ABVQString@1@ABVQStringList@1@V?$QFlags@W4Filter@QDir@kso_qt@@@1@V?$QFlags@W4IteratorFlag@QDirIterator@kso_qt@@@1@@Z
??0QDirIterator@kso_qt@@QAE@ABVQString@1@V?$QFlags@W4Filter@QDir@kso_qt@@@1@V?$QFlags@W4IteratorFlag@QDirIterator@kso_qt@@@1@@Z
??0QDirIterator@kso_qt@@QAE@ABVQString@1@V?$QFlags@W4IteratorFlag@QDirIterator@kso_qt@@@1@@Z
??0QDynamicMetaObjectData@kso_qt@@QAE@ABU01@@Z
??0QDynamicMetaObjectData@kso_qt@@QAE@XZ
??0QDynamicPropertyChangeEvent@kso_qt@@QAE@ABV01@@Z
??0QDynamicPropertyChangeEvent@kso_qt@@QAE@ABVQByteArray@1@@Z
??0QEasingCurve@kso_qt@@QAE@$$QAV01@@Z
??0QEasingCurve@kso_qt@@QAE@ABV01@@Z
??0QEasingCurve@kso_qt@@QAE@W4Type@01@@Z
??0QElapsedTimer@kso_qt@@QAE@XZ
??0QEvent@kso_qt@@QAE@ABV01@@Z
??0QEvent@kso_qt@@QAE@W4Type@01@@Z
??0QEventDispatcherWin32@kso_qt@@IAE@AAVQEventDispatcherWin32Private@1@PAVQObject@1@@Z
??0QEventDispatcherWin32@kso_qt@@QAE@PAVQObject@1@@Z
??0QEventDispatcherWin32Private@kso_qt@@QAE@ABV01@@Z
??0QEventDispatcherWin32Private@kso_qt@@QAE@XZ
??0QEventLoop@kso_qt@@QAE@PAVQObject@1@@Z
??0QEventLoopLocker@kso_qt@@QAE@PAVQEventLoop@1@@Z
??0QEventLoopLocker@kso_qt@@QAE@PAVQThread@1@@Z
??0QEventLoopLocker@kso_qt@@QAE@XZ
??0QEventTransition@kso_qt@@IAE@AAVQEventTransitionPrivate@1@PAVQObject@1@W4Type@QEvent@1@PAVQState@1@@Z
??0QEventTransition@kso_qt@@IAE@AAVQEventTransitionPrivate@1@PAVQState@1@@Z
??0QEventTransition@kso_qt@@QAE@PAVQObject@1@W4Type@QEvent@1@PAVQState@1@@Z
??0QEventTransition@kso_qt@@QAE@PAVQState@1@@Z
??0QEventTransitionPrivate@kso_qt@@QAE@ABV01@@Z
??0QEventTransitionPrivate@kso_qt@@QAE@XZ
??0QException@kso_qt@@QAE@ABV01@@Z
??0QException@kso_qt@@QAE@XZ
??0QFSFileEngine@kso_qt@@IAE@AAVQFSFileEnginePrivate@1@@Z
??0QFSFileEngine@kso_qt@@QAE@ABVQString@1@@Z
??0QFSFileEngine@kso_qt@@QAE@XZ
??0QFSFileEnginePrivate@kso_qt@@IAE@XZ
??0QFSFileEnginePrivate@kso_qt@@QAE@$$QAV01@@Z
??0QFSFileEnginePrivate@kso_qt@@QAE@ABV01@@Z
??0QFactoryInterface@kso_qt@@QAE@ABU01@@Z
??0QFactoryInterface@kso_qt@@QAE@XZ
??0QFactoryLoader@kso_qt@@QAE@PBDABVQString@1@W4CaseSensitivity@Qt@1@@Z
??0QFile@kso_qt@@IAE@AAVQFilePrivate@1@PAVQObject@1@@Z
??0QFile@kso_qt@@QAE@ABVQString@1@@Z
??0QFile@kso_qt@@QAE@ABVQString@1@PAVQObject@1@@Z
??0QFile@kso_qt@@QAE@PAVQObject@1@@Z
??0QFile@kso_qt@@QAE@XZ
??0QFileDevice@kso_qt@@IAE@AAVQFileDevicePrivate@1@PAVQObject@1@@Z
??0QFileDevice@kso_qt@@IAE@PAVQObject@1@@Z
??0QFileDevice@kso_qt@@IAE@XZ
??0QFileInfo@kso_qt@@QAE@ABV01@@Z
??0QFileInfo@kso_qt@@QAE@ABVQDir@1@ABVQString@1@@Z
??0QFileInfo@kso_qt@@QAE@ABVQFile@1@@Z
??0QFileInfo@kso_qt@@QAE@ABVQString@1@@Z
??0QFileInfo@kso_qt@@QAE@PAVQFileInfoPrivate@1@@Z
??0QFileInfo@kso_qt@@QAE@XZ
??0QFileSelector@kso_qt@@QAE@PAVQObject@1@@Z
??0QFileSelectorPrivate@kso_qt@@QAE@$$QAV01@@Z
??0QFileSelectorPrivate@kso_qt@@QAE@ABV01@@Z
??0QFileSelectorPrivate@kso_qt@@QAE@XZ
??0QFileSystemMetaData@kso_qt@@QAE@XZ
??0QFileSystemWatcher@kso_qt@@QAE@ABVQStringList@1@PAVQObject@1@@Z
??0QFileSystemWatcher@kso_qt@@QAE@HPAVQObject@1@@Z
??0QFileSystemWatcher@kso_qt@@QAE@PAVQObject@1@@Z
??0QFinalState@kso_qt@@IAE@AAVQFinalStatePrivate@1@PAVQState@1@@Z
??0QFinalState@kso_qt@@QAE@PAVQState@1@@Z
??0QFinalStatePrivate@kso_qt@@QAE@ABV01@@Z
??0QFinalStatePrivate@kso_qt@@QAE@XZ
??0QFutureInterfaceBase@kso_qt@@QAE@ABV01@@Z
??0QFutureInterfaceBase@kso_qt@@QAE@W4State@01@@Z
??0QFutureWatcherBase@kso_qt@@QAE@PAVQObject@1@@Z
??0QGenericArgument@kso_qt@@QAE@PBDPBX@Z
??0QGenericReturnArgument@kso_qt@@QAE@PBDPAX@Z
??0QHashData@kso_qt@@QAE@XZ
??0QHistoryState@kso_qt@@QAE@PAVQState@1@@Z
??0QHistoryState@kso_qt@@QAE@W4HistoryType@01@PAVQState@1@@Z
??0QIODevice@kso_qt@@IAE@AAVQIODevicePrivate@1@PAVQObject@1@@Z
??0QIODevice@kso_qt@@QAE@PAVQObject@1@@Z
??0QIODevice@kso_qt@@QAE@XZ
??0QIODevicePrivate@kso_qt@@QAE@ABV01@@Z
??0QIODevicePrivate@kso_qt@@QAE@XZ
??0QIdentityProxyModel@kso_qt@@IAE@AAVQIdentityProxyModelPrivate@1@PAVQObject@1@@Z
??0QIdentityProxyModel@kso_qt@@QAE@PAVQObject@1@@Z
??0QItemSelection@kso_qt@@QAE@$$QAV01@@Z
??0QItemSelection@kso_qt@@QAE@ABV01@@Z
??0QItemSelection@kso_qt@@QAE@ABVQModelIndex@1@0@Z
??0QItemSelection@kso_qt@@QAE@XZ
??0QItemSelectionModel@kso_qt@@IAE@AAVQItemSelectionModelPrivate@1@PAVQAbstractItemModel@1@@Z
??0QItemSelectionModel@kso_qt@@QAE@PAVQAbstractItemModel@1@@Z
??0QItemSelectionModel@kso_qt@@QAE@PAVQAbstractItemModel@1@PAVQObject@1@@Z
??0QItemSelectionRange@kso_qt@@QAE@$$QAV01@@Z
??0QItemSelectionRange@kso_qt@@QAE@ABV01@@Z
??0QItemSelectionRange@kso_qt@@QAE@ABVQModelIndex@1@0@Z
??0QItemSelectionRange@kso_qt@@QAE@ABVQModelIndex@1@@Z
??0QItemSelectionRange@kso_qt@@QAE@XZ
??0QJsonArray@kso_qt@@AAE@PAVData@QJsonPrivate@1@PAVArray@31@@Z
??0QJsonArray@kso_qt@@QAE@$$QAV01@@Z
??0QJsonArray@kso_qt@@QAE@ABV01@@Z
??0QJsonArray@kso_qt@@QAE@V?$initializer_list@VQJsonValue@kso_qt@@@std@@@Z
??0QJsonArray@kso_qt@@QAE@XZ
??0QJsonDocument@kso_qt@@AAE@PAVData@QJsonPrivate@1@@Z
??0QJsonDocument@kso_qt@@QAE@$$QAV01@@Z
??0QJsonDocument@kso_qt@@QAE@ABV01@@Z
??0QJsonDocument@kso_qt@@QAE@ABVQJsonArray@1@@Z
??0QJsonDocument@kso_qt@@QAE@ABVQJsonObject@1@@Z
??0QJsonDocument@kso_qt@@QAE@XZ
??0QJsonObject@kso_qt@@AAE@PAVData@QJsonPrivate@1@PAVObject@31@@Z
??0QJsonObject@kso_qt@@QAE@$$QAV01@@Z
??0QJsonObject@kso_qt@@QAE@ABV01@@Z
??0QJsonObject@kso_qt@@QAE@V?$initializer_list@U?$QPair@VQString@kso_qt@@VQJsonValue@2@@kso_qt@@@std@@@Z
??0QJsonObject@kso_qt@@QAE@XZ
??0QJsonValue@kso_qt@@AAE@PAVData@QJsonPrivate@1@PAVBase@31@ABVValue@31@@Z
??0QJsonValue@kso_qt@@AAE@PBX@Z
??0QJsonValue@kso_qt@@QAE@$$QAV01@@Z
??0QJsonValue@kso_qt@@QAE@ABV01@@Z
??0QJsonValue@kso_qt@@QAE@ABVQJsonArray@1@@Z
??0QJsonValue@kso_qt@@QAE@ABVQJsonObject@1@@Z
??0QJsonValue@kso_qt@@QAE@ABVQString@1@@Z
??0QJsonValue@kso_qt@@QAE@H@Z
??0QJsonValue@kso_qt@@QAE@N@Z
??0QJsonValue@kso_qt@@QAE@PBD@Z
??0QJsonValue@kso_qt@@QAE@VQLatin1String@1@@Z
??0QJsonValue@kso_qt@@QAE@W4Type@01@@Z
??0QJsonValue@kso_qt@@QAE@_J@Z
??0QJsonValue@kso_qt@@QAE@_N@Z
??0QJsonValueRef@kso_qt@@QAE@$$QAV01@@Z
??0QJsonValueRef@kso_qt@@QAE@PAVQJsonArray@1@H@Z
??0QJsonValueRef@kso_qt@@QAE@PAVQJsonObject@1@H@Z
??0QLibrary@kso_qt@@QAE@ABVQString@1@0PAVQObject@1@@Z
??0QLibrary@kso_qt@@QAE@ABVQString@1@HPAVQObject@1@@Z
??0QLibrary@kso_qt@@QAE@ABVQString@1@PAVQObject@1@@Z
??0QLibrary@kso_qt@@QAE@PAVQObject@1@@Z
??0QLibraryInfo@kso_qt@@AAE@XZ
??0QLine@kso_qt@@QAE@ABVQPoint@1@0@Z
??0QLine@kso_qt@@QAE@HHHH@Z
??0QLine@kso_qt@@QAE@XZ
??0QLineF@kso_qt@@QAE@ABVQLine@1@@Z
??0QLineF@kso_qt@@QAE@ABVQPointF@1@0@Z
??0QLineF@kso_qt@@QAE@NNNN@Z
??0QLineF@kso_qt@@QAE@XZ
??0QLocale@kso_qt@@AAE@AAVQLocalePrivate@1@@Z
??0QLocale@kso_qt@@QAE@ABV01@@Z
??0QLocale@kso_qt@@QAE@ABVQString@1@@Z
??0QLocale@kso_qt@@QAE@W4Language@01@W4Country@01@@Z
??0QLocale@kso_qt@@QAE@W4Language@01@W4Script@01@W4Country@01@@Z
??0QLocale@kso_qt@@QAE@XZ
??0QLocalePrivate@kso_qt@@QAE@XZ
??0QLockFile@kso_qt@@QAE@ABVQString@1@@Z
??0QLoggingCategory@kso_qt@@QAE@PBD@Z
??0QLoggingCategory@kso_qt@@QAE@PBDW4QtMsgType@1@@Z
??0QLoggingRegistry@kso_qt@@QAE@XZ
??0QLoggingRule@kso_qt@@QAE@$$QAV01@@Z
??0QLoggingRule@kso_qt@@QAE@ABV01@@Z
??0QLoggingRule@kso_qt@@QAE@ABVQStringRef@1@_N@Z
??0QLoggingRule@kso_qt@@QAE@XZ
??0QLoggingSettingsParser@kso_qt@@QAE@$$QAV01@@Z
??0QLoggingSettingsParser@kso_qt@@QAE@ABV01@@Z
??0QLoggingSettingsParser@kso_qt@@QAE@XZ
??0QMapDataBase@kso_qt@@QAE@XZ
??0QMessageAuthenticationCode@kso_qt@@QAE@W4Algorithm@QCryptographicHash@1@ABVQByteArray@1@@Z
??0QMessageLogger@kso_qt@@QAE@PBDH00@Z
??0QMessageLogger@kso_qt@@QAE@PBDH0@Z
??0QMessageLogger@kso_qt@@QAE@XZ
??0QMetaCallEvent@kso_qt@@QAE@ABV01@@Z
??0QMetaCallEvent@kso_qt@@QAE@GGP6AXPAVQObject@1@W4Call@QMetaObject@1@HPAPAX@ZPBV21@HHPAH2PAVQSemaphore@1@@Z
??0QMetaCallEvent@kso_qt@@QAE@PAVQSlotObjectBase@QtPrivate@1@PBVQObject@1@HHPAHPAPAXPAVQSemaphore@1@@Z
??0QMetaClassInfo@kso_qt@@QAE@XZ
??0QMetaEnum@kso_qt@@QAE@XZ
??0QMetaEnumBuilder@kso_qt@@AAE@PBVQMetaObjectBuilder@1@H@Z
??0QMetaEnumBuilder@kso_qt@@QAE@XZ
??0QMetaMethod@kso_qt@@QAE@XZ
??0QMetaMethodBuilder@kso_qt@@AAE@PBVQMetaObjectBuilder@1@H@Z
??0QMetaMethodBuilder@kso_qt@@QAE@XZ
??0QMetaObjectBuilder@kso_qt@@QAE@PBUQMetaObject@1@V?$QFlags@W4AddMember@QMetaObjectBuilder@kso_qt@@@1@@Z
??0QMetaObjectBuilder@kso_qt@@QAE@XZ
??0QMetaProperty@kso_qt@@QAE@XZ
??0QMetaPropertyBuilder@kso_qt@@AAE@PBVQMetaObjectBuilder@1@H@Z
??0QMetaPropertyBuilder@kso_qt@@QAE@XZ
??0QMetaStringTable@kso_qt@@QAE@$$QAV01@@Z
??0QMetaStringTable@kso_qt@@QAE@ABV01@@Z
??0QMetaStringTable@kso_qt@@QAE@ABVQByteArray@1@@Z
??0QMetaType@kso_qt@@AAE@ABV01@@Z
??0QMetaType@kso_qt@@AAE@W4ExtensionFlag@01@PBVQMetaTypeInterface@1@P6APAXHPAXPBX@ZP6AXH2@ZP6AXAAVQDataStream@1@3@ZP6AX62@ZP6APAX23@ZP6AX2@ZIIHPBUQMetaObject@1@@Z
??0QMetaType@kso_qt@@QAE@H@Z
??0QMimeData@kso_qt@@QAE@XZ
??0QMimeDatabase@kso_qt@@QAE@XZ
??0QMimeType@kso_qt@@QAE@ABV01@@Z
??0QMimeType@kso_qt@@QAE@ABVQMimeTypePrivate@1@@Z
??0QMimeType@kso_qt@@QAE@XZ
??0QMimeTypePrivate@kso_qt@@QAE@$$QAV01@@Z
??0QMimeTypePrivate@kso_qt@@QAE@ABV01@@Z
??0QMimeTypePrivate@kso_qt@@QAE@ABVQMimeType@1@@Z
??0QMimeTypePrivate@kso_qt@@QAE@XZ
??0QModelIndex@kso_qt@@AAE@HHIPBVQAbstractItemModel@1@@Z
??0QModelIndex@kso_qt@@AAE@HHPAXPBVQAbstractItemModel@1@@Z
??0QModelIndex@kso_qt@@QAE@XZ
??0QMutex@kso_qt@@QAE@W4RecursionMode@01@@Z
??0QMutexLocker@kso_qt@@QAE@PAVQBasicMutex@1@@Z
??0QMutexPool@kso_qt@@QAE@ABV01@@Z
??0QMutexPool@kso_qt@@QAE@W4RecursionMode@QMutex@1@H@Z
??0QNonContiguousByteDevice@kso_qt@@IAE@XZ
??0QObject@kso_qt@@IAE@AAVQObjectPrivate@1@PAV01@@Z
??0QObject@kso_qt@@QAE@PAV01@@Z
??0QObjectCleanupHandler@kso_qt@@QAE@XZ
??0QObjectData@kso_qt@@QAE@ABV01@@Z
??0QObjectData@kso_qt@@QAE@XZ
??0QObjectPrivate@kso_qt@@QAE@ABV01@@Z
??0QObjectPrivate@kso_qt@@QAE@H@Z
??0QObjectUserData@kso_qt@@QAE@ABV01@@Z
??0QObjectUserData@kso_qt@@QAE@XZ
??0QOperatingSystemVersion@kso_qt@@QAE@W4OSType@01@HHH@Z
??0QParallelAnimationGroup@kso_qt@@IAE@AAVQParallelAnimationGroupPrivate@1@PAVQObject@1@@Z
??0QParallelAnimationGroup@kso_qt@@QAE@PAVQObject@1@@Z
??0QPauseAnimation@kso_qt@@QAE@HPAVQObject@1@@Z
??0QPauseAnimation@kso_qt@@QAE@PAVQObject@1@@Z
??0QPersistentModelIndex@kso_qt@@QAE@$$QAV01@@Z
??0QPersistentModelIndex@kso_qt@@QAE@ABV01@@Z
??0QPersistentModelIndex@kso_qt@@QAE@ABVQModelIndex@1@@Z
??0QPersistentModelIndex@kso_qt@@QAE@XZ
??0QPluginLoader@kso_qt@@QAE@ABVQString@1@PAVQObject@1@@Z
??0QPluginLoader@kso_qt@@QAE@PAVQObject@1@@Z
??0QPoint@kso_qt@@QAE@HH@Z
??0QPoint@kso_qt@@QAE@XZ
??0QPointF@kso_qt@@QAE@ABVQPoint@1@@Z
??0QPointF@kso_qt@@QAE@NN@Z
??0QPointF@kso_qt@@QAE@XZ
??0QProcess@kso_qt@@QAE@PAVQObject@1@@Z
??0QProcessEnvironment@kso_qt@@QAE@ABV01@@Z
??0QProcessEnvironment@kso_qt@@QAE@XZ
??0QPropertyAnimation@kso_qt@@QAE@PAVQObject@1@@Z
??0QPropertyAnimation@kso_qt@@QAE@PAVQObject@1@ABVQByteArray@1@0@Z
??0QRandomGenerator@kso_qt@@QAE@AAVseed_seq@std@@@Z
??0QRandomGenerator@kso_qt@@QAE@ABV01@@Z
??0QRandomGenerator@kso_qt@@QAE@PBI0@Z
??0QReadLocker@kso_qt@@QAE@PAVQReadWriteLock@1@@Z
??0QReadWriteLock@kso_qt@@QAE@W4RecursionMode@01@@Z
??0QRect@kso_qt@@QAE@ABVQPoint@1@0@Z
??0QRect@kso_qt@@QAE@ABVQPoint@1@ABVQSize@1@@Z
??0QRect@kso_qt@@QAE@HHHH@Z
??0QRect@kso_qt@@QAE@XZ
??0QRectF@kso_qt@@QAE@ABVQPointF@1@0@Z
??0QRectF@kso_qt@@QAE@ABVQPointF@1@ABVQSizeF@1@@Z
??0QRectF@kso_qt@@QAE@ABVQRect@1@@Z
??0QRectF@kso_qt@@QAE@NNNN@Z
??0QRectF@kso_qt@@QAE@XZ
??0QRegExp@kso_qt@@QAE@ABV01@@Z
??0QRegExp@kso_qt@@QAE@ABVQString@1@W4CaseSensitivity@Qt@1@W4PatternSyntax@01@@Z
??0QRegExp@kso_qt@@QAE@XZ
??0QRegularExpression@kso_qt@@AAE@AAUQRegularExpressionPrivate@1@@Z
??0QRegularExpression@kso_qt@@QAE@ABV01@@Z
??0QRegularExpression@kso_qt@@QAE@ABVQString@1@V?$QFlags@W4PatternOption@QRegularExpression@kso_qt@@@1@@Z
??0QRegularExpression@kso_qt@@QAE@XZ
??0QRegularExpressionMatch@kso_qt@@AAE@AAUQRegularExpressionMatchPrivate@1@@Z
??0QRegularExpressionMatch@kso_qt@@QAE@ABV01@@Z
??0QRegularExpressionMatch@kso_qt@@QAE@XZ
??0QRegularExpressionMatchIterator@kso_qt@@AAE@AAUQRegularExpressionMatchIteratorPrivate@1@@Z
??0QRegularExpressionMatchIterator@kso_qt@@QAE@ABV01@@Z
??0QRegularExpressionMatchIterator@kso_qt@@QAE@XZ
??0QResource@kso_qt@@QAE@ABVQString@1@ABVQLocale@1@@Z
??0QRunnable@kso_qt@@QAE@ABV01@@Z
??0QRunnable@kso_qt@@QAE@XZ
??0QSaveFile@kso_qt@@QAE@ABVQString@1@@Z
??0QSaveFile@kso_qt@@QAE@ABVQString@1@PAVQObject@1@@Z
??0QSaveFile@kso_qt@@QAE@PAVQObject@1@@Z
??0QSemaphore@kso_qt@@QAE@H@Z
??0QSequentialAnimationGroup@kso_qt@@IAE@AAVQSequentialAnimationGroupPrivate@1@PAVQObject@1@@Z
??0QSequentialAnimationGroup@kso_qt@@QAE@PAVQObject@1@@Z
??0QSequentialIterable@kso_qt@@QAE@VQSequentialIterableImpl@QtMetaTypePrivate@1@@Z
??0QSettings@kso_qt@@QAE@ABVQString@1@0PAVQObject@1@@Z
??0QSettings@kso_qt@@QAE@ABVQString@1@W4Format@01@PAVQObject@1@@Z
??0QSettings@kso_qt@@QAE@PAVQObject@1@@Z
??0QSettings@kso_qt@@QAE@W4Format@01@W4Scope@01@ABVQString@1@2PAVQObject@1@@Z
??0QSettings@kso_qt@@QAE@W4Scope@01@ABVQString@1@1PAVQObject@1@@Z
??0QSettingsPrivate@kso_qt@@QAE@ABV01@@Z
??0QSettingsPrivate@kso_qt@@QAE@W4Format@QSettings@1@@Z
??0QSettingsPrivate@kso_qt@@QAE@W4Format@QSettings@1@W4Scope@31@ABVQString@1@2@Z
??0QSharedData@kso_qt@@QAE@ABV01@@Z
??0QSharedData@kso_qt@@QAE@XZ
??0QSharedMemory@kso_qt@@QAE@ABVQString@1@PAVQObject@1@@Z
??0QSharedMemory@kso_qt@@QAE@PAVQObject@1@@Z
??0QSharedMemoryPrivate@kso_qt@@QAE@XZ
??0QSignalMapper@kso_qt@@QAE@PAVQObject@1@@Z
??0QSignalTransition@kso_qt@@QAE@PAVQState@1@@Z
??0QSignalTransition@kso_qt@@QAE@PBVQObject@1@PBDPAVQState@1@@Z
??0QSize@kso_qt@@QAE@HH@Z
??0QSize@kso_qt@@QAE@XZ
??0QSizeF@kso_qt@@QAE@ABVQSize@1@@Z
??0QSizeF@kso_qt@@QAE@NN@Z
??0QSizeF@kso_qt@@QAE@XZ
??0QSocketNotifier@kso_qt@@QAE@HW4Type@01@PAVQObject@1@@Z
??0QSortFilterProxyModel@kso_qt@@QAE@PAVQObject@1@@Z
??0QState@kso_qt@@IAE@AAVQStatePrivate@1@PAV01@@Z
??0QState@kso_qt@@QAE@PAV01@@Z
??0QState@kso_qt@@QAE@W4ChildMode@01@PAV01@@Z
??0QStateMachine@kso_qt@@IAE@AAVQStateMachinePrivate@1@PAVQObject@1@@Z
??0QStateMachine@kso_qt@@QAE@PAVQObject@1@@Z
??0QStateMachine@kso_qt@@QAE@W4ChildMode@QState@1@PAVQObject@1@@Z
??0QStateMachinePrivate@kso_qt@@QAE@XZ
??0QStatePrivate@kso_qt@@QAE@ABV01@@Z
??0QStatePrivate@kso_qt@@QAE@XZ
??0QStorageInfo@kso_qt@@QAE@ABV01@@Z
??0QStorageInfo@kso_qt@@QAE@ABVQDir@1@@Z
??0QStorageInfo@kso_qt@@QAE@ABVQString@1@@Z
??0QStorageInfo@kso_qt@@QAE@XZ
??0QString@kso_qt@@QAE@$$QAV01@@Z
??0QString@kso_qt@@QAE@ABUNull@01@@Z
??0QString@kso_qt@@QAE@ABV01@@Z
??0QString@kso_qt@@QAE@ABVQByteArray@1@@Z
??0QString@kso_qt@@QAE@HVQChar@1@@Z
??0QString@kso_qt@@QAE@HW4Initialization@Qt@1@@Z
??0QString@kso_qt@@QAE@PBD@Z
??0QString@kso_qt@@QAE@PBVQChar@1@H@Z
??0QString@kso_qt@@QAE@UQStringDataPtr@1@@Z
??0QString@kso_qt@@QAE@VQChar@1@@Z
??0QString@kso_qt@@QAE@VQLatin1String@1@@Z
??0QString@kso_qt@@QAE@XZ
??0QStringListModel@kso_qt@@QAE@ABVQStringList@1@PAVQObject@1@@Z
??0QStringListModel@kso_qt@@QAE@PAVQObject@1@@Z
??0QStringMatcher@kso_qt@@QAE@ABV01@@Z
??0QStringMatcher@kso_qt@@QAE@ABVQString@1@W4CaseSensitivity@Qt@1@@Z
??0QStringMatcher@kso_qt@@QAE@PBVQChar@1@HW4CaseSensitivity@Qt@1@@Z
??0QStringMatcher@kso_qt@@QAE@XZ
??0QStringRef@kso_qt@@QAE@$$QAV01@@Z
??0QStringRef@kso_qt@@QAE@ABV01@@Z
??0QStringRef@kso_qt@@QAE@PBVQString@1@@Z
??0QStringRef@kso_qt@@QAE@PBVQString@1@HH@Z
??0QStringRef@kso_qt@@QAE@XZ
??0QSystemLocale@kso_qt@@AAE@_N@Z
??0QSystemLocale@kso_qt@@QAE@ABV01@@Z
??0QSystemLocale@kso_qt@@QAE@XZ
??0QSystemSemaphore@kso_qt@@QAE@ABVQString@1@HW4AccessMode@01@@Z
??0QTemporaryDir@kso_qt@@QAE@ABVQString@1@@Z
??0QTemporaryDir@kso_qt@@QAE@XZ
??0QTemporaryFile@kso_qt@@QAE@ABVQString@1@@Z
??0QTemporaryFile@kso_qt@@QAE@ABVQString@1@PAVQObject@1@@Z
??0QTemporaryFile@kso_qt@@QAE@PAVQObject@1@@Z
??0QTemporaryFile@kso_qt@@QAE@XZ
??0QTextBoundaryFinder@kso_qt@@QAE@ABV01@@Z
??0QTextBoundaryFinder@kso_qt@@QAE@W4BoundaryType@01@ABVQString@1@@Z
??0QTextBoundaryFinder@kso_qt@@QAE@W4BoundaryType@01@PBVQChar@1@HPAEH@Z
??0QTextBoundaryFinder@kso_qt@@QAE@XZ
??0QTextCodec@kso_qt@@IAE@XZ
??0QTextDecoder@kso_qt@@QAE@PBVQTextCodec@1@@Z
??0QTextDecoder@kso_qt@@QAE@PBVQTextCodec@1@V?$QFlags@W4ConversionFlag@QTextCodec@kso_qt@@@1@@Z
??0QTextEncoder@kso_qt@@QAE@PBVQTextCodec@1@@Z
??0QTextEncoder@kso_qt@@QAE@PBVQTextCodec@1@V?$QFlags@W4ConversionFlag@QTextCodec@kso_qt@@@1@@Z
??0QTextStream@kso_qt@@QAE@ABVQByteArray@1@V?$QFlags@W4OpenModeFlag@QIODevice@kso_qt@@@1@@Z
??0QTextStream@kso_qt@@QAE@PAU_iobuf@@V?$QFlags@W4OpenModeFlag@QIODevice@kso_qt@@@1@@Z
??0QTextStream@kso_qt@@QAE@PAVQByteArray@1@V?$QFlags@W4OpenModeFlag@QIODevice@kso_qt@@@1@@Z
??0QTextStream@kso_qt@@QAE@PAVQIODevice@1@@Z
??0QTextStream@kso_qt@@QAE@PAVQString@1@V?$QFlags@W4OpenModeFlag@QIODevice@kso_qt@@@1@@Z
??0QTextStream@kso_qt@@QAE@XZ
??0QTextStreamManipulator@kso_qt@@QAE@P8QTextStream@1@AEXH@ZH@Z
??0QTextStreamManipulator@kso_qt@@QAE@P8QTextStream@1@AEXVQChar@1@@Z0@Z
??0QThread@kso_qt@@IAE@AAVQThreadPrivate@1@PAVQObject@1@@Z
??0QThread@kso_qt@@QAE@PAVQObject@1@@Z
??0QThreadPool@kso_qt@@QAE@PAVQObject@1@@Z
??0QThreadPoolPrivate@kso_qt@@QAE@XZ
??0QThreadStorageData@kso_qt@@QAE@P6AXPAX@Z@Z
??0QTime@kso_qt@@AAE@H@Z
??0QTime@kso_qt@@QAE@HHHH@Z
??0QTime@kso_qt@@QAE@XZ
??0QTimeLine@kso_qt@@QAE@HPAVQObject@1@@Z
??0QTimeZone@kso_qt@@AAE@AAVQTimeZonePrivate@1@@Z
??0QTimeZone@kso_qt@@QAE@ABV01@@Z
??0QTimeZone@kso_qt@@QAE@ABVQByteArray@1@@Z
??0QTimeZone@kso_qt@@QAE@ABVQByteArray@1@HABVQString@1@1W4Country@QLocale@1@1@Z
??0QTimeZone@kso_qt@@QAE@H@Z
??0QTimeZone@kso_qt@@QAE@XZ
??0QTimeZonePrivate@kso_qt@@QAE@ABV01@@Z
??0QTimeZonePrivate@kso_qt@@QAE@XZ
??0QTimer@kso_qt@@QAE@PAVQObject@1@@Z
??0QTimerEvent@kso_qt@@QAE@ABV01@@Z
??0QTimerEvent@kso_qt@@QAE@H@Z
??0QTranslator@kso_qt@@QAE@PAVQObject@1@@Z
??0QUnhandledException@kso_qt@@QAE@ABV01@@Z
??0QUnhandledException@kso_qt@@QAE@XZ
??0QUnifiedTimer@kso_qt@@AAE@XZ
??0QUrl@kso_qt@@QAE@$$QAV01@@Z
??0QUrl@kso_qt@@QAE@ABV01@@Z
??0QUrl@kso_qt@@QAE@ABVQString@1@W4ParsingMode@01@@Z
??0QUrl@kso_qt@@QAE@XZ
??0QUrlQuery@kso_qt@@QAE@ABV01@@Z
??0QUrlQuery@kso_qt@@QAE@ABVQString@1@@Z
??0QUrlQuery@kso_qt@@QAE@ABVQUrl@1@@Z
??0QUrlQuery@kso_qt@@QAE@XZ
??0QUtcTimeZonePrivate@kso_qt@@QAE@ABV01@@Z
??0QUtcTimeZonePrivate@kso_qt@@QAE@ABVQByteArray@1@@Z
??0QUtcTimeZonePrivate@kso_qt@@QAE@ABVQByteArray@1@HABVQString@1@1W4Country@QLocale@1@1@Z
??0QUtcTimeZonePrivate@kso_qt@@QAE@H@Z
??0QUtcTimeZonePrivate@kso_qt@@QAE@XZ
??0QUuid@kso_qt@@AAE@W4Initialization@Qt@1@@Z
??0QUuid@kso_qt@@QAE@ABU_GUID@@@Z
??0QUuid@kso_qt@@QAE@ABVQByteArray@1@@Z
??0QUuid@kso_qt@@QAE@ABVQString@1@@Z
??0QUuid@kso_qt@@QAE@IGGEEEEEEEE@Z
??0QUuid@kso_qt@@QAE@PBD@Z
??0QUuid@kso_qt@@QAE@XZ
??0QVariant@kso_qt@@QAE@$$QAV01@@Z
??0QVariant@kso_qt@@QAE@AAVQDataStream@1@@Z
??0QVariant@kso_qt@@QAE@ABV01@@Z
??0QVariant@kso_qt@@QAE@ABV?$QHash@VQString@kso_qt@@VQVariant@2@@1@@Z
??0QVariant@kso_qt@@QAE@ABV?$QList@VQVariant@kso_qt@@@1@@Z
??0QVariant@kso_qt@@QAE@ABV?$QMap@VQString@kso_qt@@VQVariant@2@@1@@Z
??0QVariant@kso_qt@@QAE@ABVQBitArray@1@@Z
??0QVariant@kso_qt@@QAE@ABVQByteArray@1@@Z
??0QVariant@kso_qt@@QAE@ABVQDate@1@@Z
??0QVariant@kso_qt@@QAE@ABVQDateTime@1@@Z
??0QVariant@kso_qt@@QAE@ABVQEasingCurve@1@@Z
??0QVariant@kso_qt@@QAE@ABVQJsonArray@1@@Z
??0QVariant@kso_qt@@QAE@ABVQJsonDocument@1@@Z
??0QVariant@kso_qt@@QAE@ABVQJsonObject@1@@Z
??0QVariant@kso_qt@@QAE@ABVQJsonValue@1@@Z
??0QVariant@kso_qt@@QAE@ABVQLine@1@@Z
??0QVariant@kso_qt@@QAE@ABVQLineF@1@@Z
??0QVariant@kso_qt@@QAE@ABVQLocale@1@@Z
??0QVariant@kso_qt@@QAE@ABVQModelIndex@1@@Z
??0QVariant@kso_qt@@QAE@ABVQPersistentModelIndex@1@@Z
??0QVariant@kso_qt@@QAE@ABVQPoint@1@@Z
??0QVariant@kso_qt@@QAE@ABVQPointF@1@@Z
??0QVariant@kso_qt@@QAE@ABVQRect@1@@Z
??0QVariant@kso_qt@@QAE@ABVQRectF@1@@Z
??0QVariant@kso_qt@@QAE@ABVQRegExp@1@@Z
??0QVariant@kso_qt@@QAE@ABVQRegularExpression@1@@Z
??0QVariant@kso_qt@@QAE@ABVQSize@1@@Z
??0QVariant@kso_qt@@QAE@ABVQSizeF@1@@Z
??0QVariant@kso_qt@@QAE@ABVQString@1@@Z
??0QVariant@kso_qt@@QAE@ABVQStringList@1@@Z
??0QVariant@kso_qt@@QAE@ABVQTime@1@@Z
??0QVariant@kso_qt@@QAE@ABVQUrl@1@@Z
??0QVariant@kso_qt@@QAE@ABVQUuid@1@@Z
??0QVariant@kso_qt@@QAE@H@Z
??0QVariant@kso_qt@@QAE@HPBX@Z
??0QVariant@kso_qt@@QAE@HPBXI@Z
??0QVariant@kso_qt@@QAE@I@Z
??0QVariant@kso_qt@@QAE@M@Z
??0QVariant@kso_qt@@QAE@N@Z
??0QVariant@kso_qt@@QAE@PBD@Z
??0QVariant@kso_qt@@QAE@VQChar@1@@Z
??0QVariant@kso_qt@@QAE@VQLatin1String@1@@Z
??0QVariant@kso_qt@@QAE@W4Type@01@@Z
??0QVariant@kso_qt@@QAE@XZ
??0QVariant@kso_qt@@QAE@_J@Z
??0QVariant@kso_qt@@QAE@_K@Z
??0QVariant@kso_qt@@QAE@_N@Z
??0QVariantAnimation@kso_qt@@IAE@AAVQVariantAnimationPrivate@1@PAVQObject@1@@Z
??0QVariantAnimation@kso_qt@@QAE@PAVQObject@1@@Z
??0QWaitCondition@kso_qt@@QAE@XZ
??0QWinEventNotifier@kso_qt@@QAE@PAVQObject@1@@Z
??0QWinEventNotifier@kso_qt@@QAE@PAXPAVQObject@1@@Z
??0QWinTimeZonePrivate@kso_qt@@QAE@ABV01@@Z
??0QWinTimeZonePrivate@kso_qt@@QAE@ABVQByteArray@1@@Z
??0QWinTimeZonePrivate@kso_qt@@QAE@XZ
??0QWindowsPipeReader@kso_qt@@QAE@PAVQObject@1@@Z
??0QWindowsPipeWriter@kso_qt@@QAE@PAXPAVQObject@1@@Z
??0QWriteLocker@kso_qt@@QAE@PAVQReadWriteLock@1@@Z
??0QXmlStreamAttribute@kso_qt@@QAE@$$QAV01@@Z
??0QXmlStreamAttribute@kso_qt@@QAE@ABV01@@Z
??0QXmlStreamAttribute@kso_qt@@QAE@ABVQString@1@00@Z
??0QXmlStreamAttribute@kso_qt@@QAE@ABVQString@1@0@Z
??0QXmlStreamAttribute@kso_qt@@QAE@XZ
??0QXmlStreamAttributes@kso_qt@@QAE@$$QAV01@@Z
??0QXmlStreamAttributes@kso_qt@@QAE@ABV01@@Z
??0QXmlStreamAttributes@kso_qt@@QAE@XZ
??0QXmlStreamEntityDeclaration@kso_qt@@QAE@$$QAV01@@Z
??0QXmlStreamEntityDeclaration@kso_qt@@QAE@ABV01@@Z
??0QXmlStreamEntityDeclaration@kso_qt@@QAE@XZ
??0QXmlStreamEntityResolver@kso_qt@@QAE@ABV01@@Z
??0QXmlStreamEntityResolver@kso_qt@@QAE@XZ
??0QXmlStreamNamespaceDeclaration@kso_qt@@QAE@$$QAV01@@Z
??0QXmlStreamNamespaceDeclaration@kso_qt@@QAE@ABV01@@Z
??0QXmlStreamNamespaceDeclaration@kso_qt@@QAE@ABVQString@1@0@Z
??0QXmlStreamNamespaceDeclaration@kso_qt@@QAE@XZ
??0QXmlStreamNotationDeclaration@kso_qt@@QAE@$$QAV01@@Z
??0QXmlStreamNotationDeclaration@kso_qt@@QAE@ABV01@@Z
??0QXmlStreamNotationDeclaration@kso_qt@@QAE@XZ
??0QXmlStreamReader@kso_qt@@QAE@ABVQByteArray@1@@Z
??0QXmlStreamReader@kso_qt@@QAE@ABVQString@1@@Z
??0QXmlStreamReader@kso_qt@@QAE@PAVQIODevice@1@@Z
??0QXmlStreamReader@kso_qt@@QAE@PBD@Z
??0QXmlStreamReader@kso_qt@@QAE@XZ
??0QXmlStreamStringRef@kso_qt@@QAE@$$QAV01@@Z
??0QXmlStreamStringRef@kso_qt@@QAE@$$QAVQString@1@@Z
??0QXmlStreamStringRef@kso_qt@@QAE@ABV01@@Z
??0QXmlStreamStringRef@kso_qt@@QAE@ABVQString@1@@Z
??0QXmlStreamStringRef@kso_qt@@QAE@ABVQStringRef@1@@Z
??0QXmlStreamStringRef@kso_qt@@QAE@XZ
??0QXmlStreamWriter@kso_qt@@QAE@PAVQByteArray@1@@Z
??0QXmlStreamWriter@kso_qt@@QAE@PAVQIODevice@1@@Z
??0QXmlStreamWriter@kso_qt@@QAE@PAVQString@1@@Z
??0QXmlStreamWriter@kso_qt@@QAE@XZ
??0ResultIteratorBase@QtPrivate@kso_qt@@QAE@Vconst_iterator@?$QMap@HVResultItem@QtPrivate@kso_qt@@@2@H@Z
??0ResultIteratorBase@QtPrivate@kso_qt@@QAE@XZ
??0ResultStoreBase@QtPrivate@kso_qt@@QAE@ABV012@@Z
??0ResultStoreBase@QtPrivate@kso_qt@@QAE@XZ
??0SignalEvent@QStateMachine@kso_qt@@QAE@ABV012@@Z
??0SignalEvent@QStateMachine@kso_qt@@QAE@PAVQObject@2@HABV?$QList@VQVariant@kso_qt@@@2@@Z
??0WrappedEvent@QStateMachine@kso_qt@@QAE@ABV012@@Z
??0WrappedEvent@QStateMachine@kso_qt@@QAE@PAVQObject@2@PAVQEvent@2@@Z
??0const_iterator@QAssociativeIterable@kso_qt@@AAE@ABV12@PAVQAtomicInt@2@@Z
??0const_iterator@QAssociativeIterable@kso_qt@@AAE@ABVQAssociativeIterableImpl@QtMetaTypePrivate@2@PAVQAtomicInt@2@@Z
??0const_iterator@QAssociativeIterable@kso_qt@@QAE@ABU012@@Z
??0const_iterator@QSequentialIterable@kso_qt@@AAE@ABV12@PAVQAtomicInt@2@@Z
??0const_iterator@QSequentialIterable@kso_qt@@AAE@ABVQSequentialIterableImpl@QtMetaTypePrivate@2@PAVQAtomicInt@2@@Z
??0const_iterator@QSequentialIterable@kso_qt@@QAE@ABU012@@Z
??1?$QList@VQItemSelectionRange@kso_qt@@@kso_qt@@QAE@XZ
??1?$QListSpecialMethods@VQItemSelectionRange@kso_qt@@@kso_qt@@IAE@XZ
??1?$QVector@VQPoint@kso_qt@@@kso_qt@@QAE@XZ
??1?$QVector@VQPointF@kso_qt@@@kso_qt@@QAE@XZ
??1?$QVector@VQXmlStreamAttribute@kso_qt@@@kso_qt@@QAE@XZ
??1Connection@QMetaObject@kso_qt@@QAE@XZ
??1ConverterState@QTextCodec@kso_qt@@QAE@XZ
??1ExceptionHolder@QtPrivate@kso_qt@@QAE@XZ
??1ExceptionStore@QtPrivate@kso_qt@@QAE@XZ
??1QAbstractAnimation@kso_qt@@UAE@XZ
??1QAbstractAnimationTimer@kso_qt@@UAE@XZ
??1QAbstractDynamicMetaObject@kso_qt@@UAE@XZ
??1QAbstractEventDispatcher@kso_qt@@UAE@XZ
??1QAbstractEventDispatcherPrivate@kso_qt@@UAE@XZ
??1QAbstractFileEngine@kso_qt@@UAE@XZ
??1QAbstractFileEngineHandler@kso_qt@@UAE@XZ
??1QAbstractFileEngineIterator@kso_qt@@UAE@XZ
??1QAbstractItemModel@kso_qt@@UAE@XZ
??1QAbstractItemModelPrivate@kso_qt@@UAE@XZ
??1QAbstractListModel@kso_qt@@UAE@XZ
??1QAbstractNativeEventFilter@kso_qt@@UAE@XZ
??1QAbstractProxyModel@kso_qt@@UAE@XZ
??1QAbstractProxyModelPrivate@kso_qt@@UAE@XZ
??1QAbstractState@kso_qt@@UAE@XZ
??1QAbstractTableModel@kso_qt@@UAE@XZ
??1QAbstractTransition@kso_qt@@UAE@XZ
??1QAbstractTransitionPrivate@kso_qt@@UAE@XZ
??1QAnimationDriver@kso_qt@@UAE@XZ
??1QAnimationDriverPrivate@kso_qt@@UAE@XZ
??1QAnimationGroup@kso_qt@@UAE@XZ
??1QBasicTimer@kso_qt@@QAE@XZ
??1QBitArray@kso_qt@@QAE@XZ
??1QBuffer@kso_qt@@UAE@XZ
??1QByteArray@kso_qt@@QAE@XZ
??1QByteArrayMatcher@kso_qt@@QAE@XZ
??1QCborArray@kso_qt@@QAE@XZ
??1QCborMap@kso_qt@@QAE@XZ
??1QCborStreamReader@kso_qt@@QAE@XZ
??1QCborStreamWriter@kso_qt@@QAE@XZ
??1QCborValue@kso_qt@@QAE@XZ
??1QChildEvent@kso_qt@@UAE@XZ
??1QCollator@kso_qt@@QAE@XZ
??1QCollatorSortKey@kso_qt@@QAE@XZ
??1QCommandLineOption@kso_qt@@QAE@XZ
??1QCommandLineParser@kso_qt@@QAE@XZ
??1QConfFile@kso_qt@@QAE@XZ
??1QCoreApplication@kso_qt@@UAE@XZ
??1QCoreApplicationPrivate@kso_qt@@UAE@XZ
??1QCryptographicHash@kso_qt@@QAE@XZ
??1QDaemonThread@kso_qt@@UAE@XZ
??1QDataStream@kso_qt@@QAE@XZ
??1QDateTime@kso_qt@@QAE@XZ
??1QDateTimeParser@kso_qt@@UAE@XZ
??1QDebug@kso_qt@@QAE@XZ
??1QDebugStateSaver@kso_qt@@QAE@XZ
??1QDeferredDeleteEvent@kso_qt@@UAE@XZ
??1QDir@kso_qt@@QAE@XZ
??1QDirIterator@kso_qt@@QAE@XZ
??1QDynamicMetaObjectData@kso_qt@@UAE@XZ
??1QDynamicPropertyChangeEvent@kso_qt@@UAE@XZ
??1QEasingCurve@kso_qt@@QAE@XZ
??1QEvent@kso_qt@@UAE@XZ
??1QEventDispatcherWin32@kso_qt@@UAE@XZ
??1QEventDispatcherWin32Private@kso_qt@@UAE@XZ
??1QEventLoop@kso_qt@@UAE@XZ
??1QEventLoopLocker@kso_qt@@QAE@XZ
??1QEventTransition@kso_qt@@UAE@XZ
??1QEventTransitionPrivate@kso_qt@@UAE@XZ
??1QException@kso_qt@@UAE@XZ
??1QFSFileEngine@kso_qt@@UAE@XZ
??1QFSFileEnginePrivate@kso_qt@@UAE@XZ
??1QFactoryInterface@kso_qt@@UAE@XZ
??1QFactoryLoader@kso_qt@@UAE@XZ
??1QFile@kso_qt@@UAE@XZ
??1QFileDevice@kso_qt@@UAE@XZ
??1QFileInfo@kso_qt@@QAE@XZ
??1QFileSelector@kso_qt@@UAE@XZ
??1QFileSelectorPrivate@kso_qt@@UAE@XZ
??1QFileSystemWatcher@kso_qt@@UAE@XZ
??1QFinalState@kso_qt@@UAE@XZ
??1QFinalStatePrivate@kso_qt@@UAE@XZ
??1QFutureInterfaceBase@kso_qt@@UAE@XZ
??1QFutureWatcherBase@kso_qt@@UAE@XZ
??1QHistoryState@kso_qt@@UAE@XZ
??1QIODevice@kso_qt@@UAE@XZ
??1QIODevicePrivate@kso_qt@@UAE@XZ
??1QIdentityProxyModel@kso_qt@@UAE@XZ
??1QItemSelection@kso_qt@@QAE@XZ
??1QItemSelectionModel@kso_qt@@UAE@XZ
??1QItemSelectionRange@kso_qt@@QAE@XZ
??1QJsonArray@kso_qt@@QAE@XZ
??1QJsonDocument@kso_qt@@QAE@XZ
??1QJsonObject@kso_qt@@QAE@XZ
??1QJsonValue@kso_qt@@QAE@XZ
??1QLibrary@kso_qt@@UAE@XZ
??1QLocale@kso_qt@@QAE@XZ
??1QLocalePrivate@kso_qt@@QAE@XZ
??1QLockFile@kso_qt@@QAE@XZ
??1QLoggingCategory@kso_qt@@QAE@XZ
??1QLoggingRegistry@kso_qt@@QAE@XZ
??1QLoggingRule@kso_qt@@QAE@XZ
??1QLoggingSettingsParser@kso_qt@@QAE@XZ
??1QMessageAuthenticationCode@kso_qt@@QAE@XZ
??1QMetaCallEvent@kso_qt@@UAE@XZ
??1QMetaObjectBuilder@kso_qt@@UAE@XZ
??1QMetaStringTable@kso_qt@@QAE@XZ
??1QMetaType@kso_qt@@QAE@XZ
??1QMimeData@kso_qt@@UAE@XZ
??1QMimeDatabase@kso_qt@@QAE@XZ
??1QMimeType@kso_qt@@QAE@XZ
??1QMimeTypePrivate@kso_qt@@QAE@XZ
??1QMutex@kso_qt@@QAE@XZ
??1QMutexLocker@kso_qt@@QAE@XZ
??1QMutexPool@kso_qt@@QAE@XZ
??1QNonContiguousByteDevice@kso_qt@@UAE@XZ
??1QObject@kso_qt@@UAE@XZ
??1QObjectCleanupHandler@kso_qt@@UAE@XZ
??1QObjectData@kso_qt@@UAE@XZ
??1QObjectPrivate@kso_qt@@UAE@XZ
??1QObjectUserData@kso_qt@@UAE@XZ
??1QParallelAnimationGroup@kso_qt@@UAE@XZ
??1QPauseAnimation@kso_qt@@UAE@XZ
??1QPersistentModelIndex@kso_qt@@QAE@XZ
??1QPluginLoader@kso_qt@@UAE@XZ
??1QProcess@kso_qt@@UAE@XZ
??1QProcessEnvironment@kso_qt@@QAE@XZ
??1QPropertyAnimation@kso_qt@@UAE@XZ
??1QReadLocker@kso_qt@@QAE@XZ
??1QReadWriteLock@kso_qt@@QAE@XZ
??1QRegExp@kso_qt@@QAE@XZ
??1QRegularExpression@kso_qt@@QAE@XZ
??1QRegularExpressionMatch@kso_qt@@QAE@XZ
??1QRegularExpressionMatchIterator@kso_qt@@QAE@XZ
??1QResource@kso_qt@@QAE@XZ
??1QRunnable@kso_qt@@UAE@XZ
??1QSaveFile@kso_qt@@UAE@XZ
??1QSemaphore@kso_qt@@QAE@XZ
??1QSequentialAnimationGroup@kso_qt@@UAE@XZ
??1QSettings@kso_qt@@UAE@XZ
??1QSettingsPrivate@kso_qt@@UAE@XZ
??1QSharedMemory@kso_qt@@UAE@XZ
??1QSharedMemoryPrivate@kso_qt@@UAE@XZ
??1QSignalMapper@kso_qt@@UAE@XZ
??1QSignalTransition@kso_qt@@UAE@XZ
??1QSocketNotifier@kso_qt@@UAE@XZ
??1QSortFilterProxyModel@kso_qt@@UAE@XZ
??1QState@kso_qt@@UAE@XZ
??1QStateMachine@kso_qt@@UAE@XZ
??1QStateMachinePrivate@kso_qt@@UAE@XZ
??1QStatePrivate@kso_qt@@UAE@XZ
??1QStorageInfo@kso_qt@@QAE@XZ
??1QString@kso_qt@@QAE@XZ
??1QStringListModel@kso_qt@@UAE@XZ
??1QStringMatcher@kso_qt@@QAE@XZ
??1QStringRef@kso_qt@@QAE@XZ
??1QSystemLocale@kso_qt@@UAE@XZ
??1QSystemSemaphore@kso_qt@@QAE@XZ
??1QTemporaryDir@kso_qt@@QAE@XZ
??1QTemporaryFile@kso_qt@@UAE@XZ
??1QTextBoundaryFinder@kso_qt@@QAE@XZ
??1QTextCodec@kso_qt@@MAE@XZ
??1QTextDecoder@kso_qt@@QAE@XZ
??1QTextEncoder@kso_qt@@QAE@XZ
??1QTextStream@kso_qt@@UAE@XZ
??1QThread@kso_qt@@UAE@XZ
??1QThreadPool@kso_qt@@UAE@XZ
??1QThreadPoolPrivate@kso_qt@@UAE@XZ
??1QThreadStorageData@kso_qt@@QAE@XZ
??1QTimeLine@kso_qt@@UAE@XZ
??1QTimeZone@kso_qt@@QAE@XZ
??1QTimeZonePrivate@kso_qt@@UAE@XZ
??1QTimer@kso_qt@@UAE@XZ
??1QTimerEvent@kso_qt@@UAE@XZ
??1QTranslator@kso_qt@@UAE@XZ
??1QUnhandledException@kso_qt@@UAE@XZ
??1QUnifiedTimer@kso_qt@@UAE@XZ
??1QUrl@kso_qt@@QAE@XZ
??1QUrlQuery@kso_qt@@QAE@XZ
??1QUtcTimeZonePrivate@kso_qt@@UAE@XZ
??1QVariant@kso_qt@@QAE@XZ
??1QVariantAnimation@kso_qt@@UAE@XZ
??1QWaitCondition@kso_qt@@QAE@XZ
??1QWinEventNotifier@kso_qt@@UAE@XZ
??1QWinTimeZonePrivate@kso_qt@@UAE@XZ
??1QWindowsPipeReader@kso_qt@@UAE@XZ
??1QWindowsPipeWriter@kso_qt@@UAE@XZ
??1QWriteLocker@kso_qt@@QAE@XZ
??1QXmlStreamAttribute@kso_qt@@QAE@XZ
??1QXmlStreamAttributes@kso_qt@@QAE@XZ
??1QXmlStreamEntityDeclaration@kso_qt@@QAE@XZ
??1QXmlStreamEntityResolver@kso_qt@@UAE@XZ
??1QXmlStreamNamespaceDeclaration@kso_qt@@QAE@XZ
??1QXmlStreamNotationDeclaration@kso_qt@@QAE@XZ
??1QXmlStreamReader@kso_qt@@QAE@XZ
??1QXmlStreamStringRef@kso_qt@@QAE@XZ
??1QXmlStreamWriter@kso_qt@@QAE@XZ
??1ResultStoreBase@QtPrivate@kso_qt@@UAE@XZ
??1SignalEvent@QStateMachine@kso_qt@@UAE@XZ
??1WrappedEvent@QStateMachine@kso_qt@@UAE@XZ
??1const_iterator@QAssociativeIterable@kso_qt@@QAE@XZ
??1const_iterator@QSequentialIterable@kso_qt@@QAE@XZ
??4?$QList@VQItemSelectionRange@kso_qt@@@kso_qt@@QAEAAV01@$$QAV01@@Z
??4?$QList@VQItemSelectionRange@kso_qt@@@kso_qt@@QAEAAV01@ABV01@@Z
??4?$QListSpecialMethods@VQItemSelectionRange@kso_qt@@@kso_qt@@QAEAAU01@ABU01@@Z
??4?$QVector@VQPoint@kso_qt@@@kso_qt@@QAEAAV01@$$QAV01@@Z
??4?$QVector@VQPoint@kso_qt@@@kso_qt@@QAEAAV01@ABV01@@Z
??4?$QVector@VQPointF@kso_qt@@@kso_qt@@QAEAAV01@$$QAV01@@Z
??4?$QVector@VQPointF@kso_qt@@@kso_qt@@QAEAAV01@ABV01@@Z
??4?$QVector@VQXmlStreamAttribute@kso_qt@@@kso_qt@@QAEAAV01@$$QAV01@@Z
??4?$QVector@VQXmlStreamAttribute@kso_qt@@@kso_qt@@QAEAAV01@ABV01@@Z
??4Connection@QMetaObject@kso_qt@@QAEAAV012@$$QAV012@@Z
??4Connection@QMetaObject@kso_qt@@QAEAAV012@ABV012@@Z
??4ExceptionHolder@QtPrivate@kso_qt@@QAEXABV012@@Z
??4ExceptionStore@QtPrivate@kso_qt@@QAEAAV012@$$QAV012@@Z
??4ExceptionStore@QtPrivate@kso_qt@@QAEAAV012@ABV012@@Z
??4QAbstractConcatenable@kso_qt@@QAEAAU01@$$QAU01@@Z
??4QAbstractConcatenable@kso_qt@@QAEAAU01@ABU01@@Z
??4QAbstractDeclarativeData@kso_qt@@QAEAAV01@$$QAV01@@Z
??4QAbstractDeclarativeData@kso_qt@@QAEAAV01@ABV01@@Z
??4QAbstractDynamicMetaObject@kso_qt@@QAEAAU01@ABU01@@Z
??4QAbstractEventDispatcherPrivate@kso_qt@@QAEAAV01@$$QAV01@@Z
??4QAbstractEventDispatcherPrivate@kso_qt@@QAEAAV01@ABV01@@Z
??4QAbstractFileEngineHandler@kso_qt@@QAEAAV01@ABV01@@Z
??4QAbstractItemModelPrivate@kso_qt@@QAEAAV01@ABV01@@Z
??4QAbstractProxyModelPrivate@kso_qt@@QAEAAV01@$$QAV01@@Z
??4QAbstractProxyModelPrivate@kso_qt@@QAEAAV01@ABV01@@Z
??4QAbstractTransitionPrivate@kso_qt@@QAEAAV01@$$QAV01@@Z
??4QAbstractTransitionPrivate@kso_qt@@QAEAAV01@ABV01@@Z
??4QAnimationDriverPrivate@kso_qt@@QAEAAV01@$$QAV01@@Z
??4QAnimationDriverPrivate@kso_qt@@QAEAAV01@ABV01@@Z
??4QAssociativeIterable@kso_qt@@QAEAAV01@$$QAV01@@Z
??4QAssociativeIterable@kso_qt@@QAEAAV01@ABV01@@Z
??4QBasicTimer@kso_qt@@QAEAAV01@ABV01@@Z
??4QBitArray@kso_qt@@QAEAAV01@$$QAV01@@Z
??4QBitArray@kso_qt@@QAEAAV01@ABV01@@Z
??4QBitRef@kso_qt@@QAEAAV01@ABV01@@Z
??4QBitRef@kso_qt@@QAEAAV01@_N@Z
??4QByteArray@kso_qt@@QAEAAV01@$$QAV01@@Z
??4QByteArray@kso_qt@@QAEAAV01@ABV01@@Z
??4QByteArray@kso_qt@@QAEAAV01@PBD@Z
??4QByteArrayMatcher@kso_qt@@QAEAAV01@ABV01@@Z
??4QByteRef@kso_qt@@QAEAAV01@ABV01@@Z
??4QByteRef@kso_qt@@QAEAAV01@D@Z
??4QCborArray@kso_qt@@QAEAAV01@ABV01@@Z
??4QCborError@kso_qt@@QAEAAU01@$$QAU01@@Z
??4QCborError@kso_qt@@QAEAAU01@ABU01@@Z
??4QCborMap@kso_qt@@QAEAAV01@ABV01@@Z
??4QCborValue@kso_qt@@QAEAAV01@$$QAV01@@Z
??4QCborValue@kso_qt@@QAEAAV01@ABV01@@Z
??4QCborValueRef@kso_qt@@QAEAAV01@$$QAVQCborValue@1@@Z
??4QCborValueRef@kso_qt@@QAEAAV01@ABV01@@Z
??4QCborValueRef@kso_qt@@QAEAAV01@ABVQCborValue@1@@Z
??4QChar@kso_qt@@QAEAAV01@$$QAV01@@Z
??4QChar@kso_qt@@QAEAAV01@ABV01@@Z
??4QCharRef@kso_qt@@QAEAAV01@ABV01@@Z
??4QCharRef@kso_qt@@QAEAAV01@D@Z
??4QCharRef@kso_qt@@QAEAAV01@E@Z
??4QCharRef@kso_qt@@QAEAAV01@F@Z
??4QCharRef@kso_qt@@QAEAAV01@G@Z
??4QCharRef@kso_qt@@QAEAAV01@H@Z
??4QCharRef@kso_qt@@QAEAAV01@I@Z
??4QCharRef@kso_qt@@QAEAAV01@VQChar@1@@Z
??4QChildEvent@kso_qt@@QAEAAV01@ABV01@@Z
??4QCollator@kso_qt@@QAEAAV01@$$QAV01@@Z
??4QCollator@kso_qt@@QAEAAV01@ABV01@@Z
??4QCollatorSortKey@kso_qt@@QAEAAV01@$$QAV01@@Z
??4QCollatorSortKey@kso_qt@@QAEAAV01@ABV01@@Z
??4QCommandLineOption@kso_qt@@QAEAAV01@$$QAV01@@Z
??4QCommandLineOption@kso_qt@@QAEAAV01@ABV01@@Z
??4QContainerImplHelper@QtPrivate@kso_qt@@QAEAAU012@$$QAU012@@Z
??4QContainerImplHelper@QtPrivate@kso_qt@@QAEAAU012@ABU012@@Z
??4QDate@kso_qt@@QAEAAV01@$$QAV01@@Z
??4QDate@kso_qt@@QAEAAV01@ABV01@@Z
??4QDateTime@kso_qt@@QAEAAV01@$$QAV01@@Z
??4QDateTime@kso_qt@@QAEAAV01@ABV01@@Z
??4QDateTimeParser@kso_qt@@QAEAAV01@ABV01@@Z
??4QDeadlineTimer@kso_qt@@QAEAAV01@$$QAV01@@Z
??4QDeadlineTimer@kso_qt@@QAEAAV01@ABV01@@Z
??4QDebug@kso_qt@@QAEAAV01@ABV01@@Z
??4QDeferredDeleteEvent@kso_qt@@QAEAAV01@ABV01@@Z
??4QDir@kso_qt@@QAEAAV01@$$QAV01@@Z
??4QDir@kso_qt@@QAEAAV01@ABV01@@Z
??4QDir@kso_qt@@QAEAAV01@ABVQString@1@@Z
??4QDynamicMetaObjectData@kso_qt@@QAEAAU01@ABU01@@Z
??4QDynamicPropertyChangeEvent@kso_qt@@QAEAAV01@ABV01@@Z
??4QEasingCurve@kso_qt@@QAEAAV01@$$QAV01@@Z
??4QEasingCurve@kso_qt@@QAEAAV01@ABV01@@Z
??4QElapsedTimer@kso_qt@@QAEAAV01@$$QAV01@@Z
??4QElapsedTimer@kso_qt@@QAEAAV01@ABV01@@Z
??4QEvent@kso_qt@@QAEAAV01@ABV01@@Z
??4QEventDispatcherWin32Private@kso_qt@@QAEAAV01@ABV01@@Z
??4QEventTransitionPrivate@kso_qt@@QAEAAV01@ABV01@@Z
??4QException@kso_qt@@QAEAAV01@ABV01@@Z
??4QFSFileEnginePrivate@kso_qt@@QAEAAV01@$$QAV01@@Z
??4QFSFileEnginePrivate@kso_qt@@QAEAAV01@ABV01@@Z
??4QFactoryInterface@kso_qt@@QAEAAU01@ABU01@@Z
??4QFileInfo@kso_qt@@QAEAAV01@$$QAV01@@Z
??4QFileInfo@kso_qt@@QAEAAV01@ABV01@@Z
??4QFileSelectorPrivate@kso_qt@@QAEAAV01@$$QAV01@@Z
??4QFileSelectorPrivate@kso_qt@@QAEAAV01@ABV01@@Z
??4QFileSystemMetaData@kso_qt@@QAEAAV01@$$QAV01@@Z
??4QFileSystemMetaData@kso_qt@@QAEAAV01@ABV01@@Z
??4QFinalStatePrivate@kso_qt@@QAEAAV01@ABV01@@Z
??4QFreeListDefaultConstants@kso_qt@@QAEAAU01@$$QAU01@@Z
??4QFreeListDefaultConstants@kso_qt@@QAEAAU01@ABU01@@Z
??4QFutureInterfaceBase@kso_qt@@QAEAAV01@ABV01@@Z
??4QGenericArgument@kso_qt@@QAEAAV01@$$QAV01@@Z
??4QGenericArgument@kso_qt@@QAEAAV01@ABV01@@Z
??4QGenericReturnArgument@kso_qt@@QAEAAV01@$$QAV01@@Z
??4QGenericReturnArgument@kso_qt@@QAEAAV01@ABV01@@Z
??4QIODevicePrivate@kso_qt@@QAEAAV01@ABV01@@Z
??4QInternal@kso_qt@@QAEAAV01@$$QAV01@@Z
??4QInternal@kso_qt@@QAEAAV01@ABV01@@Z
??4QItemSelection@kso_qt@@QAEAAV01@$$QAV01@@Z
??4QItemSelection@kso_qt@@QAEAAV01@ABV01@@Z
??4QItemSelectionRange@kso_qt@@QAEAAV01@$$QAV01@@Z
??4QItemSelectionRange@kso_qt@@QAEAAV01@ABV01@@Z
??4QJsonArray@kso_qt@@QAEAAV01@$$QAV01@@Z
??4QJsonArray@kso_qt@@QAEAAV01@ABV01@@Z
??4QJsonDocument@kso_qt@@QAEAAV01@$$QAV01@@Z
??4QJsonDocument@kso_qt@@QAEAAV01@ABV01@@Z
??4QJsonObject@kso_qt@@QAEAAV01@$$QAV01@@Z
??4QJsonObject@kso_qt@@QAEAAV01@ABV01@@Z
??4QJsonParseError@kso_qt@@QAEAAU01@$$QAU01@@Z
??4QJsonParseError@kso_qt@@QAEAAU01@ABU01@@Z
??4QJsonValue@kso_qt@@QAEAAV01@$$QAV01@@Z
??4QJsonValue@kso_qt@@QAEAAV01@ABV01@@Z
??4QJsonValueRef@kso_qt@@QAEAAV01@ABV01@@Z
??4QJsonValueRef@kso_qt@@QAEAAV01@ABVQJsonValue@1@@Z
??4QLibraryInfo@kso_qt@@QAEAAV01@$$QAV01@@Z
??4QLibraryInfo@kso_qt@@QAEAAV01@ABV01@@Z
??4QLine@kso_qt@@QAEAAV01@$$QAV01@@Z
??4QLine@kso_qt@@QAEAAV01@ABV01@@Z
??4QLineF@kso_qt@@QAEAAV01@$$QAV01@@Z
??4QLineF@kso_qt@@QAEAAV01@ABV01@@Z
??4QListData@kso_qt@@QAEAAU01@$$QAU01@@Z
??4QListData@kso_qt@@QAEAAU01@ABU01@@Z
??4QLocale@kso_qt@@QAEAAV01@$$QAV01@@Z
??4QLocale@kso_qt@@QAEAAV01@ABV01@@Z
??4QLoggingRule@kso_qt@@QAEAAV01@$$QAV01@@Z
??4QLoggingRule@kso_qt@@QAEAAV01@ABV01@@Z
??4QLoggingSettingsParser@kso_qt@@QAEAAV01@$$QAV01@@Z
??4QLoggingSettingsParser@kso_qt@@QAEAAV01@ABV01@@Z
??4QMapNodeBase@kso_qt@@QAEAAU01@$$QAU01@@Z
??4QMapNodeBase@kso_qt@@QAEAAU01@ABU01@@Z
??4QMetaCallEvent@kso_qt@@QAEAAV01@ABV01@@Z
??4QMetaClassInfo@kso_qt@@QAEAAV01@$$QAV01@@Z
??4QMetaClassInfo@kso_qt@@QAEAAV01@ABV01@@Z
??4QMetaEnum@kso_qt@@QAEAAV01@$$QAV01@@Z
??4QMetaEnum@kso_qt@@QAEAAV01@ABV01@@Z
??4QMetaEnumBuilder@kso_qt@@QAEAAV01@$$QAV01@@Z
??4QMetaEnumBuilder@kso_qt@@QAEAAV01@ABV01@@Z
??4QMetaMethod@kso_qt@@QAEAAV01@$$QAV01@@Z
??4QMetaMethod@kso_qt@@QAEAAV01@ABV01@@Z
??4QMetaMethodBuilder@kso_qt@@QAEAAV01@$$QAV01@@Z
??4QMetaMethodBuilder@kso_qt@@QAEAAV01@ABV01@@Z
??4QMetaObject@kso_qt@@QAEAAU01@$$QAU01@@Z
??4QMetaObject@kso_qt@@QAEAAU01@ABU01@@Z
??4QMetaProperty@kso_qt@@QAEAAV01@$$QAV01@@Z
??4QMetaProperty@kso_qt@@QAEAAV01@ABV01@@Z
??4QMetaPropertyBuilder@kso_qt@@QAEAAV01@$$QAV01@@Z
??4QMetaPropertyBuilder@kso_qt@@QAEAAV01@ABV01@@Z
??4QMetaStringTable@kso_qt@@QAEAAV01@$$QAV01@@Z
??4QMetaStringTable@kso_qt@@QAEAAV01@ABV01@@Z
??4QMetaType@kso_qt@@AAEAAV01@ABV01@@Z
??4QMimeType@kso_qt@@QAEAAV01@$$QAV01@@Z
??4QMimeType@kso_qt@@QAEAAV01@ABV01@@Z
??4QModelIndex@kso_qt@@QAEAAV01@$$QAV01@@Z
??4QModelIndex@kso_qt@@QAEAAV01@ABV01@@Z
??4QMutexPool@kso_qt@@QAEAAV01@ABV01@@Z
??4QNonContiguousByteDeviceFactory@kso_qt@@QAEAAV01@$$QAV01@@Z
??4QNonContiguousByteDeviceFactory@kso_qt@@QAEAAV01@ABV01@@Z
??4QObjectData@kso_qt@@QAEAAV01@ABV01@@Z
??4QObjectPrivate@kso_qt@@QAEAAV01@ABV01@@Z
??4QObjectUserData@kso_qt@@QAEAAV01@ABV01@@Z
??4QOperatingSystemVersion@kso_qt@@QAEAAV01@$$QAV01@@Z
??4QOperatingSystemVersion@kso_qt@@QAEAAV01@ABV01@@Z
??4QPersistentModelIndex@kso_qt@@QAEAAV01@$$QAV01@@Z
??4QPersistentModelIndex@kso_qt@@QAEAAV01@ABV01@@Z
??4QPersistentModelIndex@kso_qt@@QAEAAV01@ABVQModelIndex@1@@Z
??4QPoint@kso_qt@@QAEAAV01@$$QAV01@@Z
??4QPoint@kso_qt@@QAEAAV01@ABV01@@Z
??4QPointF@kso_qt@@QAEAAV01@$$QAV01@@Z
??4QPointF@kso_qt@@QAEAAV01@ABV01@@Z
??4QProcessEnvironment@kso_qt@@QAEAAV01@$$QAV01@@Z
??4QProcessEnvironment@kso_qt@@QAEAAV01@ABV01@@Z
??4QRandomGenerator@kso_qt@@QAEAAV01@ABV01@@Z
??4QRect@kso_qt@@QAEAAV01@$$QAV01@@Z
??4QRect@kso_qt@@QAEAAV01@ABV01@@Z
??4QRectF@kso_qt@@QAEAAV01@$$QAV01@@Z
??4QRectF@kso_qt@@QAEAAV01@ABV01@@Z
??4QRegExp@kso_qt@@QAEAAV01@$$QAV01@@Z
??4QRegExp@kso_qt@@QAEAAV01@ABV01@@Z
??4QRegularExpression@kso_qt@@QAEAAV01@$$QAV01@@Z
??4QRegularExpression@kso_qt@@QAEAAV01@ABV01@@Z
??4QRegularExpressionMatch@kso_qt@@QAEAAV01@$$QAV01@@Z
??4QRegularExpressionMatch@kso_qt@@QAEAAV01@ABV01@@Z
??4QRegularExpressionMatchIterator@kso_qt@@QAEAAV01@$$QAV01@@Z
??4QRegularExpressionMatchIterator@kso_qt@@QAEAAV01@ABV01@@Z
??4QRunnable@kso_qt@@QAEAAV01@ABV01@@Z
??4QSequentialIterable@kso_qt@@QAEAAV01@$$QAV01@@Z
??4QSequentialIterable@kso_qt@@QAEAAV01@ABV01@@Z
??4QSettingsPrivate@kso_qt@@QAEAAV01@ABV01@@Z
??4QSize@kso_qt@@QAEAAV01@$$QAV01@@Z
??4QSize@kso_qt@@QAEAAV01@ABV01@@Z
??4QSizeF@kso_qt@@QAEAAV01@$$QAV01@@Z
??4QSizeF@kso_qt@@QAEAAV01@ABV01@@Z
??4QStandardPaths@kso_qt@@QAEAAV01@ABV01@@Z
??4QStatePrivate@kso_qt@@QAEAAV01@ABV01@@Z
??4QStaticPlugin@kso_qt@@QAEAAU01@$$QAU01@@Z
??4QStaticPlugin@kso_qt@@QAEAAU01@ABU01@@Z
??4QStorageInfo@kso_qt@@QAEAAV01@$$QAV01@@Z
??4QStorageInfo@kso_qt@@QAEAAV01@ABV01@@Z
??4QString@kso_qt@@QAEAAV01@$$QAV01@@Z
??4QString@kso_qt@@QAEAAV01@ABUNull@01@@Z
??4QString@kso_qt@@QAEAAV01@ABV01@@Z
??4QString@kso_qt@@QAEAAV01@ABVQByteArray@1@@Z
??4QString@kso_qt@@QAEAAV01@D@Z
??4QString@kso_qt@@QAEAAV01@PBD@Z
??4QString@kso_qt@@QAEAAV01@VQChar@1@@Z
??4QString@kso_qt@@QAEAAV01@VQLatin1String@1@@Z
??4QStringMatcher@kso_qt@@QAEAAV01@ABV01@@Z
??4QStringRef@kso_qt@@QAEAAV01@$$QAV01@@Z
??4QStringRef@kso_qt@@QAEAAV01@ABV01@@Z
??4QStringRef@kso_qt@@QAEAAV01@PBVQString@1@@Z
??4QSysInfo@kso_qt@@QAEAAV01@$$QAV01@@Z
??4QSysInfo@kso_qt@@QAEAAV01@ABV01@@Z
??4QSystemLocale@kso_qt@@QAEAAV01@ABV01@@Z
??4QTextBoundaryFinder@kso_qt@@QAEAAV01@ABV01@@Z
??4QTextStreamManipulator@kso_qt@@QAEAAV01@$$QAV01@@Z
??4QTextStreamManipulator@kso_qt@@QAEAAV01@ABV01@@Z
??4QThreadStorageData@kso_qt@@QAEAAV01@ABV01@@Z
??4QTime@kso_qt@@QAEAAV01@$$QAV01@@Z
??4QTime@kso_qt@@QAEAAV01@ABV01@@Z
??4QTimeZone@kso_qt@@QAEAAV01@$$QAV01@@Z
??4QTimeZone@kso_qt@@QAEAAV01@ABV01@@Z
??4QTimerEvent@kso_qt@@QAEAAV01@ABV01@@Z
??4QUnhandledException@kso_qt@@QAEAAV01@ABV01@@Z
??4QUrl@kso_qt@@QAEAAV01@$$QAV01@@Z
??4QUrl@kso_qt@@QAEAAV01@ABV01@@Z
??4QUrl@kso_qt@@QAEAAV01@ABVQString@1@@Z
??4QUrlQuery@kso_qt@@QAEAAV01@$$QAV01@@Z
??4QUrlQuery@kso_qt@@QAEAAV01@ABV01@@Z
??4QUuid@kso_qt@@QAEAAV01@$$QAV01@@Z
??4QUuid@kso_qt@@QAEAAV01@ABU_GUID@@@Z
??4QUuid@kso_qt@@QAEAAV01@ABV01@@Z
??4QVariant@kso_qt@@QAEAAV01@$$QAV01@@Z
??4QVariant@kso_qt@@QAEAAV01@ABV01@@Z
??4QXmlStreamAttribute@kso_qt@@QAEAAV01@$$QAV01@@Z
??4QXmlStreamAttribute@kso_qt@@QAEAAV01@ABV01@@Z
??4QXmlStreamAttributes@kso_qt@@QAEAAV01@$$QAV01@@Z
??4QXmlStreamAttributes@kso_qt@@QAEAAV01@ABV01@@Z
??4QXmlStreamEntityDeclaration@kso_qt@@QAEAAV01@$$QAV01@@Z
??4QXmlStreamEntityDeclaration@kso_qt@@QAEAAV01@ABV01@@Z
??4QXmlStreamEntityResolver@kso_qt@@QAEAAV01@ABV01@@Z
??4QXmlStreamNamespaceDeclaration@kso_qt@@QAEAAV01@$$QAV01@@Z
??4QXmlStreamNamespaceDeclaration@kso_qt@@QAEAAV01@ABV01@@Z
??4QXmlStreamNotationDeclaration@kso_qt@@QAEAAV01@$$QAV01@@Z
??4QXmlStreamNotationDeclaration@kso_qt@@QAEAAV01@ABV01@@Z
??4QXmlStreamStringRef@kso_qt@@QAEAAV01@$$QAV01@@Z
??4QXmlStreamStringRef@kso_qt@@QAEAAV01@ABV01@@Z
??4QXmlUtils@kso_qt@@QAEAAV01@$$QAV01@@Z
??4QXmlUtils@kso_qt@@QAEAAV01@ABV01@@Z
??4ResultIteratorBase@QtPrivate@kso_qt@@QAEAAV012@$$QAV012@@Z
??4ResultIteratorBase@QtPrivate@kso_qt@@QAEAAV012@ABV012@@Z
??4ResultStoreBase@QtPrivate@kso_qt@@QAEAAV012@ABV012@@Z
??4SectionNode@QDateTimeParser@kso_qt@@QAEAAU012@$$QAU012@@Z
??4SectionNode@QDateTimeParser@kso_qt@@QAEAAU012@ABU012@@Z
??4SignalEvent@QStateMachine@kso_qt@@QAEAAV012@ABV012@@Z
??4VectorBoolElements@QtMetaTypePrivate@kso_qt@@QAEAAU012@$$QAU012@@Z
??4VectorBoolElements@QtMetaTypePrivate@kso_qt@@QAEAAU012@ABU012@@Z
??4WrappedEvent@QStateMachine@kso_qt@@QAEAAV012@ABV012@@Z
??4const_iterator@QAssociativeIterable@kso_qt@@QAEAAU012@ABU012@@Z
??4const_iterator@QSequentialIterable@kso_qt@@QAEAAU012@ABU012@@Z
??5QDataStream@kso_qt@@QAEAAV01@AA$$T@Z
??5QDataStream@kso_qt@@QAEAAV01@AAC@Z
??5QDataStream@kso_qt@@QAEAAV01@AAE@Z
??5QDataStream@kso_qt@@QAEAAV01@AAF@Z
??5QDataStream@kso_qt@@QAEAAV01@AAG@Z
??5QDataStream@kso_qt@@QAEAAV01@AAH@Z
??5QDataStream@kso_qt@@QAEAAV01@AAI@Z
??5QDataStream@kso_qt@@QAEAAV01@AAM@Z
??5QDataStream@kso_qt@@QAEAAV01@AAN@Z
??5QDataStream@kso_qt@@QAEAAV01@AAPAD@Z
??5QDataStream@kso_qt@@QAEAAV01@AAVqfloat16@1@@Z
??5QDataStream@kso_qt@@QAEAAV01@AA_J@Z
??5QDataStream@kso_qt@@QAEAAV01@AA_K@Z
??5QDataStream@kso_qt@@QAEAAV01@AA_N@Z
??5QTextStream@kso_qt@@QAEAAV01@AAD@Z
??5QTextStream@kso_qt@@QAEAAV01@AAF@Z
??5QTextStream@kso_qt@@QAEAAV01@AAG@Z
??5QTextStream@kso_qt@@QAEAAV01@AAH@Z
??5QTextStream@kso_qt@@QAEAAV01@AAI@Z
??5QTextStream@kso_qt@@QAEAAV01@AAJ@Z
??5QTextStream@kso_qt@@QAEAAV01@AAK@Z
??5QTextStream@kso_qt@@QAEAAV01@AAM@Z
??5QTextStream@kso_qt@@QAEAAV01@AAN@Z
??5QTextStream@kso_qt@@QAEAAV01@AAVQByteArray@1@@Z
??5QTextStream@kso_qt@@QAEAAV01@AAVQChar@1@@Z
??5QTextStream@kso_qt@@QAEAAV01@AAVQString@1@@Z
??5QTextStream@kso_qt@@QAEAAV01@AA_J@Z
??5QTextStream@kso_qt@@QAEAAV01@AA_K@Z
??5QTextStream@kso_qt@@QAEAAV01@PAD@Z
??5kso_qt@@YAAAVQDataStream@0@AAV10@AAVQBitArray@0@@Z
??5kso_qt@@YAAAVQDataStream@0@AAV10@AAVQByteArray@0@@Z
??5kso_qt@@YAAAVQDataStream@0@AAV10@AAVQChar@0@@Z
??5kso_qt@@YAAAVQDataStream@0@AAV10@AAVQDate@0@@Z
??5kso_qt@@YAAAVQDataStream@0@AAV10@AAVQDateTime@0@@Z
??5kso_qt@@YAAAVQDataStream@0@AAV10@AAVQEasingCurve@0@@Z
??5kso_qt@@YAAAVQDataStream@0@AAV10@AAVQLine@0@@Z
??5kso_qt@@YAAAVQDataStream@0@AAV10@AAVQLineF@0@@Z
??5kso_qt@@YAAAVQDataStream@0@AAV10@AAVQLocale@0@@Z
??5kso_qt@@YAAAVQDataStream@0@AAV10@AAVQMargins@0@@Z
??5kso_qt@@YAAAVQDataStream@0@AAV10@AAVQMarginsF@0@@Z
??5kso_qt@@YAAAVQDataStream@0@AAV10@AAVQPoint@0@@Z
??5kso_qt@@YAAAVQDataStream@0@AAV10@AAVQPointF@0@@Z
??5kso_qt@@YAAAVQDataStream@0@AAV10@AAVQRect@0@@Z
??5kso_qt@@YAAAVQDataStream@0@AAV10@AAVQRectF@0@@Z
??5kso_qt@@YAAAVQDataStream@0@AAV10@AAVQRegExp@0@@Z
??5kso_qt@@YAAAVQDataStream@0@AAV10@AAVQRegularExpression@0@@Z
??5kso_qt@@YAAAVQDataStream@0@AAV10@AAVQSize@0@@Z
??5kso_qt@@YAAAVQDataStream@0@AAV10@AAVQSizeF@0@@Z
??5kso_qt@@YAAAVQDataStream@0@AAV10@AAVQString@0@@Z
??5kso_qt@@YAAAVQDataStream@0@AAV10@AAVQTime@0@@Z
??5kso_qt@@YAAAVQDataStream@0@AAV10@AAVQTimeZone@0@@Z
??5kso_qt@@YAAAVQDataStream@0@AAV10@AAVQUrl@0@@Z
??5kso_qt@@YAAAVQDataStream@0@AAV10@AAVQUuid@0@@Z
??5kso_qt@@YAAAVQDataStream@0@AAV10@AAVQVariant@0@@Z
??5kso_qt@@YAAAVQDataStream@0@AAV10@AAVQVersionNumber@0@@Z
??5kso_qt@@YAAAVQDataStream@0@AAV10@AAW4Type@QVariant@0@@Z
??6?$QList@VQItemSelectionRange@kso_qt@@@kso_qt@@QAEAAV01@ABV01@@Z
??6?$QList@VQItemSelectionRange@kso_qt@@@kso_qt@@QAEAAV01@ABVQItemSelectionRange@1@@Z
??6?$QVector@VQPoint@kso_qt@@@kso_qt@@QAEAAV01@$$QAVQPoint@1@@Z
??6?$QVector@VQPoint@kso_qt@@@kso_qt@@QAEAAV01@ABV01@@Z
??6?$QVector@VQPoint@kso_qt@@@kso_qt@@QAEAAV01@ABVQPoint@1@@Z
??6?$QVector@VQPointF@kso_qt@@@kso_qt@@QAEAAV01@$$QAVQPointF@1@@Z
??6?$QVector@VQPointF@kso_qt@@@kso_qt@@QAEAAV01@ABV01@@Z
??6?$QVector@VQPointF@kso_qt@@@kso_qt@@QAEAAV01@ABVQPointF@1@@Z
??6?$QVector@VQXmlStreamAttribute@kso_qt@@@kso_qt@@QAEAAV01@$$QAVQXmlStreamAttribute@1@@Z
??6?$QVector@VQXmlStreamAttribute@kso_qt@@@kso_qt@@QAEAAV01@ABV01@@Z
??6?$QVector@VQXmlStreamAttribute@kso_qt@@@kso_qt@@QAEAAV01@ABVQXmlStreamAttribute@1@@Z
??6QCborArray@kso_qt@@QAEAAV01@ABVQCborValue@1@@Z
??6QDataStream@kso_qt@@QAEAAV01@$$T@Z
??6QDataStream@kso_qt@@QAEAAV01@C@Z
??6QDataStream@kso_qt@@QAEAAV01@E@Z
??6QDataStream@kso_qt@@QAEAAV01@F@Z
??6QDataStream@kso_qt@@QAEAAV01@G@Z
??6QDataStream@kso_qt@@QAEAAV01@H@Z
??6QDataStream@kso_qt@@QAEAAV01@I@Z
??6QDataStream@kso_qt@@QAEAAV01@M@Z
??6QDataStream@kso_qt@@QAEAAV01@N@Z
??6QDataStream@kso_qt@@QAEAAV01@PBD@Z
??6QDataStream@kso_qt@@QAEAAV01@Vqfloat16@1@@Z
??6QDataStream@kso_qt@@QAEAAV01@_J@Z
??6QDataStream@kso_qt@@QAEAAV01@_K@Z
??6QDataStream@kso_qt@@QAEAAV01@_N@Z
??6QDebug@kso_qt@@QAEAAV01@$$T@Z
??6QDebug@kso_qt@@QAEAAV01@ABVQByteArray@1@@Z
??6QDebug@kso_qt@@QAEAAV01@ABVQString@1@@Z
??6QDebug@kso_qt@@QAEAAV01@ABVQStringRef@1@@Z
??6QDebug@kso_qt@@QAEAAV01@D@Z
??6QDebug@kso_qt@@QAEAAV01@F@Z
??6QDebug@kso_qt@@QAEAAV01@G@Z
??6QDebug@kso_qt@@QAEAAV01@H@Z
??6QDebug@kso_qt@@QAEAAV01@I@Z
??6QDebug@kso_qt@@QAEAAV01@J@Z
??6QDebug@kso_qt@@QAEAAV01@K@Z
??6QDebug@kso_qt@@QAEAAV01@M@Z
??6QDebug@kso_qt@@QAEAAV01@N@Z
??6QDebug@kso_qt@@QAEAAV01@P6AAAVQTextStream@1@AAV21@@Z@Z
??6QDebug@kso_qt@@QAEAAV01@PBD@Z
??6QDebug@kso_qt@@QAEAAV01@PBX@Z
??6QDebug@kso_qt@@QAEAAV01@VQChar@1@@Z
??6QDebug@kso_qt@@QAEAAV01@VQLatin1String@1@@Z
??6QDebug@kso_qt@@QAEAAV01@VQStringView@1@@Z
??6QDebug@kso_qt@@QAEAAV01@VQTextStreamManipulator@1@@Z
??6QDebug@kso_qt@@QAEAAV01@_J@Z
??6QDebug@kso_qt@@QAEAAV01@_K@Z
??6QDebug@kso_qt@@QAEAAV01@_N@Z
??6QDebug@kso_qt@@QAEAAV01@_S@Z
??6QDebug@kso_qt@@QAEAAV01@_U@Z
??6QJsonArray@kso_qt@@QAEAAV01@ABVQJsonValue@1@@Z
??6QTextStream@kso_qt@@QAEAAV01@ABVQByteArray@1@@Z
??6QTextStream@kso_qt@@QAEAAV01@ABVQString@1@@Z
??6QTextStream@kso_qt@@QAEAAV01@ABVQStringRef@1@@Z
??6QTextStream@kso_qt@@QAEAAV01@D@Z
??6QTextStream@kso_qt@@QAEAAV01@F@Z
??6QTextStream@kso_qt@@QAEAAV01@G@Z
??6QTextStream@kso_qt@@QAEAAV01@H@Z
??6QTextStream@kso_qt@@QAEAAV01@I@Z
??6QTextStream@kso_qt@@QAEAAV01@J@Z
??6QTextStream@kso_qt@@QAEAAV01@K@Z
??6QTextStream@kso_qt@@QAEAAV01@M@Z
??6QTextStream@kso_qt@@QAEAAV01@N@Z
??6QTextStream@kso_qt@@QAEAAV01@PBD@Z
??6QTextStream@kso_qt@@QAEAAV01@PBX@Z
??6QTextStream@kso_qt@@QAEAAV01@VQChar@1@@Z
??6QTextStream@kso_qt@@QAEAAV01@VQLatin1String@1@@Z
??6QTextStream@kso_qt@@QAEAAV01@VQStringView@1@@Z
??6QTextStream@kso_qt@@QAEAAV01@_J@Z
??6QTextStream@kso_qt@@QAEAAV01@_K@Z
??6kso_qt@@YA?AVQDebug@0@V10@ABUtagMSG@@@Z
??6kso_qt@@YA?AVQDebug@0@V10@ABVQBitArray@0@@Z
??6kso_qt@@YA?AVQDebug@0@V10@ABVQCborArray@0@@Z
??6kso_qt@@YA?AVQDebug@0@V10@ABVQCborMap@0@@Z
??6kso_qt@@YA?AVQDebug@0@V10@ABVQCborValue@0@@Z
??6kso_qt@@YA?AVQDebug@0@V10@ABVQDate@0@@Z
??6kso_qt@@YA?AVQDebug@0@V10@ABVQDateTime@0@@Z
??6kso_qt@@YA?AVQDebug@0@V10@ABVQDir@0@@Z
??6kso_qt@@YA?AVQDebug@0@V10@ABVQEasingCurve@0@@Z
??6kso_qt@@YA?AVQDebug@0@V10@ABVQFileInfo@0@@Z
??6kso_qt@@YA?AVQDebug@0@V10@ABVQItemSelectionRange@0@@Z
??6kso_qt@@YA?AVQDebug@0@V10@ABVQJsonArray@0@@Z
??6kso_qt@@YA?AVQDebug@0@V10@ABVQJsonDocument@0@@Z
??6kso_qt@@YA?AVQDebug@0@V10@ABVQJsonObject@0@@Z
??6kso_qt@@YA?AVQDebug@0@V10@ABVQJsonValue@0@@Z
??6kso_qt@@YA?AVQDebug@0@V10@ABVQLine@0@@Z
??6kso_qt@@YA?AVQDebug@0@V10@ABVQLineF@0@@Z
??6kso_qt@@YA?AVQDebug@0@V10@ABVQLocale@0@@Z
??6kso_qt@@YA?AVQDebug@0@V10@ABVQMargins@0@@Z
??6kso_qt@@YA?AVQDebug@0@V10@ABVQMarginsF@0@@Z
??6kso_qt@@YA?AVQDebug@0@V10@ABVQMimeType@0@@Z
??6kso_qt@@YA?AVQDebug@0@V10@ABVQModelIndex@0@@Z
??6kso_qt@@YA?AVQDebug@0@V10@ABVQOperatingSystemVersion@0@@Z
??6kso_qt@@YA?AVQDebug@0@V10@ABVQPersistentModelIndex@0@@Z
??6kso_qt@@YA?AVQDebug@0@V10@ABVQPoint@0@@Z
??6kso_qt@@YA?AVQDebug@0@V10@ABVQPointF@0@@Z
??6kso_qt@@YA?AVQDebug@0@V10@ABVQRect@0@@Z
??6kso_qt@@YA?AVQDebug@0@V10@ABVQRectF@0@@Z
??6kso_qt@@YA?AVQDebug@0@V10@ABVQRegExp@0@@Z
??6kso_qt@@YA?AVQDebug@0@V10@ABVQRegularExpression@0@@Z
??6kso_qt@@YA?AVQDebug@0@V10@ABVQRegularExpressionMatch@0@@Z
??6kso_qt@@YA?AVQDebug@0@V10@ABVQSize@0@@Z
??6kso_qt@@YA?AVQDebug@0@V10@ABVQSizeF@0@@Z
??6kso_qt@@YA?AVQDebug@0@V10@ABVQStorageInfo@0@@Z
??6kso_qt@@YA?AVQDebug@0@V10@ABVQTime@0@@Z
??6kso_qt@@YA?AVQDebug@0@V10@ABVQTimeZone@0@@Z
??6kso_qt@@YA?AVQDebug@0@V10@ABVQUrl@0@@Z
??6kso_qt@@YA?AVQDebug@0@V10@ABVQUuid@0@@Z
??6kso_qt@@YA?AVQDebug@0@V10@ABVQVariant@0@@Z
??6kso_qt@@YA?AVQDebug@0@V10@ABVQVersionNumber@0@@Z
??6kso_qt@@YA?AVQDebug@0@V10@PBVQObject@0@@Z
??6kso_qt@@YA?AVQDebug@0@V10@V?$QFlags@W4Filter@QDir@kso_qt@@@0@@Z
??6kso_qt@@YA?AVQDebug@0@V10@V?$QFlags@W4OpenModeFlag@QIODevice@kso_qt@@@0@@Z
??6kso_qt@@YA?AVQDebug@0@V10@V?$QFlags@W4PatternOption@QRegularExpression@kso_qt@@@0@@Z
??6kso_qt@@YA?AVQDebug@0@V10@W4QCborKnownTags@0@@Z
??6kso_qt@@YA?AVQDebug@0@V10@W4QCborSimpleType@0@@Z
??6kso_qt@@YA?AVQDebug@0@V10@W4QCborTag@0@@Z
??6kso_qt@@YA?AVQDebug@0@V10@W4Type@QVariant@0@@Z
??6kso_qt@@YAAAVQDataStream@0@AAV10@ABVQBitArray@0@@Z
??6kso_qt@@YAAAVQDataStream@0@AAV10@ABVQByteArray@0@@Z
??6kso_qt@@YAAAVQDataStream@0@AAV10@ABVQDate@0@@Z
??6kso_qt@@YAAAVQDataStream@0@AAV10@ABVQDateTime@0@@Z
??6kso_qt@@YAAAVQDataStream@0@AAV10@ABVQEasingCurve@0@@Z
??6kso_qt@@YAAAVQDataStream@0@AAV10@ABVQLine@0@@Z
??6kso_qt@@YAAAVQDataStream@0@AAV10@ABVQLineF@0@@Z
??6kso_qt@@YAAAVQDataStream@0@AAV10@ABVQLocale@0@@Z
??6kso_qt@@YAAAVQDataStream@0@AAV10@ABVQMargins@0@@Z
??6kso_qt@@YAAAVQDataStream@0@AAV10@ABVQMarginsF@0@@Z
??6kso_qt@@YAAAVQDataStream@0@AAV10@ABVQPoint@0@@Z
??6kso_qt@@YAAAVQDataStream@0@AAV10@ABVQPointF@0@@Z
??6kso_qt@@YAAAVQDataStream@0@AAV10@ABVQRect@0@@Z
??6kso_qt@@YAAAVQDataStream@0@AAV10@ABVQRectF@0@@Z
??6kso_qt@@YAAAVQDataStream@0@AAV10@ABVQRegExp@0@@Z
??6kso_qt@@YAAAVQDataStream@0@AAV10@ABVQRegularExpression@0@@Z
??6kso_qt@@YAAAVQDataStream@0@AAV10@ABVQSize@0@@Z
??6kso_qt@@YAAAVQDataStream@0@AAV10@ABVQSizeF@0@@Z
??6kso_qt@@YAAAVQDataStream@0@AAV10@ABVQString@0@@Z
??6kso_qt@@YAAAVQDataStream@0@AAV10@ABVQTime@0@@Z
??6kso_qt@@YAAAVQDataStream@0@AAV10@ABVQTimeZone@0@@Z
??6kso_qt@@YAAAVQDataStream@0@AAV10@ABVQUrl@0@@Z
??6kso_qt@@YAAAVQDataStream@0@AAV10@ABVQUuid@0@@Z
??6kso_qt@@YAAAVQDataStream@0@AAV10@ABVQVariant@0@@Z
??6kso_qt@@YAAAVQDataStream@0@AAV10@ABVQVersionNumber@0@@Z
??6kso_qt@@YAAAVQDataStream@0@AAV10@VQChar@0@@Z
??6kso_qt@@YAAAVQDataStream@0@AAV10@W4Type@QVariant@0@@Z
??7QBitRef@kso_qt@@QBE_NXZ
??8?$QList@VQItemSelectionRange@kso_qt@@@kso_qt@@QBE_NABV01@@Z
??8?$QVector@VQPoint@kso_qt@@@kso_qt@@QBE_NABV01@@Z
??8?$QVector@VQPointF@kso_qt@@@kso_qt@@QBE_NABV01@@Z
??8?$QVector@VQXmlStreamAttribute@kso_qt@@@kso_qt@@QBE_NABV01@@Z
??8QBitArray@kso_qt@@QBE_NABV01@@Z
??8QByteArray@kso_qt@@QBE_NABVQString@1@@Z
??8QByteRef@kso_qt@@QBE_ND@Z
??8QCborArray@kso_qt@@QBE_NABV01@@Z
??8QCborMap@kso_qt@@QBE_NABV01@@Z
??8QCborValue@kso_qt@@QBE_NABV01@@Z
??8QCborValueRef@kso_qt@@QBE_NABVQCborValue@1@@Z
??8QDate@kso_qt@@QBE_NABV01@@Z
??8QDateTime@kso_qt@@QBE_NABV01@@Z
??8QDir@kso_qt@@QBE_NABV01@@Z
??8QEasingCurve@kso_qt@@QBE_NABV01@@Z
??8QElapsedTimer@kso_qt@@QBE_NABV01@@Z
??8QFileInfo@kso_qt@@QBE_NABV01@@Z
??8QFutureInterfaceBase@kso_qt@@QBE_NABV01@@Z
??8QItemSelectionRange@kso_qt@@QBE_NABV01@@Z
??8QJsonArray@kso_qt@@QBE_NABV01@@Z
??8QJsonDocument@kso_qt@@QBE_NABV01@@Z
??8QJsonObject@kso_qt@@QBE_NABV01@@Z
??8QJsonValue@kso_qt@@QBE_NABV01@@Z
??8QJsonValueRef@kso_qt@@QBE_NABVQJsonValue@1@@Z
??8QLine@kso_qt@@QBE_NABV01@@Z
??8QLineF@kso_qt@@QBE_NABV01@@Z
??8QLocale@kso_qt@@QBE_NABV01@@Z
??8QMimeType@kso_qt@@QBE_NABV01@@Z
??8QModelIndex@kso_qt@@QBE_NABV01@@Z
??8QPersistentModelIndex@kso_qt@@QBE_NABV01@@Z
??8QPersistentModelIndex@kso_qt@@QBE_NABVQModelIndex@1@@Z
??8QProcessEnvironment@kso_qt@@QBE_NABV01@@Z
??8QRegExp@kso_qt@@QBE_NABV01@@Z
??8QRegularExpression@kso_qt@@QBE_NABV01@@Z
??8QString@kso_qt@@QBE_NABVQByteArray@1@@Z
??8QString@kso_qt@@QBE_NPBD@Z
??8QString@kso_qt@@QBE_NVQLatin1String@1@@Z
??8QStringRef@kso_qt@@QBE_NPBD@Z
??8QTime@kso_qt@@QBE_NABV01@@Z
??8QTimeZone@kso_qt@@QBE_NABV01@@Z
??8QTimeZonePrivate@kso_qt@@QBE_NABV01@@Z
??8QUrl@kso_qt@@QBE_NABV01@@Z
??8QUrlQuery@kso_qt@@QBE_NABV01@@Z
??8QUuid@kso_qt@@QBE_NABU_GUID@@@Z
??8QUuid@kso_qt@@QBE_NABV01@@Z
??8QVariant@kso_qt@@QBE_NABV01@@Z
??8QXmlStreamAttribute@kso_qt@@QBE_NABV01@@Z
??8QXmlStreamEntityDeclaration@kso_qt@@QBE_NABV01@@Z
??8QXmlStreamNamespaceDeclaration@kso_qt@@QBE_NABV01@@Z
??8QXmlStreamNotationDeclaration@kso_qt@@QBE_NABV01@@Z
??8ResultIteratorBase@QtPrivate@kso_qt@@QBE_NABV012@@Z
??8const_iterator@QAssociativeIterable@kso_qt@@QBE_NABU012@@Z
??8const_iterator@QSequentialIterable@kso_qt@@QBE_NABU012@@Z
??8kso_qt@@YA_NABUSectionNode@QDateTimeParser@0@0@Z
??8kso_qt@@YA_NABVQRandomGenerator@0@0@Z
??8kso_qt@@YA_NABVQString@0@0@Z
??8kso_qt@@YA_NABVQString@0@ABVQStringRef@0@@Z
??8kso_qt@@YA_NABVQStringRef@0@0@Z
??8kso_qt@@YA_NVQLatin1String@0@ABVQStringRef@0@@Z
??9?$QList@VQItemSelectionRange@kso_qt@@@kso_qt@@QBE_NABV01@@Z
??9?$QVector@VQPoint@kso_qt@@@kso_qt@@QBE_NABV01@@Z
??9?$QVector@VQPointF@kso_qt@@@kso_qt@@QBE_NABV01@@Z
??9?$QVector@VQXmlStreamAttribute@kso_qt@@@kso_qt@@QBE_NABV01@@Z
??9QBitArray@kso_qt@@QBE_NABV01@@Z
??9QByteArray@kso_qt@@QBE_NABVQString@1@@Z
??9QByteRef@kso_qt@@QBE_ND@Z
??9QCborArray@kso_qt@@QBE_NABV01@@Z
??9QCborMap@kso_qt@@QBE_NABV01@@Z
??9QCborValue@kso_qt@@QBE_NABV01@@Z
??9QCborValueRef@kso_qt@@QBE_NABVQCborValue@1@@Z
??9QDate@kso_qt@@QBE_NABV01@@Z
??9QDateTime@kso_qt@@QBE_NABV01@@Z
??9QDir@kso_qt@@QBE_NABV01@@Z
??9QEasingCurve@kso_qt@@QBE_NABV01@@Z
??9QElapsedTimer@kso_qt@@QBE_NABV01@@Z
??9QFileInfo@kso_qt@@QBE_NABV01@@Z
??9QFutureInterfaceBase@kso_qt@@QBE_NABV01@@Z
??9QItemSelectionRange@kso_qt@@QBE_NABV01@@Z
??9QJsonArray@kso_qt@@QBE_NABV01@@Z
??9QJsonDocument@kso_qt@@QBE_NABV01@@Z
??9QJsonObject@kso_qt@@QBE_NABV01@@Z
??9QJsonValue@kso_qt@@QBE_NABV01@@Z
??9QJsonValueRef@kso_qt@@QBE_NABVQJsonValue@1@@Z
??9QLine@kso_qt@@QBE_NABV01@@Z
??9QLineF@kso_qt@@QBE_NABV01@@Z
??9QLocale@kso_qt@@QBE_NABV01@@Z
??9QMimeType@kso_qt@@QBE_NABV01@@Z
??9QModelIndex@kso_qt@@QBE_NABV01@@Z
??9QPersistentModelIndex@kso_qt@@QBE_NABV01@@Z
??9QPersistentModelIndex@kso_qt@@QBE_NABVQModelIndex@1@@Z
??9QProcessEnvironment@kso_qt@@QBE_NABV01@@Z
??9QRegExp@kso_qt@@QBE_NABV01@@Z
??9QRegularExpression@kso_qt@@QBE_NABV01@@Z
??9QString@kso_qt@@QBE_NABVQByteArray@1@@Z
??9QString@kso_qt@@QBE_NPBD@Z
??9QString@kso_qt@@QBE_NVQLatin1String@1@@Z
??9QStringRef@kso_qt@@QBE_NPBD@Z
??9QTime@kso_qt@@QBE_NABV01@@Z
??9QTimeZone@kso_qt@@QBE_NABV01@@Z
??9QTimeZonePrivate@kso_qt@@QBE_NABV01@@Z
??9QUrl@kso_qt@@QBE_NABV01@@Z
??9QUrlQuery@kso_qt@@QBE_NABV01@@Z
??9QUuid@kso_qt@@QBE_NABU_GUID@@@Z
??9QUuid@kso_qt@@QBE_NABV01@@Z
??9QVariant@kso_qt@@QBE_NABV01@@Z
??9QXmlStreamAttribute@kso_qt@@QBE_NABV01@@Z
??9QXmlStreamEntityDeclaration@kso_qt@@QBE_NABV01@@Z
??9QXmlStreamNamespaceDeclaration@kso_qt@@QBE_NABV01@@Z
??9QXmlStreamNotationDeclaration@kso_qt@@QBE_NABV01@@Z
??9ResultIteratorBase@QtPrivate@kso_qt@@QBE_NABV012@@Z
??9const_iterator@QAssociativeIterable@kso_qt@@QBE_NABU012@@Z
??9const_iterator@QSequentialIterable@kso_qt@@QBE_NABU012@@Z
??A?$QList@VQItemSelectionRange@kso_qt@@@kso_qt@@QAEAAVQItemSelectionRange@1@H@Z
??A?$QList@VQItemSelectionRange@kso_qt@@@kso_qt@@QBEABVQItemSelectionRange@1@H@Z
??A?$QVector@VQPoint@kso_qt@@@kso_qt@@QAEAAVQPoint@1@H@Z
??A?$QVector@VQPoint@kso_qt@@@kso_qt@@QBEABVQPoint@1@H@Z
??A?$QVector@VQPointF@kso_qt@@@kso_qt@@QAEAAVQPointF@1@H@Z
??A?$QVector@VQPointF@kso_qt@@@kso_qt@@QBEABVQPointF@1@H@Z
??A?$QVector@VQXmlStreamAttribute@kso_qt@@@kso_qt@@QAEAAVQXmlStreamAttribute@1@H@Z
??A?$QVector@VQXmlStreamAttribute@kso_qt@@@kso_qt@@QBEABVQXmlStreamAttribute@1@H@Z
??AQBitArray@kso_qt@@QAE?AVQBitRef@1@H@Z
??AQBitArray@kso_qt@@QAE?AVQBitRef@1@I@Z
??AQBitArray@kso_qt@@QBE_NH@Z
??AQBitArray@kso_qt@@QBE_NI@Z
??AQByteArray@kso_qt@@QAE?AVQByteRef@1@H@Z
??AQByteArray@kso_qt@@QAE?AVQByteRef@1@I@Z
??AQByteArray@kso_qt@@QBEDH@Z
??AQByteArray@kso_qt@@QBEDI@Z
??AQCborArray@kso_qt@@QAE?AVQCborValueRef@1@H@Z
??AQCborArray@kso_qt@@QBE?BVQCborValue@1@H@Z
??AQCborMap@kso_qt@@QAE?AVQCborValueRef@1@ABVQCborValue@1@@Z
??AQCborMap@kso_qt@@QAE?AVQCborValueRef@1@ABVQString@1@@Z
??AQCborMap@kso_qt@@QAE?AVQCborValueRef@1@VQLatin1String@1@@Z
??AQCborMap@kso_qt@@QAE?AVQCborValueRef@1@_J@Z
??AQCborMap@kso_qt@@QBE?BVQCborValue@1@ABV21@@Z
??AQCborMap@kso_qt@@QBE?BVQCborValue@1@ABVQString@1@@Z
??AQCborMap@kso_qt@@QBE?BVQCborValue@1@VQLatin1String@1@@Z
??AQCborMap@kso_qt@@QBE?BVQCborValue@1@_J@Z
??AQCborValue@kso_qt@@QBE?BV01@ABVQString@1@@Z
??AQCborValue@kso_qt@@QBE?BV01@VQLatin1String@1@@Z
??AQCborValue@kso_qt@@QBE?BV01@_J@Z
??AQDir@kso_qt@@QBE?AVQString@1@H@Z
??AQJsonArray@kso_qt@@QAE?AVQJsonValueRef@1@H@Z
??AQJsonArray@kso_qt@@QBE?AVQJsonValue@1@H@Z
??AQJsonDocument@kso_qt@@QBE?BVQJsonValue@1@ABVQString@1@@Z
??AQJsonDocument@kso_qt@@QBE?BVQJsonValue@1@H@Z
??AQJsonDocument@kso_qt@@QBE?BVQJsonValue@1@VQLatin1String@1@@Z
??AQJsonObject@kso_qt@@QAE?AVQJsonValueRef@1@ABVQString@1@@Z
??AQJsonObject@kso_qt@@QAE?AVQJsonValueRef@1@VQLatin1String@1@@Z
??AQJsonObject@kso_qt@@QBE?AVQJsonValue@1@ABVQString@1@@Z
??AQJsonObject@kso_qt@@QBE?AVQJsonValue@1@VQLatin1String@1@@Z
??AQJsonValue@kso_qt@@QBE?BV01@ABVQString@1@@Z
??AQJsonValue@kso_qt@@QBE?BV01@H@Z
??AQJsonValue@kso_qt@@QBE?BV01@VQLatin1String@1@@Z
??AQString@kso_qt@@QAE?AVQCharRef@1@H@Z
??AQString@kso_qt@@QAE?AVQCharRef@1@I@Z
??AQString@kso_qt@@QBE?BVQChar@1@H@Z
??AQString@kso_qt@@QBE?BVQChar@1@I@Z
??AQStringRef@kso_qt@@QBE?AVQChar@1@H@Z
??BConnection@QMetaObject@kso_qt@@QBEPQ012@PAXXZ
??BQBitRef@kso_qt@@QBE_NXZ
??BQByteArray@kso_qt@@QBEPBDXZ
??BQByteArray@kso_qt@@QBEPBXXZ
??BQByteRef@kso_qt@@QBEDXZ
??BQCborError@kso_qt@@QBE?AW4Code@01@XZ
??BQCborValueRef@kso_qt@@QBE?AVQCborValue@1@XZ
??BQCharRef@kso_qt@@QBE?AVQChar@1@XZ
??BQJsonValueRef@kso_qt@@QBE?AVQJsonValue@1@XZ
??BQPersistentModelIndex@kso_qt@@QBEABVQModelIndex@1@XZ
??BQUuid@kso_qt@@QBE?AU_GUID@@XZ
??BQXmlStreamStringRef@kso_qt@@QBE?AVQStringRef@1@XZ
??Dconst_iterator@QAssociativeIterable@kso_qt@@QBE?BVQVariant@2@XZ
??Dconst_iterator@QSequentialIterable@kso_qt@@QBE?BVQVariant@2@XZ
??EResultIteratorBase@QtPrivate@kso_qt@@QAE?AV012@XZ
??Econst_iterator@QAssociativeIterable@kso_qt@@QAE?AU012@H@Z
??Econst_iterator@QAssociativeIterable@kso_qt@@QAEAAU012@XZ
??Econst_iterator@QSequentialIterable@kso_qt@@QAE?AU012@H@Z
??Econst_iterator@QSequentialIterable@kso_qt@@QAEAAU012@XZ
??Fconst_iterator@QAssociativeIterable@kso_qt@@QAE?AU012@H@Z
??Fconst_iterator@QAssociativeIterable@kso_qt@@QAEAAU012@XZ
??Fconst_iterator@QSequentialIterable@kso_qt@@QAE?AU012@H@Z
??Fconst_iterator@QSequentialIterable@kso_qt@@QAEAAU012@XZ
??Gconst_iterator@QAssociativeIterable@kso_qt@@QBE?AU012@H@Z
??Gconst_iterator@QSequentialIterable@kso_qt@@QBE?AU012@H@Z
??H?$QList@VQItemSelectionRange@kso_qt@@@kso_qt@@QBE?AV01@ABV01@@Z
??H?$QVector@VQPoint@kso_qt@@@kso_qt@@QBE?AV01@ABV01@@Z
??H?$QVector@VQPointF@kso_qt@@@kso_qt@@QBE?AV01@ABV01@@Z
??H?$QVector@VQXmlStreamAttribute@kso_qt@@@kso_qt@@QBE?AV01@ABV01@@Z
??HQCborArray@kso_qt@@QBE?AV01@ABVQCborValue@1@@Z
??HQJsonArray@kso_qt@@QBE?AV01@ABVQJsonValue@1@@Z
??Hconst_iterator@QAssociativeIterable@kso_qt@@QBE?AU012@H@Z
??Hconst_iterator@QSequentialIterable@kso_qt@@QBE?AU012@H@Z
??Hkso_qt@@YA?AVQDeadlineTimer@0@V10@_J@Z
??IQRect@kso_qt@@QBE?AV01@ABV01@@Z
??IQRectF@kso_qt@@QBE?AV01@ABV01@@Z
??Ikso_qt@@YA?AVQBitArray@0@ABV10@0@Z
??MQByteArray@kso_qt@@QBE_NABVQString@1@@Z
??MQByteRef@kso_qt@@QBE_ND@Z
??MQCborArray@kso_qt@@QBE_NABV01@@Z
??MQCborMap@kso_qt@@QBE_NABV01@@Z
??MQCborValue@kso_qt@@QBE_NABV01@@Z
??MQCborValueRef@kso_qt@@QBE_NABVQCborValue@1@@Z
??MQDate@kso_qt@@QBE_NABV01@@Z
??MQDateTime@kso_qt@@QBE_NABV01@@Z
??MQItemSelectionRange@kso_qt@@QBE_NABV01@@Z
??MQModelIndex@kso_qt@@QBE_NABV01@@Z
??MQPersistentModelIndex@kso_qt@@QBE_NABV01@@Z
??MQString@kso_qt@@QBE_NABVQByteArray@1@@Z
??MQString@kso_qt@@QBE_NPBD@Z
??MQString@kso_qt@@QBE_NVQLatin1String@1@@Z
??MQStringRef@kso_qt@@QBE_NPBD@Z
??MQTime@kso_qt@@QBE_NABV01@@Z
??MQUrl@kso_qt@@QBE_NABV01@@Z
??MQUuid@kso_qt@@QBE_NABV01@@Z
??MQVariant@kso_qt@@QBE_NABV01@@Z
??Mkso_qt@@YA_NABVQElapsedTimer@0@0@Z
??Mkso_qt@@YA_NABVQString@0@0@Z
??Mkso_qt@@YA_NABVQStringRef@0@0@Z
??NQByteArray@kso_qt@@QBE_NABVQString@1@@Z
??NQByteRef@kso_qt@@QBE_ND@Z
??NQDate@kso_qt@@QBE_NABV01@@Z
??NQDateTime@kso_qt@@QBE_NABV01@@Z
??NQString@kso_qt@@QBE_NABVQByteArray@1@@Z
??NQString@kso_qt@@QBE_NPBD@Z
??NQString@kso_qt@@QBE_NVQLatin1String@1@@Z
??NQStringRef@kso_qt@@QBE_NPBD@Z
??NQTime@kso_qt@@QBE_NABV01@@Z
??NQVariant@kso_qt@@QBE_NABV01@@Z
??OQByteArray@kso_qt@@QBE_NABVQString@1@@Z
??OQByteRef@kso_qt@@QBE_ND@Z
??OQDate@kso_qt@@QBE_NABV01@@Z
??OQDateTime@kso_qt@@QBE_NABV01@@Z
??OQString@kso_qt@@QBE_NABVQByteArray@1@@Z
??OQString@kso_qt@@QBE_NPBD@Z
??OQString@kso_qt@@QBE_NVQLatin1String@1@@Z
??OQStringRef@kso_qt@@QBE_NPBD@Z
??OQTime@kso_qt@@QBE_NABV01@@Z
??OQUuid@kso_qt@@QBE_NABV01@@Z
??OQVariant@kso_qt@@QBE_NABV01@@Z
??PQByteArray@kso_qt@@QBE_NABVQString@1@@Z
??PQByteRef@kso_qt@@QBE_ND@Z
??PQDate@kso_qt@@QBE_NABV01@@Z
??PQDateTime@kso_qt@@QBE_NABV01@@Z
??PQString@kso_qt@@QBE_NABVQByteArray@1@@Z
??PQString@kso_qt@@QBE_NPBD@Z
??PQString@kso_qt@@QBE_NVQLatin1String@1@@Z
??PQStringRef@kso_qt@@QBE_NPBD@Z
??PQTime@kso_qt@@QBE_NABV01@@Z
??PQVariant@kso_qt@@QBE_NABV01@@Z
??RQCollator@kso_qt@@QBE_NABVQString@1@0@Z
??RQLoggingCategory@kso_qt@@QAEAAV01@XZ
??RQLoggingCategory@kso_qt@@QBEABV01@XZ
??SQBitArray@kso_qt@@QBE?AV01@XZ
??Tkso_qt@@YA?AVQBitArray@0@ABV10@0@Z
??UQRect@kso_qt@@QBE?AV01@ABV01@@Z
??UQRectF@kso_qt@@QBE?AV01@ABV01@@Z
??Ukso_qt@@YA?AVQBitArray@0@ABV10@0@Z
??XQPoint@kso_qt@@QAEAAV01@H@Z
??XQPoint@kso_qt@@QAEAAV01@M@Z
??XQPoint@kso_qt@@QAEAAV01@N@Z
??XQPointF@kso_qt@@QAEAAV01@N@Z
??XQSize@kso_qt@@QAEAAV01@N@Z
??XQSizeF@kso_qt@@QAEAAV01@N@Z
??Y?$QList@VQItemSelectionRange@kso_qt@@@kso_qt@@QAEAAV01@ABV01@@Z
??Y?$QList@VQItemSelectionRange@kso_qt@@@kso_qt@@QAEAAV01@ABVQItemSelectionRange@1@@Z
??Y?$QVector@VQPoint@kso_qt@@@kso_qt@@QAEAAV01@$$QAVQPoint@1@@Z
??Y?$QVector@VQPoint@kso_qt@@@kso_qt@@QAEAAV01@ABV01@@Z
??Y?$QVector@VQPoint@kso_qt@@@kso_qt@@QAEAAV01@ABVQPoint@1@@Z
??Y?$QVector@VQPointF@kso_qt@@@kso_qt@@QAEAAV01@$$QAVQPointF@1@@Z
??Y?$QVector@VQPointF@kso_qt@@@kso_qt@@QAEAAV01@ABV01@@Z
??Y?$QVector@VQPointF@kso_qt@@@kso_qt@@QAEAAV01@ABVQPointF@1@@Z
??Y?$QVector@VQXmlStreamAttribute@kso_qt@@@kso_qt@@QAEAAV01@$$QAVQXmlStreamAttribute@1@@Z
??Y?$QVector@VQXmlStreamAttribute@kso_qt@@@kso_qt@@QAEAAV01@ABV01@@Z
??Y?$QVector@VQXmlStreamAttribute@kso_qt@@@kso_qt@@QAEAAV01@ABVQXmlStreamAttribute@1@@Z
??YQByteArray@kso_qt@@QAEAAV01@ABV01@@Z
??YQByteArray@kso_qt@@QAEAAV01@ABVQString@1@@Z
??YQByteArray@kso_qt@@QAEAAV01@D@Z
??YQByteArray@kso_qt@@QAEAAV01@PBD@Z
??YQCborArray@kso_qt@@QAEAAV01@ABVQCborValue@1@@Z
??YQDeadlineTimer@kso_qt@@QAEAAV01@_J@Z
??YQJsonArray@kso_qt@@QAEAAV01@ABVQJsonValue@1@@Z
??YQPoint@kso_qt@@QAEAAV01@ABV01@@Z
??YQPointF@kso_qt@@QAEAAV01@ABV01@@Z
??YQRect@kso_qt@@QAEAAV01@ABVQMargins@1@@Z
??YQRectF@kso_qt@@QAEAAV01@ABVQMarginsF@1@@Z
??YQSize@kso_qt@@QAEAAV01@ABV01@@Z
??YQSizeF@kso_qt@@QAEAAV01@ABV01@@Z
??YQString@kso_qt@@QAEAAV01@ABV01@@Z
??YQString@kso_qt@@QAEAAV01@ABVQByteArray@1@@Z
??YQString@kso_qt@@QAEAAV01@ABVQStringRef@1@@Z
??YQString@kso_qt@@QAEAAV01@D@Z
??YQString@kso_qt@@QAEAAV01@PBD@Z
??YQString@kso_qt@@QAEAAV01@VQChar@1@@Z
??YQString@kso_qt@@QAEAAV01@VQLatin1String@1@@Z
??YQString@kso_qt@@QAEAAV01@W4SpecialCharacter@QChar@1@@Z
??Yconst_iterator@QAssociativeIterable@kso_qt@@QAEAAU012@H@Z
??Yconst_iterator@QSequentialIterable@kso_qt@@QAEAAU012@H@Z
??ZQDeadlineTimer@kso_qt@@QAEAAV01@_J@Z
??ZQPoint@kso_qt@@QAEAAV01@ABV01@@Z
??ZQPointF@kso_qt@@QAEAAV01@ABV01@@Z
??ZQRect@kso_qt@@QAEAAV01@ABVQMargins@1@@Z
??ZQRectF@kso_qt@@QAEAAV01@ABVQMarginsF@1@@Z
??ZQSize@kso_qt@@QAEAAV01@ABV01@@Z
??ZQSizeF@kso_qt@@QAEAAV01@ABV01@@Z
??Zconst_iterator@QAssociativeIterable@kso_qt@@QAEAAU012@H@Z
??Zconst_iterator@QSequentialIterable@kso_qt@@QAEAAU012@H@Z
??_0QPoint@kso_qt@@QAEAAV01@N@Z
??_0QPointF@kso_qt@@QAEAAV01@N@Z
??_0QSize@kso_qt@@QAEAAV01@N@Z
??_0QSizeF@kso_qt@@QAEAAV01@N@Z
??_4QBitArray@kso_qt@@QAEAAV01@ABV01@@Z
??_4QRect@kso_qt@@QAEAAV01@ABV01@@Z
??_4QRectF@kso_qt@@QAEAAV01@ABV01@@Z
??_5QBitArray@kso_qt@@QAEAAV01@ABV01@@Z
??_5QRect@kso_qt@@QAEAAV01@ABV01@@Z
??_5QRectF@kso_qt@@QAEAAV01@ABV01@@Z
??_6QBitArray@kso_qt@@QAEAAV01@ABV01@@Z
??_7QAbstractAnimation@kso_qt@@6B@
??_7QAbstractAnimationTimer@kso_qt@@6B@
??_7QAbstractDynamicMetaObject@kso_qt@@6B@
??_7QAbstractEventDispatcher@kso_qt@@6B@
??_7QAbstractEventDispatcherPrivate@kso_qt@@6B@
??_7QAbstractFileEngine@kso_qt@@6B@
??_7QAbstractFileEngineHandler@kso_qt@@6B@
??_7QAbstractFileEngineIterator@kso_qt@@6B@
??_7QAbstractItemModel@kso_qt@@6B@
??_7QAbstractItemModelPrivate@kso_qt@@6B@
??_7QAbstractListModel@kso_qt@@6B@
??_7QAbstractNativeEventFilter@kso_qt@@6B@
??_7QAbstractProxyModel@kso_qt@@6B@
??_7QAbstractProxyModelPrivate@kso_qt@@6B@
??_7QAbstractState@kso_qt@@6B@
??_7QAbstractTableModel@kso_qt@@6B@
??_7QAbstractTransition@kso_qt@@6B@
??_7QAbstractTransitionPrivate@kso_qt@@6B@
??_7QAnimationDriver@kso_qt@@6B@
??_7QAnimationDriverPrivate@kso_qt@@6B@
??_7QAnimationGroup@kso_qt@@6B@
??_7QBuffer@kso_qt@@6B@
??_7QChildEvent@kso_qt@@6B@
??_7QCoreApplication@kso_qt@@6B@
??_7QCoreApplicationPrivate@kso_qt@@6B@
??_7QDaemonThread@kso_qt@@6B@
??_7QDateTimeParser@kso_qt@@6B@
??_7QDeferredDeleteEvent@kso_qt@@6B@
??_7QDynamicMetaObjectData@kso_qt@@6B@
??_7QDynamicPropertyChangeEvent@kso_qt@@6B@
??_7QEvent@kso_qt@@6B@
??_7QEventDispatcherWin32@kso_qt@@6B@
??_7QEventDispatcherWin32Private@kso_qt@@6B@
??_7QEventLoop@kso_qt@@6B@
??_7QEventTransition@kso_qt@@6B@
??_7QEventTransitionPrivate@kso_qt@@6B@
??_7QException@kso_qt@@6B@
??_7QFSFileEngine@kso_qt@@6B@
??_7QFSFileEnginePrivate@kso_qt@@6B@
??_7QFactoryInterface@kso_qt@@6B@
??_7QFactoryLoader@kso_qt@@6B@
??_7QFile@kso_qt@@6B@
??_7QFileDevice@kso_qt@@6B@
??_7QFileSelector@kso_qt@@6B@
??_7QFileSelectorPrivate@kso_qt@@6B@
??_7QFileSystemWatcher@kso_qt@@6B@
??_7QFinalState@kso_qt@@6B@
??_7QFinalStatePrivate@kso_qt@@6B@
??_7QFutureInterfaceBase@kso_qt@@6B@
??_7QFutureWatcherBase@kso_qt@@6B@
??_7QHistoryState@kso_qt@@6B@
??_7QIODevice@kso_qt@@6B@
??_7QIODevicePrivate@kso_qt@@6B@
??_7QIdentityProxyModel@kso_qt@@6B@
??_7QItemSelectionModel@kso_qt@@6B@
??_7QLibrary@kso_qt@@6B@
??_7QMetaCallEvent@kso_qt@@6B@
??_7QMetaObjectBuilder@kso_qt@@6B@
??_7QMimeData@kso_qt@@6B@
??_7QNonContiguousByteDevice@kso_qt@@6B@
??_7QObject@kso_qt@@6B@
??_7QObjectCleanupHandler@kso_qt@@6B@
??_7QObjectData@kso_qt@@6B@
??_7QObjectPrivate@kso_qt@@6B@
??_7QObjectUserData@kso_qt@@6B@
??_7QParallelAnimationGroup@kso_qt@@6B@
??_7QPauseAnimation@kso_qt@@6B@
??_7QPluginLoader@kso_qt@@6B@
??_7QProcess@kso_qt@@6B@
??_7QPropertyAnimation@kso_qt@@6B@
??_7QRunnable@kso_qt@@6B@
??_7QSaveFile@kso_qt@@6B@
??_7QSequentialAnimationGroup@kso_qt@@6B@
??_7QSettings@kso_qt@@6B@
??_7QSettingsPrivate@kso_qt@@6B@
??_7QSharedMemory@kso_qt@@6B@
??_7QSharedMemoryPrivate@kso_qt@@6B@
??_7QSignalMapper@kso_qt@@6B@
??_7QSignalTransition@kso_qt@@6B@
??_7QSocketNotifier@kso_qt@@6B@
??_7QSortFilterProxyModel@kso_qt@@6B@
??_7QState@kso_qt@@6B@
??_7QStateMachine@kso_qt@@6B@
??_7QStateMachinePrivate@kso_qt@@6B@
??_7QStatePrivate@kso_qt@@6B@
??_7QStringListModel@kso_qt@@6B@
??_7QSystemLocale@kso_qt@@6B@
??_7QTemporaryFile@kso_qt@@6B@
??_7QTextCodec@kso_qt@@6B@
??_7QTextStream@kso_qt@@6B@
??_7QThread@kso_qt@@6B@
??_7QThreadPool@kso_qt@@6B@
??_7QThreadPoolPrivate@kso_qt@@6B@
??_7QTimeLine@kso_qt@@6B@
??_7QTimeZonePrivate@kso_qt@@6B@
??_7QTimer@kso_qt@@6B@
??_7QTimerEvent@kso_qt@@6B@
??_7QTranslator@kso_qt@@6B@
??_7QUnhandledException@kso_qt@@6B@
??_7QUnifiedTimer@kso_qt@@6B@
??_7QUtcTimeZonePrivate@kso_qt@@6B@
??_7QVariantAnimation@kso_qt@@6B@
??_7QWinEventNotifier@kso_qt@@6B@
??_7QWinTimeZonePrivate@kso_qt@@6B@
??_7QWindowsPipeReader@kso_qt@@6B@
??_7QWindowsPipeWriter@kso_qt@@6B@
??_7QXmlStreamEntityResolver@kso_qt@@6B@
??_7ResultStoreBase@QtPrivate@kso_qt@@6B@
??_7SignalEvent@QStateMachine@kso_qt@@6B@
??_7WrappedEvent@QStateMachine@kso_qt@@6B@
??_FConverterState@QTextCodec@kso_qt@@QAEXXZ
??_FExceptionHolder@QtPrivate@kso_qt@@QAEXXZ
??_FQAbstractAnimation@kso_qt@@QAEXXZ
??_FQAbstractEventDispatcher@kso_qt@@QAEXXZ
??_FQAbstractItemModel@kso_qt@@QAEXXZ
??_FQAbstractListModel@kso_qt@@QAEXXZ
??_FQAbstractProxyModel@kso_qt@@QAEXXZ
??_FQAbstractState@kso_qt@@QAEXXZ
??_FQAbstractTableModel@kso_qt@@QAEXXZ
??_FQAbstractTransition@kso_qt@@QAEXXZ
??_FQAnimationDriver@kso_qt@@QAEXXZ
??_FQAnimationGroup@kso_qt@@QAEXXZ
??_FQBuffer@kso_qt@@QAEXXZ
??_FQCollator@kso_qt@@QAEXXZ
??_FQDaemonThread@kso_qt@@QAEXXZ
??_FQDeadlineTimer@kso_qt@@QAEXXZ
??_FQDir@kso_qt@@QAEXXZ
??_FQEasingCurve@kso_qt@@QAEXXZ
??_FQEventDispatcherWin32@kso_qt@@QAEXXZ
??_FQEventLoop@kso_qt@@QAEXXZ
??_FQEventTransition@kso_qt@@QAEXXZ
??_FQFileSelector@kso_qt@@QAEXXZ
??_FQFileSystemWatcher@kso_qt@@QAEXXZ
??_FQFinalState@kso_qt@@QAEXXZ
??_FQFutureInterfaceBase@kso_qt@@QAEXXZ
??_FQFutureWatcherBase@kso_qt@@QAEXXZ
??_FQGenericArgument@kso_qt@@QAEXXZ
??_FQGenericReturnArgument@kso_qt@@QAEXXZ
??_FQHistoryState@kso_qt@@QAEXXZ
??_FQIdentityProxyModel@kso_qt@@QAEXXZ
??_FQItemSelectionModel@kso_qt@@QAEXXZ
??_FQJsonValue@kso_qt@@QAEXXZ
??_FQLibrary@kso_qt@@QAEXXZ
??_FQMutex@kso_qt@@QAEXXZ
??_FQMutexPool@kso_qt@@QAEXXZ
??_FQObject@kso_qt@@QAEXXZ
??_FQObjectPrivate@kso_qt@@QAEXXZ
??_FQParallelAnimationGroup@kso_qt@@QAEXXZ
??_FQPauseAnimation@kso_qt@@QAEXXZ
??_FQPluginLoader@kso_qt@@QAEXXZ
??_FQProcess@kso_qt@@QAEXXZ
??_FQPropertyAnimation@kso_qt@@QAEXXZ
??_FQReadWriteLock@kso_qt@@QAEXXZ
??_FQResource@kso_qt@@QAEXXZ
??_FQSaveFile@kso_qt@@QAEXXZ
??_FQSemaphore@kso_qt@@QAEXXZ
??_FQSequentialAnimationGroup@kso_qt@@QAEXXZ
??_FQSettings@kso_qt@@QAEXXZ
??_FQSharedMemory@kso_qt@@QAEXXZ
??_FQSignalMapper@kso_qt@@QAEXXZ
??_FQSignalTransition@kso_qt@@QAEXXZ
??_FQSortFilterProxyModel@kso_qt@@QAEXXZ
??_FQState@kso_qt@@QAEXXZ
??_FQStateMachine@kso_qt@@QAEXXZ
??_FQStringListModel@kso_qt@@QAEXXZ
??_FQThread@kso_qt@@QAEXXZ
??_FQThreadPool@kso_qt@@QAEXXZ
??_FQTimeLine@kso_qt@@QAEXXZ
??_FQTimer@kso_qt@@QAEXXZ
??_FQTranslator@kso_qt@@QAEXXZ
??_FQVariantAnimation@kso_qt@@QAEXXZ
??_FQWinEventNotifier@kso_qt@@QAEXXZ
??_FQWindowsPipeReader@kso_qt@@QAEXXZ
?AndroidJellyBean@QOperatingSystemVersion@kso_qt@@2V12@B
?AndroidJellyBean_MR1@QOperatingSystemVersion@kso_qt@@2V12@B
?AndroidJellyBean_MR2@QOperatingSystemVersion@kso_qt@@2V12@B
?AndroidKitKat@QOperatingSystemVersion@kso_qt@@2V12@B
?AndroidLollipop@QOperatingSystemVersion@kso_qt@@2V12@B
?AndroidLollipop_MR1@QOperatingSystemVersion@kso_qt@@2V12@B
?AndroidMarshmallow@QOperatingSystemVersion@kso_qt@@2V12@B
?AndroidNougat@QOperatingSystemVersion@kso_qt@@2V12@B
?AndroidNougat_MR1@QOperatingSystemVersion@kso_qt@@2V12@B
?AndroidOreo@QOperatingSystemVersion@kso_qt@@2V12@B
?BinaryFormatTag@QJsonDocument@kso_qt@@2IB
?MacOSBigSur@QOperatingSystemVersion@kso_qt@@2V12@B
?MacOSCatalina@QOperatingSystemVersion@kso_qt@@2V12@B
?MacOSHighSierra@QOperatingSystemVersion@kso_qt@@2V12@B
?MacOSMojave@QOperatingSystemVersion@kso_qt@@2V12@B
?MacOSSierra@QOperatingSystemVersion@kso_qt@@2V12@B
?MacintoshVersion@QSysInfo@kso_qt@@2W4MacVersion@12@B
?OSXElCapitan@QOperatingSystemVersion@kso_qt@@2V12@B
?OSXMavericks@QOperatingSystemVersion@kso_qt@@2V12@B
?OSXYosemite@QOperatingSystemVersion@kso_qt@@2V12@B
?QByteArrayList_join@QtPrivate@kso_qt@@YA?AVQByteArray@2@PBV?$QList@VQByteArray@kso_qt@@@2@PBDH@Z
?QStringList_contains@QtPrivate@kso_qt@@YA_NPBVQStringList@2@ABVQString@2@W4CaseSensitivity@Qt@2@@Z
?QStringList_contains@QtPrivate@kso_qt@@YA_NPBVQStringList@2@VQLatin1String@2@W4CaseSensitivity@Qt@2@@Z
?QStringList_contains@QtPrivate@kso_qt@@YA_NPBVQStringList@2@VQStringView@2@W4CaseSensitivity@Qt@2@@Z
?QStringList_filter@QtPrivate@kso_qt@@YA?AVQStringList@2@PBV32@ABVQRegExp@2@@Z
?QStringList_filter@QtPrivate@kso_qt@@YA?AVQStringList@2@PBV32@ABVQRegularExpression@2@@Z
?QStringList_filter@QtPrivate@kso_qt@@YA?AVQStringList@2@PBV32@ABVQString@2@W4CaseSensitivity@Qt@2@@Z
?QStringList_indexOf@QtPrivate@kso_qt@@YAHPBVQStringList@2@AAVQRegExp@2@H@Z
?QStringList_indexOf@QtPrivate@kso_qt@@YAHPBVQStringList@2@ABVQRegExp@2@H@Z
?QStringList_indexOf@QtPrivate@kso_qt@@YAHPBVQStringList@2@ABVQRegularExpression@2@H@Z
?QStringList_join@QtPrivate@kso_qt@@YA?AVQString@2@ABVQStringList@2@VQLatin1String@2@@Z
?QStringList_join@QtPrivate@kso_qt@@YA?AVQString@2@PBVQStringList@2@PBVQChar@2@H@Z
?QStringList_lastIndexOf@QtPrivate@kso_qt@@YAHPBVQStringList@2@AAVQRegExp@2@H@Z
?QStringList_lastIndexOf@QtPrivate@kso_qt@@YAHPBVQStringList@2@ABVQRegExp@2@H@Z
?QStringList_lastIndexOf@QtPrivate@kso_qt@@YAHPBVQStringList@2@ABVQRegularExpression@2@H@Z
?QStringList_removeDuplicates@QtPrivate@kso_qt@@YAHPAVQStringList@2@@Z
?QStringList_replaceInStrings@QtPrivate@kso_qt@@YAXPAVQStringList@2@ABVQRegExp@2@ABVQString@2@@Z
?QStringList_replaceInStrings@QtPrivate@kso_qt@@YAXPAVQStringList@2@ABVQRegularExpression@2@ABVQString@2@@Z
?QStringList_replaceInStrings@QtPrivate@kso_qt@@YAXPAVQStringList@2@ABVQString@2@1W4CaseSensitivity@Qt@2@@Z
?QStringList_sort@QtPrivate@kso_qt@@YAXPAVQStringList@2@W4CaseSensitivity@Qt@2@@Z
?Sizes@QFreeListDefaultConstants@kso_qt@@2QBHB
?Windows10@QOperatingSystemVersion@kso_qt@@2V12@B
?Windows2003@QOperatingSystemVersion@kso_qt@@2V12@B
?Windows7@QOperatingSystemVersion@kso_qt@@2V12@B
?Windows8@QOperatingSystemVersion@kso_qt@@2V12@B
?Windows8_1@QOperatingSystemVersion@kso_qt@@2V12@B
?WindowsVersion@QSysInfo@kso_qt@@2W4WinVersion@12@B
?WindowsVista@QOperatingSystemVersion@kso_qt@@2V12@B
?WindowsXP@QOperatingSystemVersion@kso_qt@@2V12@B
?_currentStringChunkSize@QCborStreamReader@kso_qt@@ABEHXZ
?_enterContainer_helper@QCborStreamReader@kso_qt@@AAE_NXZ
?_fillRange@QRandomGenerator@kso_qt@@AAEXPAX0@Z
?_q_animationFinished@QStateMachinePrivate@kso_qt@@QAEXXZ
?_q_data@QDeadlineTimer@kso_qt@@QBE?AU?$QPair@_JI@2@XZ
?_q_killDelayedEventTimer@QStateMachinePrivate@kso_qt@@QAEXHH@Z
?_q_process@QStateMachinePrivate@kso_qt@@QAEXXZ
?_q_queueBytesWritten@QWindowsPipeWriter@kso_qt@@QAEXUQPrivateSignal@12@@Z
?_q_queueReadyRead@QWindowsPipeReader@kso_qt@@QAEXUQPrivateSignal@12@@Z
?_q_reregisterTimers@QObjectPrivate@kso_qt@@QAEXPAX@Z
?_q_sourceModelDestroyed@QAbstractProxyModelPrivate@kso_qt@@UAEXXZ
?_q_start@QStateMachinePrivate@kso_qt@@QAEXXZ
?_q_startDelayedEventTimer@QStateMachinePrivate@kso_qt@@QAEXHH@Z
?_readByteArray_helper@QCborStreamReader@kso_qt@@AAE?AU?$StringResult@VQByteArray@kso_qt@@@12@XZ
?_readString_helper@QCborStreamReader@kso_qt@@AAE?AU?$StringResult@VQString@kso_qt@@@12@XZ
?abbreviation@QTimeZone@kso_qt@@QBE?AVQString@2@ABVQDateTime@2@@Z
?abbreviation@QTimeZonePrivate@kso_qt@@UBE?AVQString@2@_J@Z
?abbreviation@QUtcTimeZonePrivate@kso_qt@@UBE?AVQString@2@_J@Z
?abbreviation@QWinTimeZonePrivate@kso_qt@@UBE?AVQString@2@_J@Z
?abortTransaction@QDataStream@kso_qt@@QAEXXZ
?aboutToBlock@QAbstractEventDispatcher@kso_qt@@QAEXXZ
?aboutToClose@QIODevice@kso_qt@@QAEXXZ
?aboutToQuit@QCoreApplication@kso_qt@@QAEXUQPrivateSignal@12@@Z
?absoluteDir@QFileInfo@kso_qt@@QBE?AVQDir@2@XZ
?absoluteFilePath@QDir@kso_qt@@QBE?AVQString@2@ABV32@@Z
?absoluteFilePath@QFileInfo@kso_qt@@QBE?AVQString@2@XZ
?absoluteFilePath@QResource@kso_qt@@QBE?AVQString@2@XZ
?absoluteMax@QDateTimeParser@kso_qt@@IBEHHABVQDateTime@2@@Z
?absoluteMin@QDateTimeParser@kso_qt@@IBEHH@Z
?absolutePath@QDir@kso_qt@@QBE?AVQString@2@XZ
?absolutePath@QFileInfo@kso_qt@@QBE?AVQString@2@XZ
?absoluteSignalCount@QMetaObjectPrivate@kso_qt@@SAHPBUQMetaObject@2@@Z
?accept@QEvent@kso_qt@@QAEXXZ
?access@QMetaMethod@kso_qt@@QBE?AW4Access@12@XZ
?access@QMetaMethodBuilder@kso_qt@@QBE?AW4Access@QMetaMethod@2@XZ
?accessTime@QFileSystemMetaData@kso_qt@@QBE?AVQDateTime@2@XZ
?acquire@QSemaphore@kso_qt@@QAEXH@Z
?acquire@QSystemSemaphore@kso_qt@@QAE_NXZ
?activate@QMetaObject@kso_qt@@SAXPAVQObject@2@HHPAPAX@Z
?activate@QMetaObject@kso_qt@@SAXPAVQObject@2@HPAPAX@Z
?activate@QMetaObject@kso_qt@@SAXPAVQObject@2@PBU12@HPAPAX@Z
?activateCallbacks@QInternal@kso_qt@@SA_NW4Callback@12@PAPAX@Z
?activateEventNotifier@QEventDispatcherWin32Private@kso_qt@@QAEXPAVQWinEventNotifier@2@@Z
?activateEventNotifiers@QEventDispatcherWin32@kso_qt@@QAEXXZ
?activated@QSocketNotifier@kso_qt@@QAEXHUQPrivateSignal@12@@Z
?activated@QWinEventNotifier@kso_qt@@QAEXPAXUQPrivateSignal@12@@Z
?active@QAbstractState@kso_qt@@QBE_NXZ
?activeChanged@QAbstractState@kso_qt@@QAEX_N@Z
?activeThreadCount@QThreadPool@kso_qt@@QBEHXZ
?activeThreadCount@QThreadPoolPrivate@kso_qt@@QBEHXZ
?actualKey@QSettingsPrivate@kso_qt@@QBE?AVQString@2@ABV32@@Z
?add@QObjectCleanupHandler@kso_qt@@QAEPAVQObject@2@PAV32@@Z
?addAncestorStatesToEnter@QStateMachinePrivate@kso_qt@@QAEXPAVQAbstractState@2@0AAV?$QSet@PAVQAbstractState@kso_qt@@@2@1@Z
?addAnimation@QAbstractTransition@kso_qt@@QAEXPAVQAbstractAnimation@2@@Z
?addAnimation@QAnimationGroup@kso_qt@@QAEXPAVQAbstractAnimation@2@@Z
?addCanceledResult@ResultStoreBase@QtPrivate@kso_qt@@QAEHH@Z
?addClassInfo@QMetaObjectBuilder@kso_qt@@QAEHABVQByteArray@2@0@Z
?addConnection@QObjectPrivate@kso_qt@@QAEXHPAUConnection@12@@Z
?addConstructor@QMetaObjectBuilder@kso_qt@@QAE?AVQMetaMethodBuilder@2@ABVQByteArray@2@@Z
?addConstructor@QMetaObjectBuilder@kso_qt@@QAE?AVQMetaMethodBuilder@2@ABVQMetaMethod@2@@Z
?addCubicBezierSegment@QEasingCurve@kso_qt@@QAEXABVQPointF@2@00@Z
?addData@QCborStreamReader@kso_qt@@QAEXABVQByteArray@2@@Z
?addData@QCborStreamReader@kso_qt@@QAEXPBDH@Z
?addData@QCborStreamReader@kso_qt@@QAEXPBEH@Z
?addData@QCryptographicHash@kso_qt@@QAEXABVQByteArray@2@@Z
?addData@QCryptographicHash@kso_qt@@QAEXPBDH@Z
?addData@QCryptographicHash@kso_qt@@QAE_NPAVQIODevice@2@@Z
?addData@QMessageAuthenticationCode@kso_qt@@QAEXABVQByteArray@2@@Z
?addData@QMessageAuthenticationCode@kso_qt@@QAEXPBDH@Z
?addData@QMessageAuthenticationCode@kso_qt@@QAE_NPAVQIODevice@2@@Z
?addData@QXmlStreamReader@kso_qt@@QAEXABVQByteArray@2@@Z
?addData@QXmlStreamReader@kso_qt@@QAEXABVQString@2@@Z
?addData@QXmlStreamReader@kso_qt@@QAEXPBD@Z
?addDays@QDate@kso_qt@@QBE?AV12@_J@Z
?addDays@QDateTime@kso_qt@@QBE?AV12@_J@Z
?addDefaultAnimation@QStateMachine@kso_qt@@QAEXPAVQAbstractAnimation@2@@Z
?addDescendantStatesToEnter@QStateMachinePrivate@kso_qt@@QAEXPAVQAbstractState@2@AAV?$QSet@PAVQAbstractState@kso_qt@@@2@1@Z
?addEncodedQueryItem@QUrl@kso_qt@@QAEXABVQByteArray@2@0@Z
?addEnumerator@QMetaObjectBuilder@kso_qt@@QAE?AVQMetaEnumBuilder@2@ABVQByteArray@2@@Z
?addEnumerator@QMetaObjectBuilder@kso_qt@@QAE?AVQMetaEnumBuilder@2@ABVQMetaEnum@2@@Z
?addExtraNamespaceDeclaration@QXmlStreamReader@kso_qt@@QAEXABVQXmlStreamNamespaceDeclaration@2@@Z
?addExtraNamespaceDeclarations@QXmlStreamReader@kso_qt@@QAEXABV?$QVector@VQXmlStreamNamespaceDeclaration@kso_qt@@@2@@Z
?addGlobPattern@QMimeTypePrivate@kso_qt@@QAEXABVQString@2@@Z
?addHelpOption@QCommandLineParser@kso_qt@@QAE?AVQCommandLineOption@2@XZ
?addKey@QMetaEnumBuilder@kso_qt@@QAEHABVQByteArray@2@H@Z
?addLibraryPath@QCoreApplication@kso_qt@@SAXABVQString@2@@Z
?addMSecs@QDateTime@kso_qt@@QBE?AV12@_J@Z
?addMSecs@QTime@kso_qt@@QBE?AV12@H@Z
?addMetaObject@QMetaObjectBuilder@kso_qt@@QAEXPBUQMetaObject@2@V?$QFlags@W4AddMember@QMetaObjectBuilder@kso_qt@@@2@@Z
?addMethod@QMetaObjectBuilder@kso_qt@@QAE?AVQMetaMethodBuilder@2@ABVQByteArray@2@0@Z
?addMethod@QMetaObjectBuilder@kso_qt@@QAE?AVQMetaMethodBuilder@2@ABVQByteArray@2@@Z
?addMethod@QMetaObjectBuilder@kso_qt@@QAE?AVQMetaMethodBuilder@2@ABVQMetaMethod@2@@Z
?addMonths@QDate@kso_qt@@QBE?AV12@H@Z
?addMonths@QDateTime@kso_qt@@QBE?AV12@H@Z
?addNSecs@QDeadlineTimer@kso_qt@@SA?AV12@V12@_J@Z
?addOption@QCommandLineParser@kso_qt@@QAE_NABVQCommandLineOption@2@@Z
?addOptions@QCommandLineParser@kso_qt@@QAE_NABV?$QList@VQCommandLineOption@kso_qt@@@2@@Z
?addPath@QFileSystemWatcher@kso_qt@@QAE_NABVQString@2@@Z
?addPaths@QFileSystemWatcher@kso_qt@@QAE?AVQStringList@2@ABV32@@Z
?addPause@QSequentialAnimationGroup@kso_qt@@QAEPAVQPauseAnimation@2@H@Z
?addPositionalArgument@QCommandLineParser@kso_qt@@QAEXABVQString@2@00@Z
?addProperty@QMetaObjectBuilder@kso_qt@@QAE?AVQMetaPropertyBuilder@2@ABVQByteArray@2@0H@Z
?addProperty@QMetaObjectBuilder@kso_qt@@QAE?AVQMetaPropertyBuilder@2@ABVQMetaProperty@2@@Z
?addQueryItem@QUrl@kso_qt@@QAEXABVQString@2@0@Z
?addQueryItem@QUrlQuery@kso_qt@@QAEXABVQString@2@0@Z
?addRelatedMetaObject@QMetaObjectBuilder@kso_qt@@QAEHPBUQMetaObject@2@@Z
?addResourceSearchPath@QDir@kso_qt@@SAXABVQString@2@@Z
?addResult@ResultStoreBase@QtPrivate@kso_qt@@QAEHHPBX@Z
?addResults@ResultStoreBase@QtPrivate@kso_qt@@QAEHHPBXHH@Z
?addSearchPath@QDir@kso_qt@@SAXABVQString@2@0@Z
?addSearchPath@QResource@kso_qt@@SAXABVQString@2@@Z
?addSecs@QDateTime@kso_qt@@QBE?AV12@_J@Z
?addSecs@QTime@kso_qt@@QBE?AV12@H@Z
?addSignal@QMetaObjectBuilder@kso_qt@@QAE?AVQMetaMethodBuilder@2@ABVQByteArray@2@@Z
?addSlot@QMetaObjectBuilder@kso_qt@@QAE?AVQMetaMethodBuilder@2@ABVQByteArray@2@@Z
?addState@QStateMachine@kso_qt@@QAEXPAVQAbstractState@2@@Z
?addStatics@QFileSelectorPrivate@kso_qt@@SAXABVQStringList@2@@Z
?addTCBSegment@QEasingCurve@kso_qt@@QAEXABVQPointF@2@NNN@Z
?addTransition@QState@kso_qt@@QAEPAVQAbstractTransition@2@PAVQAbstractState@2@@Z
?addTransition@QState@kso_qt@@QAEPAVQSignalTransition@2@PBVQObject@2@PBDPAVQAbstractState@2@@Z
?addTransition@QState@kso_qt@@QAEXPAVQAbstractTransition@2@@Z
?addVersionOption@QCommandLineParser@kso_qt@@QAE?AVQCommandLineOption@2@XZ
?addYears@QDate@kso_qt@@QBE?AV12@H@Z
?addYears@QDateTime@kso_qt@@QBE?AV12@H@Z
?added@QChildEvent@kso_qt@@QBE_NXZ
?adjust@QRect@kso_qt@@QAEXHHHH@Z
?adjust@QRectF@kso_qt@@QAEXNNNN@Z
?adjusted@QRect@kso_qt@@QBE?AV12@HHHH@Z
?adjusted@QRectF@kso_qt@@QBE?AV12@NNNN@Z
?adjusted@QUrl@kso_qt@@QBE?AV12@V?$QUrlTwoFlags@W4UrlFormattingOption@QUrl@kso_qt@@W4ComponentFormattingOption@23@@2@@Z
?advance@QAnimationDriver@kso_qt@@UAEXXZ
?advanceAnimation@QAnimationDriver@kso_qt@@IAEX_J@Z
?aliases@QMimeType@kso_qt@@QBE?AVQStringList@2@XZ
?aliases@QTextCodec@kso_qt@@UBE?AV?$QList@VQByteArray@kso_qt@@@2@XZ
?alignmentThreshold@QArrayData@kso_qt@@SAIXZ
?allAncestors@QMimeType@kso_qt@@QBE?AVQStringList@2@XZ
?allEncodedQueryItemValues@QUrl@kso_qt@@QBE?AV?$QList@VQByteArray@kso_qt@@@2@ABVQByteArray@2@@Z
?allKeys@QSettings@kso_qt@@QBE?AVQStringList@2@XZ
?allMimeTypes@QMimeDatabase@kso_qt@@QBE?AV?$QList@VQMimeType@kso_qt@@@2@XZ
?allQueryItemValues@QUrl@kso_qt@@QBE?AVQStringList@2@ABVQString@2@@Z
?allQueryItemValues@QUrlQuery@kso_qt@@QBE?AVQStringList@2@ABVQString@2@V?$QFlags@W4ComponentFormattingOption@QUrl@kso_qt@@@2@@Z
?allSelectors@QFileSelector@kso_qt@@QBE?AVQStringList@2@XZ
?allWriteBuffersEmpty@QIODevicePrivate@kso_qt@@QBE_NXZ
?allocate@QArrayData@kso_qt@@SAPAU12@IIIV?$QFlags@W4AllocationOption@QArrayData@kso_qt@@@2@@Z
?allocateData@QContiguousCacheData@kso_qt@@SAPAU12@HH@Z
?allocateNode@QHashData@kso_qt@@QAEPAXH@Z
?allocateTimerId@QAbstractEventDispatcherPrivate@kso_qt@@SAHXZ
?allowMove@QAbstractItemModelPrivate@kso_qt@@QAE_NABVQModelIndex@2@HH0HW4Orientation@Qt@2@@Z
?allowNativeEventFilter@QAbstractNativeEventFilter@kso_qt@@QAE_NABW4AllowNativeEventFilterFlag@12@_N@Z
?amText@QLocale@kso_qt@@QBE?AVQString@2@XZ
?amplitude@QEasingCurve@kso_qt@@QBENXZ
?anchoredPattern@QRegularExpression@kso_qt@@SA?AVQString@2@ABV32@@Z
?angle@QLineF@kso_qt@@QBENABV12@@Z
?angle@QLineF@kso_qt@@QBENXZ
?angleTo@QLineF@kso_qt@@QBENABV12@@Z
?animationAt@QAnimationGroup@kso_qt@@QBEPAVQAbstractAnimation@2@H@Z
?animationCount@QAnimationGroup@kso_qt@@QBEHXZ
?animations@QAbstractTransition@kso_qt@@QBE?AV?$QList@PAVQAbstractAnimation@kso_qt@@@2@XZ
?appName@QCoreApplicationPrivate@kso_qt@@QBE?AVQString@2@XZ
?appVersion@QCoreApplicationPrivate@kso_qt@@QBE?AVQString@2@XZ
?app_compile_version@QCoreApplicationPrivate@kso_qt@@2HA
?append@?$QList@VQItemSelectionRange@kso_qt@@@kso_qt@@QAEXABV12@@Z
?append@?$QList@VQItemSelectionRange@kso_qt@@@kso_qt@@QAEXABVQItemSelectionRange@2@@Z
?append@?$QVector@VQPoint@kso_qt@@@kso_qt@@QAEX$$QAVQPoint@2@@Z
?append@?$QVector@VQPoint@kso_qt@@@kso_qt@@QAEXABV12@@Z
?append@?$QVector@VQPoint@kso_qt@@@kso_qt@@QAEXABVQPoint@2@@Z
?append@?$QVector@VQPointF@kso_qt@@@kso_qt@@QAEX$$QAVQPointF@2@@Z
?append@?$QVector@VQPointF@kso_qt@@@kso_qt@@QAEXABV12@@Z
?append@?$QVector@VQPointF@kso_qt@@@kso_qt@@QAEXABVQPointF@2@@Z
?append@?$QVector@VQXmlStreamAttribute@kso_qt@@@kso_qt@@QAEX$$QAVQXmlStreamAttribute@2@@Z
?append@?$QVector@VQXmlStreamAttribute@kso_qt@@@kso_qt@@QAEXABV12@@Z
?append@?$QVector@VQXmlStreamAttribute@kso_qt@@@kso_qt@@QAEXABVQXmlStreamAttribute@2@@Z
?append@QByteArray@kso_qt@@QAEAAV12@ABV12@@Z
?append@QByteArray@kso_qt@@QAEAAV12@ABVQString@2@@Z
?append@QByteArray@kso_qt@@QAEAAV12@D@Z
?append@QByteArray@kso_qt@@QAEAAV12@HD@Z
?append@QByteArray@kso_qt@@QAEAAV12@PBD@Z
?append@QByteArray@kso_qt@@QAEAAV12@PBDH@Z
?append@QCborArray@kso_qt@@QAEX$$QAVQCborValue@2@@Z
?append@QCborArray@kso_qt@@QAEXABVQCborValue@2@@Z
?append@QCborStreamWriter@kso_qt@@QAEX$$T@Z
?append@QCborStreamWriter@kso_qt@@QAEXABVQByteArray@2@@Z
?append@QCborStreamWriter@kso_qt@@QAEXH@Z
?append@QCborStreamWriter@kso_qt@@QAEXI@Z
?append@QCborStreamWriter@kso_qt@@QAEXM@Z
?append@QCborStreamWriter@kso_qt@@QAEXN@Z
?append@QCborStreamWriter@kso_qt@@QAEXPBDH@Z
?append@QCborStreamWriter@kso_qt@@QAEXVQLatin1String@2@@Z
?append@QCborStreamWriter@kso_qt@@QAEXVQStringView@2@@Z
?append@QCborStreamWriter@kso_qt@@QAEXVqfloat16@2@@Z
?append@QCborStreamWriter@kso_qt@@QAEXW4QCborKnownTags@2@@Z
?append@QCborStreamWriter@kso_qt@@QAEXW4QCborNegativeInteger@2@@Z
?append@QCborStreamWriter@kso_qt@@QAEXW4QCborSimpleType@2@@Z
?append@QCborStreamWriter@kso_qt@@QAEXW4QCborTag@2@@Z
?append@QCborStreamWriter@kso_qt@@QAEX_J@Z
?append@QCborStreamWriter@kso_qt@@QAEX_K@Z
?append@QCborStreamWriter@kso_qt@@QAEX_N@Z
?append@QJsonArray@kso_qt@@QAEXABVQJsonValue@2@@Z
?append@QListData@kso_qt@@QAEPAPAXABU12@@Z
?append@QListData@kso_qt@@QAEPAPAXH@Z
?append@QListData@kso_qt@@QAEPAPAXXZ
?append@QRingBuffer@kso_qt@@QAEXABVQByteArray@2@@Z
?append@QRingBuffer@kso_qt@@QAEXPBD_J@Z
?append@QString@kso_qt@@QAEAAV12@ABV12@@Z
?append@QString@kso_qt@@QAEAAV12@ABVQByteArray@2@@Z
?append@QString@kso_qt@@QAEAAV12@ABVQStringRef@2@@Z
?append@QString@kso_qt@@QAEAAV12@PBD@Z
?append@QString@kso_qt@@QAEAAV12@PBVQChar@2@H@Z
?append@QString@kso_qt@@QAEAAV12@VQChar@2@@Z
?append@QString@kso_qt@@QAEAAV12@VQLatin1String@2@@Z
?append@QXmlStreamAttributes@kso_qt@@QAEXABVQString@2@00@Z
?append@QXmlStreamAttributes@kso_qt@@QAEXABVQString@2@0@Z
?appendApplicationPathToLibraryPaths@QCoreApplicationPrivate@kso_qt@@QAEXXZ
?appendByteString@QCborStreamWriter@kso_qt@@QAEXPBDH@Z
?appendLatin1To@QAbstractConcatenable@kso_qt@@KAXPBDHPAVQChar@2@@Z
?appendNull@QCborStreamWriter@kso_qt@@QAEXXZ
?appendTextString@QCborStreamWriter@kso_qt@@QAEXPBDH@Z
?appendTo@QStringRef@kso_qt@@QBE?AV12@PAVQString@2@@Z
?appendUndefined@QCborStreamWriter@kso_qt@@QAEXXZ
?applicationDescription@QCommandLineParser@kso_qt@@QBE?AVQString@2@XZ
?applicationDirPath@QCoreApplication@kso_qt@@SA?AVQString@2@XZ
?applicationFilePath@QCoreApplication@kso_qt@@SA?AVQString@2@XZ
?applicationName@QCoreApplication@kso_qt@@SA?AVQString@2@XZ
?applicationName@QSettings@kso_qt@@QBE?AVQString@2@XZ
?applicationNameChanged@QCoreApplication@kso_qt@@QAEXXZ
?applicationPid@QCoreApplication@kso_qt@@SA_JXZ
?applicationVersion@QCoreApplication@kso_qt@@SA?AVQString@2@XZ
?applicationVersionChanged@QCoreApplication@kso_qt@@QAEXXZ
?arg@QString@kso_qt@@QBE?AV12@ABV12@00000000@Z
?arg@QString@kso_qt@@QBE?AV12@ABV12@0000000@Z
?arg@QString@kso_qt@@QBE?AV12@ABV12@000000@Z
?arg@QString@kso_qt@@QBE?AV12@ABV12@00000@Z
?arg@QString@kso_qt@@QBE?AV12@ABV12@0000@Z
?arg@QString@kso_qt@@QBE?AV12@ABV12@000@Z
?arg@QString@kso_qt@@QBE?AV12@ABV12@00@Z
?arg@QString@kso_qt@@QBE?AV12@ABV12@0@Z
?arg@QString@kso_qt@@QBE?AV12@ABV12@HVQChar@2@@Z
?arg@QString@kso_qt@@QBE?AV12@DHVQChar@2@@Z
?arg@QString@kso_qt@@QBE?AV12@FHHVQChar@2@@Z
?arg@QString@kso_qt@@QBE?AV12@GHHVQChar@2@@Z
?arg@QString@kso_qt@@QBE?AV12@HHHVQChar@2@@Z
?arg@QString@kso_qt@@QBE?AV12@IHHVQChar@2@@Z
?arg@QString@kso_qt@@QBE?AV12@JHHVQChar@2@@Z
?arg@QString@kso_qt@@QBE?AV12@KHHVQChar@2@@Z
?arg@QString@kso_qt@@QBE?AV12@NHDHVQChar@2@@Z
?arg@QString@kso_qt@@QBE?AV12@VQChar@2@H0@Z
?arg@QString@kso_qt@@QBE?AV12@VQLatin1String@2@HVQChar@2@@Z
?arg@QString@kso_qt@@QBE?AV12@VQStringView@2@HVQChar@2@@Z
?arg@QString@kso_qt@@QBE?AV12@_JHHVQChar@2@@Z
?arg@QString@kso_qt@@QBE?AV12@_KHHVQChar@2@@Z
?args@QMetaCallEvent@kso_qt@@QBEPAPAXXZ
?arguments@QCoreApplication@kso_qt@@SA?AVQStringList@2@XZ
?arguments@QProcess@kso_qt@@QBE?AVQStringList@2@XZ
?arguments@SignalEvent@QStateMachine@kso_qt@@QBE?AV?$QList@VQVariant@kso_qt@@@3@XZ
?array@QJsonDocument@kso_qt@@QBE?AVQJsonArray@2@XZ
?asprintf@QString@kso_qt@@SA?AV12@PBDZZ
?assign@QCborValueRef@kso_qt@@CAXV12@$$QAVQCborValue@2@@Z
?assign@QCborValueRef@kso_qt@@CAXV12@ABVQCborValue@2@@Z
?assign@QCborValueRef@kso_qt@@CAXV12@V12@@Z
?assignProperty@QState@kso_qt@@QAEXPAVQObject@2@PBDABVQVariant@2@@Z
?at@?$QList@VQItemSelectionRange@kso_qt@@@kso_qt@@QBEABVQItemSelectionRange@2@H@Z
?at@?$QVector@VQPoint@kso_qt@@@kso_qt@@QBEABVQPoint@2@H@Z
?at@?$QVector@VQPointF@kso_qt@@@kso_qt@@QBEABVQPointF@2@H@Z
?at@?$QVector@VQXmlStreamAttribute@kso_qt@@@kso_qt@@QBEABVQXmlStreamAttribute@2@H@Z
?at@QBitArray@kso_qt@@QBE_NH@Z
?at@QByteArray@kso_qt@@QBEDH@Z
?at@QCborArray@kso_qt@@QBE?AVQCborValue@2@H@Z
?at@QJsonArray@kso_qt@@QBE?AVQJsonValue@2@H@Z
?at@QListData@kso_qt@@QBEPAPAXH@Z
?at@QSequentialIterable@kso_qt@@QBE?AVQVariant@2@H@Z
?at@QString@kso_qt@@QBE?BVQChar@2@H@Z
?at@QStringRef@kso_qt@@QBE?BVQChar@2@H@Z
?atEnd@QAbstractFileEngine@kso_qt@@QBE_NXZ
?atEnd@QBuffer@kso_qt@@UBE_NXZ
?atEnd@QDataStream@kso_qt@@QBE_NXZ
?atEnd@QFileDevice@kso_qt@@UBE_NXZ
?atEnd@QIODevice@kso_qt@@UBE_NXZ
?atEnd@QProcess@kso_qt@@UBE_NXZ
?atEnd@QTextStream@kso_qt@@QBE_NXZ
?atEnd@QXmlStreamReader@kso_qt@@QBE_NXZ
?attach@QSharedMemory@kso_qt@@QAE_NW4AccessMode@12@@Z
?attach@QSharedMemoryPrivate@kso_qt@@QAE_NW4AccessMode@QSharedMemory@2@@Z
?attribs@QCoreApplicationPrivate@kso_qt@@2IA
?attributes@QMetaMethod@kso_qt@@QBEHXZ
?attributes@QMetaMethodBuilder@kso_qt@@QBEHXZ
?attributes@QXmlStreamReader@kso_qt@@QBE?AVQXmlStreamAttributes@2@XZ
?authority@QUrl@kso_qt@@QBE?AVQString@2@V?$QFlags@W4ComponentFormattingOption@QUrl@kso_qt@@@2@@Z
?autoDelete@QRunnable@kso_qt@@QBE_NXZ
?autoDetectUnicode@QTextStream@kso_qt@@QBE_NXZ
?autoFormatting@QXmlStreamWriter@kso_qt@@QBE_NXZ
?autoFormattingIndent@QXmlStreamWriter@kso_qt@@QBEHXZ
?autoInsertSpaces@QDebug@kso_qt@@QBE_NXZ
?autoRemove@QTemporaryDir@kso_qt@@QBE_NXZ
?autoRemove@QTemporaryFile@kso_qt@@QBE_NXZ
?available@QSemaphore@kso_qt@@QBEHXZ
?availableCodecs@QTextCodec@kso_qt@@SA?AV?$QList@VQByteArray@kso_qt@@@2@XZ
?availableMibs@QTextCodec@kso_qt@@SA?AV?$QList@H@2@XZ
?availableTimeZoneIds@QTimeZone@kso_qt@@SA?AV?$QList@VQByteArray@kso_qt@@@2@H@Z
?availableTimeZoneIds@QTimeZone@kso_qt@@SA?AV?$QList@VQByteArray@kso_qt@@@2@W4Country@QLocale@2@@Z
?availableTimeZoneIds@QTimeZone@kso_qt@@SA?AV?$QList@VQByteArray@kso_qt@@@2@XZ
?availableTimeZoneIds@QTimeZonePrivate@kso_qt@@UBE?AV?$QList@VQByteArray@kso_qt@@@2@H@Z
?availableTimeZoneIds@QTimeZonePrivate@kso_qt@@UBE?AV?$QList@VQByteArray@kso_qt@@@2@W4Country@QLocale@2@@Z
?availableTimeZoneIds@QTimeZonePrivate@kso_qt@@UBE?AV?$QList@VQByteArray@kso_qt@@@2@XZ
?availableTimeZoneIds@QUtcTimeZonePrivate@kso_qt@@UBE?AV?$QList@VQByteArray@kso_qt@@@2@H@Z
?availableTimeZoneIds@QUtcTimeZonePrivate@kso_qt@@UBE?AV?$QList@VQByteArray@kso_qt@@@2@W4Country@QLocale@2@@Z
?availableTimeZoneIds@QUtcTimeZonePrivate@kso_qt@@UBE?AV?$QList@VQByteArray@kso_qt@@@2@XZ
?availableTimeZoneIds@QWinTimeZonePrivate@kso_qt@@UBE?AV?$QList@VQByteArray@kso_qt@@@2@XZ
?awake@QAbstractEventDispatcher@kso_qt@@QAEXXZ
?back@?$QList@VQItemSelectionRange@kso_qt@@@kso_qt@@QAEAAVQItemSelectionRange@2@XZ
?back@?$QList@VQItemSelectionRange@kso_qt@@@kso_qt@@QBEABVQItemSelectionRange@2@XZ
?back@?$QVector@VQPoint@kso_qt@@@kso_qt@@QAEAAVQPoint@2@XZ
?back@?$QVector@VQPoint@kso_qt@@@kso_qt@@QBEABVQPoint@2@XZ
?back@?$QVector@VQPointF@kso_qt@@@kso_qt@@QAEAAVQPointF@2@XZ
?back@?$QVector@VQPointF@kso_qt@@@kso_qt@@QBEABVQPointF@2@XZ
?back@?$QVector@VQXmlStreamAttribute@kso_qt@@@kso_qt@@QAEAAVQXmlStreamAttribute@2@XZ
?back@?$QVector@VQXmlStreamAttribute@kso_qt@@@kso_qt@@QBEABVQXmlStreamAttribute@2@XZ
?back@QByteArray@kso_qt@@QAE?AVQByteRef@2@XZ
?back@QByteArray@kso_qt@@QBEDXZ
?back@QString@kso_qt@@QAE?AVQCharRef@2@XZ
?back@QString@kso_qt@@QBE?AVQChar@2@XZ
?back@QStringRef@kso_qt@@QBE?AVQChar@2@XZ
?baseName@QFileInfo@kso_qt@@QBE?AVQString@2@XZ
?basetable@qfloat16@kso_qt@@0QBIB
?batchSize@ResultIteratorBase@QtPrivate@kso_qt@@QBEHXZ
?batchedAdvance@ResultIteratorBase@QtPrivate@kso_qt@@QAEXXZ
?bcp47Name@QLocale@kso_qt@@QBE?AVQString@2@XZ
?bcp47Name@QLocalePrivate@kso_qt@@QBE?AVQByteArray@2@D@Z
?begin@?$QList@VQItemSelectionRange@kso_qt@@@kso_qt@@QAE?AViterator@12@XZ
?begin@?$QList@VQItemSelectionRange@kso_qt@@@kso_qt@@QBE?AVconst_iterator@12@XZ
?begin@?$QVector@VQPoint@kso_qt@@@kso_qt@@QAE?AViterator@?$QTypedArrayData@VQPoint@kso_qt@@@2@V342@@Z
?begin@?$QVector@VQPoint@kso_qt@@@kso_qt@@QAEPAVQPoint@2@XZ
?begin@?$QVector@VQPoint@kso_qt@@@kso_qt@@QBE?AVconst_iterator@?$QTypedArrayData@VQPoint@kso_qt@@@2@V342@@Z
?begin@?$QVector@VQPoint@kso_qt@@@kso_qt@@QBEPBVQPoint@2@XZ
?begin@?$QVector@VQPointF@kso_qt@@@kso_qt@@QAE?AViterator@?$QTypedArrayData@VQPointF@kso_qt@@@2@V342@@Z
?begin@?$QVector@VQPointF@kso_qt@@@kso_qt@@QAEPAVQPointF@2@XZ
?begin@?$QVector@VQPointF@kso_qt@@@kso_qt@@QBE?AVconst_iterator@?$QTypedArrayData@VQPointF@kso_qt@@@2@V342@@Z
?begin@?$QVector@VQPointF@kso_qt@@@kso_qt@@QBEPBVQPointF@2@XZ
?begin@?$QVector@VQXmlStreamAttribute@kso_qt@@@kso_qt@@QAEPAVQXmlStreamAttribute@2@XZ
?begin@?$QVector@VQXmlStreamAttribute@kso_qt@@@kso_qt@@QBEPBVQXmlStreamAttribute@2@XZ
?begin@QAssociativeIterable@kso_qt@@QBE?AUconst_iterator@12@XZ
?begin@QByteArray@kso_qt@@QAEPADXZ
?begin@QByteArray@kso_qt@@QBEPBDXZ
?begin@QCborArray@kso_qt@@QAE?AVIterator@12@XZ
?begin@QCborArray@kso_qt@@QBE?AVConstIterator@12@XZ
?begin@QCborMap@kso_qt@@QAE?AVIterator@12@XZ
?begin@QCborMap@kso_qt@@QBE?AVConstIterator@12@XZ
?begin@QJsonArray@kso_qt@@QAE?AViterator@12@XZ
?begin@QJsonArray@kso_qt@@QBE?AVconst_iterator@12@XZ
?begin@QJsonObject@kso_qt@@QAE?AViterator@12@XZ
?begin@QJsonObject@kso_qt@@QBE?AVconst_iterator@12@XZ
?begin@QListData@kso_qt@@QBEPAPAXXZ
?begin@QSequentialIterable@kso_qt@@QBE?AUconst_iterator@12@XZ
?begin@QString@kso_qt@@QAEPAVQChar@2@XZ
?begin@QString@kso_qt@@QBEPBVQChar@2@XZ
?begin@QStringRef@kso_qt@@QBEPBVQChar@2@XZ
?begin@ResultStoreBase@QtPrivate@kso_qt@@QBE?AVResultIteratorBase@23@XZ
?begin@const_iterator@QAssociativeIterable@kso_qt@@AAEXXZ
?begin@const_iterator@QSequentialIterable@kso_qt@@AAEXXZ
?beginEntryList@QAbstractFileEngine@kso_qt@@UAEPAVQAbstractFileEngineIterator@2@V?$QFlags@W4Filter@QDir@kso_qt@@@2@ABVQStringList@2@@Z
?beginEntryList@QFSFileEngine@kso_qt@@UAEPAVQAbstractFileEngineIterator@2@V?$QFlags@W4Filter@QDir@kso_qt@@@2@ABVQStringList@2@@Z
?beginGroup@QSettings@kso_qt@@QAEXABVQString@2@@Z
?beginGroupOrArray@QSettingsPrivate@kso_qt@@QAEXABVQSettingsGroup@2@@Z
?beginInsertColumns@QAbstractItemModel@kso_qt@@IAEXABVQModelIndex@2@HH@Z
?beginInsertRows@QAbstractItemModel@kso_qt@@IAEXABVQModelIndex@2@HH@Z
?beginMacrostep@QStateMachinePrivate@kso_qt@@UAEXXZ
?beginMicrostep@QStateMachine@kso_qt@@MAEXPAVQEvent@2@@Z
?beginMoveColumns@QAbstractItemModel@kso_qt@@IAE_NABVQModelIndex@2@HH0H@Z
?beginMoveRows@QAbstractItemModel@kso_qt@@IAE_NABVQModelIndex@2@HH0H@Z
?beginReadArray@QSettings@kso_qt@@QAEHABVQString@2@@Z
?beginRemoveColumns@QAbstractItemModel@kso_qt@@IAEXABVQModelIndex@2@HH@Z
?beginRemoveRows@QAbstractItemModel@kso_qt@@IAEXABVQModelIndex@2@HH@Z
?beginResetModel@QAbstractItemModel@kso_qt@@IAEXXZ
?beginSelectTransitions@QStateMachine@kso_qt@@MAEXPAVQEvent@2@@Z
?beginWriteArray@QSettings@kso_qt@@QAEXABVQString@2@H@Z
?bin@kso_qt@@YAAAVQTextStream@1@AAV21@@Z
?birthTime@QFileInfo@kso_qt@@QBE?AVQDateTime@2@XZ
?birthTime@QFileSystemMetaData@kso_qt@@QBE?AVQDateTime@2@XZ
?bits@QBitArray@kso_qt@@QBEPBDXZ
?blobSize@QMetaStringTable@kso_qt@@QBEHXZ
?blockSignals@QObject@kso_qt@@QAE_N_N@Z
?blockSize@QStorageInfo@kso_qt@@QBEHXZ
?bom@kso_qt@@YAAAVQTextStream@1@AAV21@@Z
?bootUniqueId@QSysInfo@kso_qt@@SA?AVQByteArray@2@XZ
?bottom@QItemSelectionRange@kso_qt@@QBEHXZ
?bottom@QRect@kso_qt@@QBEHXZ
?bottom@QRectF@kso_qt@@QBENXZ
?bottomLeft@QRect@kso_qt@@QBE?AVQPoint@2@XZ
?bottomLeft@QRectF@kso_qt@@QBE?AVQPointF@2@XZ
?bottomRight@QItemSelectionRange@kso_qt@@QBEABVQPersistentModelIndex@2@XZ
?bottomRight@QRect@kso_qt@@QBE?AVQPoint@2@XZ
?bottomRight@QRectF@kso_qt@@QBE?AVQPointF@2@XZ
?boundaryReasons@QTextBoundaryFinder@kso_qt@@QBE?AV?$QFlags@W4BoundaryReason@QTextBoundaryFinder@kso_qt@@@2@XZ
?boundedTo@QSize@kso_qt@@QBE?AV12@ABV12@@Z
?boundedTo@QSizeF@kso_qt@@QBE?AV12@ABV12@@Z
?buddy@QAbstractItemModel@kso_qt@@UBE?AVQModelIndex@2@ABV32@@Z
?buddy@QAbstractProxyModel@kso_qt@@UBE?AVQModelIndex@2@ABV32@@Z
?buddy@QSortFilterProxyModel@kso_qt@@UBE?AVQModelIndex@2@ABV32@@Z
?buffer@QBuffer@kso_qt@@QAEAAVQByteArray@2@XZ
?buffer@QBuffer@kso_qt@@QBEABVQByteArray@2@XZ
?build@QLibraryInfo@kso_qt@@SAPBDXZ
?buildAbi@QSysInfo@kso_qt@@SA?AVQString@2@XZ
?buildCpuArchitecture@QSysInfo@kso_qt@@SA?AVQString@2@XZ
?buildDate@QLibraryInfo@kso_qt@@SA?AVQDate@2@XZ
?bundleName@QFileInfo@kso_qt@@QBE?AVQString@2@XZ
?byteOrder@QDataStream@kso_qt@@QBE?AW4ByteOrder@12@XZ
?bytearrayToLongLong@QLocaleData@kso_qt@@SA_JPBDHPA_N@Z
?bytesAvailable@QIODevice@kso_qt@@UBE_JXZ
?bytesAvailable@QProcess@kso_qt@@UBE_JXZ
?bytesAvailable@QStorageInfo@kso_qt@@QBE_JXZ
?bytesAvailable@QWindowsPipeReader@kso_qt@@QBE_JXZ
?bytesFree@QStorageInfo@kso_qt@@QBE_JXZ
?bytesToWrite@QIODevice@kso_qt@@UBE_JXZ
?bytesToWrite@QProcess@kso_qt@@UBE_JXZ
?bytesToWrite@QWindowsPipeWriter@kso_qt@@QBE_JXZ
?bytesTotal@QStorageInfo@kso_qt@@QBE_JXZ
?bytesWritten@QIODevice@kso_qt@@QAEX_J@Z
?bytesWritten@QWindowsPipeWriter@kso_qt@@QAEX_J@Z
?c@QLocale@kso_qt@@SA?AV12@XZ
?c_str16@QString@kso_qt@@QBEPB_SXZ
?cachedApplicationFilePath@QCoreApplicationPrivate@kso_qt@@2PAVQString@2@A
?caching@QFileInfo@kso_qt@@QBE_NXZ
?callEventTest@QAbstractTransitionPrivate@kso_qt@@QAE_NPAVQEvent@2@@Z
?callOnTransition@QAbstractTransitionPrivate@kso_qt@@UAEXPAVQEvent@2@@Z
?canConvert@QVariant@kso_qt@@QBE_NH@Z
?canDropMimeData@QAbstractItemModel@kso_qt@@UBE_NPBVQMimeData@2@W4DropAction@Qt@2@HHABVQModelIndex@2@@Z
?canDropMimeData@QAbstractProxyModel@kso_qt@@UBE_NPBVQMimeData@2@W4DropAction@Qt@2@HHABVQModelIndex@2@@Z
?canEncode@QTextCodec@kso_qt@@QBE_NABVQString@2@@Z
?canEncode@QTextCodec@kso_qt@@QBE_NVQChar@2@@Z
?canEncode@QTextCodec@kso_qt@@QBE_NVQStringView@2@@Z
?canFetchMore@QAbstractItemModel@kso_qt@@UBE_NABVQModelIndex@2@@Z
?canFetchMore@QAbstractProxyModel@kso_qt@@UBE_NABVQModelIndex@2@@Z
?canFetchMore@QSortFilterProxyModel@kso_qt@@UBE_NABVQModelIndex@2@@Z
?canIncrementVectorIndex@ResultIteratorBase@QtPrivate@kso_qt@@QBE_NXZ
?canReadLine@QBuffer@kso_qt@@UBE_NXZ
?canReadLine@QIODevice@kso_qt@@UBE_NXZ
?canReadLine@QProcess@kso_qt@@UBE_NXZ
?canReadLine@QWindowsPipeReader@kso_qt@@QBE_NXZ
?canReverseIterate@QSequentialIterable@kso_qt@@QBE_NXZ
?canUninstallAnimationDriver@QUnifiedTimer@kso_qt@@QAE_NPAVQAnimationDriver@2@@Z
?canWrite@QWindowsPipeWriter@kso_qt@@QAEXXZ
?cancel@QFutureInterfaceBase@kso_qt@@QAEXXZ
?cancel@QFutureWatcherBase@kso_qt@@QAEXXZ
?cancel@QThreadPool@kso_qt@@QAEXPAVQRunnable@2@@Z
?cancelAllDelayedEvents@QStateMachinePrivate@kso_qt@@QAEXXZ
?cancelDelayedEvent@QStateMachine@kso_qt@@QAE_NH@Z
?cancelWriting@QSaveFile@kso_qt@@QAEXXZ
?canceled@QFutureWatcherBase@kso_qt@@QAEXXZ
?canonicalFilePath@QFileInfo@kso_qt@@QBE?AVQString@2@XZ
?canonicalPath@QDir@kso_qt@@QBE?AVQString@2@XZ
?canonicalPath@QFileInfo@kso_qt@@QBE?AVQString@2@XZ
?cap@QRegExp@kso_qt@@QAE?AVQString@2@H@Z
?cap@QRegExp@kso_qt@@QBE?AVQString@2@H@Z
?capacity@?$QVector@VQPoint@kso_qt@@@kso_qt@@QBEHXZ
?capacity@?$QVector@VQPointF@kso_qt@@@kso_qt@@QBEHXZ
?capacity@?$QVector@VQXmlStreamAttribute@kso_qt@@@kso_qt@@QBEHXZ
?capacity@QByteArray@kso_qt@@QBEHXZ
?capacity@QString@kso_qt@@QBEHXZ
?captureCount@QRegExp@kso_qt@@QBEHXZ
?captureCount@QRegularExpression@kso_qt@@QBEHXZ
?captured@QRegularExpressionMatch@kso_qt@@QBE?AVQString@2@ABV32@@Z
?captured@QRegularExpressionMatch@kso_qt@@QBE?AVQString@2@H@Z
?captured@QRegularExpressionMatch@kso_qt@@QBE?AVQString@2@VQStringView@2@@Z
?capturedEnd@QRegularExpressionMatch@kso_qt@@QBEHABVQString@2@@Z
?capturedEnd@QRegularExpressionMatch@kso_qt@@QBEHH@Z
?capturedEnd@QRegularExpressionMatch@kso_qt@@QBEHVQStringView@2@@Z
?capturedLength@QRegularExpressionMatch@kso_qt@@QBEHABVQString@2@@Z
?capturedLength@QRegularExpressionMatch@kso_qt@@QBEHH@Z
?capturedLength@QRegularExpressionMatch@kso_qt@@QBEHVQStringView@2@@Z
?capturedRef@QRegularExpressionMatch@kso_qt@@QBE?AVQStringRef@2@ABVQString@2@@Z
?capturedRef@QRegularExpressionMatch@kso_qt@@QBE?AVQStringRef@2@H@Z
?capturedRef@QRegularExpressionMatch@kso_qt@@QBE?AVQStringRef@2@VQStringView@2@@Z
?capturedStart@QRegularExpressionMatch@kso_qt@@QBEHABVQString@2@@Z
?capturedStart@QRegularExpressionMatch@kso_qt@@QBEHH@Z
?capturedStart@QRegularExpressionMatch@kso_qt@@QBEHVQStringView@2@@Z
?capturedTexts@QRegExp@kso_qt@@QAE?AVQStringList@2@XZ
?capturedTexts@QRegExp@kso_qt@@QBE?AVQStringList@2@XZ
?capturedTexts@QRegularExpressionMatch@kso_qt@@QBE?AVQStringList@2@XZ
?capturedView@QRegularExpressionMatch@kso_qt@@QBE?AVQStringView@2@H@Z
?capturedView@QRegularExpressionMatch@kso_qt@@QBE?AVQStringView@2@V32@@Z
?caseSensitive@QAbstractFileEngine@kso_qt@@UBE_NXZ
?caseSensitive@QFSFileEngine@kso_qt@@UBE_NXZ
?caseSensitivity@QCollator@kso_qt@@QBE?AW4CaseSensitivity@Qt@2@XZ
?caseSensitivity@QRegExp@kso_qt@@QBE?AW4CaseSensitivity@Qt@2@XZ
?caseSensitivity@QStringMatcher@kso_qt@@QBE?AW4CaseSensitivity@Qt@2@XZ
?cast@QMetaObject@kso_qt@@QBEPAVQObject@2@PAV32@@Z
?cast@QMetaObject@kso_qt@@QBEPBVQObject@2@PBV32@@Z
?category@QChar@kso_qt@@QBE?AW4Category@12@XZ
?category@QChar@kso_qt@@SI?AW4Category@12@I@Z
?category@QCharRef@kso_qt@@QBE?AW4Category@QChar@2@XZ
?categoryName@QLoggingCategory@kso_qt@@QBEPBDXZ
?cbegin@?$QList@VQItemSelectionRange@kso_qt@@@kso_qt@@QBE?AVconst_iterator@12@XZ
?cbegin@?$QVector@VQPoint@kso_qt@@@kso_qt@@QBE?AVconst_iterator@?$QTypedArrayData@VQPoint@kso_qt@@@2@V342@@Z
?cbegin@?$QVector@VQPoint@kso_qt@@@kso_qt@@QBEPBVQPoint@2@XZ
?cbegin@?$QVector@VQPointF@kso_qt@@@kso_qt@@QBE?AVconst_iterator@?$QTypedArrayData@VQPointF@kso_qt@@@2@V342@@Z
?cbegin@?$QVector@VQPointF@kso_qt@@@kso_qt@@QBEPBVQPointF@2@XZ
?cbegin@?$QVector@VQXmlStreamAttribute@kso_qt@@@kso_qt@@QBEPBVQXmlStreamAttribute@2@XZ
?cbegin@QByteArray@kso_qt@@QBEPBDXZ
?cbegin@QCborArray@kso_qt@@QBE?AVConstIterator@12@XZ
?cbegin@QCborMap@kso_qt@@QBE?AVConstIterator@12@XZ
?cbegin@QString@kso_qt@@QBEPBVQChar@2@XZ
?cbegin@QStringRef@kso_qt@@QBEPBVQChar@2@XZ
?cd@QDir@kso_qt@@QAE_NABVQString@2@@Z
?cdUp@QDir@kso_qt@@QAE_NXZ
?cell@QChar@kso_qt@@QBEEXZ
?cell@QCharRef@kso_qt@@QBEEXZ
?cend@?$QList@VQItemSelectionRange@kso_qt@@@kso_qt@@QBE?AVconst_iterator@12@XZ
?cend@?$QVector@VQPoint@kso_qt@@@kso_qt@@QBE?AVconst_iterator@?$QTypedArrayData@VQPoint@kso_qt@@@2@V342@@Z
?cend@?$QVector@VQPoint@kso_qt@@@kso_qt@@QBEPBVQPoint@2@XZ
?cend@?$QVector@VQPointF@kso_qt@@@kso_qt@@QBE?AVconst_iterator@?$QTypedArrayData@VQPointF@kso_qt@@@2@V342@@Z
?cend@?$QVector@VQPointF@kso_qt@@@kso_qt@@QBEPBVQPointF@2@XZ
?cend@?$QVector@VQXmlStreamAttribute@kso_qt@@@kso_qt@@QBEPBVQXmlStreamAttribute@2@XZ
?cend@QByteArray@kso_qt@@QBEPBDXZ
?cend@QCborArray@kso_qt@@QBE?AVConstIterator@12@XZ
?cend@QCborMap@kso_qt@@QBE?AVConstIterator@12@XZ
?cend@QString@kso_qt@@QBEPBVQChar@2@XZ
?cend@QStringRef@kso_qt@@QBEPBVQChar@2@XZ
?center@QLine@kso_qt@@QBE?AVQPoint@2@XZ
?center@QLineF@kso_qt@@QBE?AVQPointF@2@XZ
?center@QRect@kso_qt@@QBE?AVQPoint@2@XZ
?center@QRectF@kso_qt@@QBE?AVQPointF@2@XZ
?center@kso_qt@@YAAAVQTextStream@1@AAV21@@Z
?changePersistentIndex@QAbstractItemModel@kso_qt@@IAEXABVQModelIndex@2@0@Z
?changePersistentIndexList@QAbstractItemModel@kso_qt@@IAEXABV?$QList@VQModelIndex@kso_qt@@@2@0@Z
?channelBytesWritten@QIODevice@kso_qt@@QAEXH_J@Z
?channelReadyRead@QIODevice@kso_qt@@QAEXH@Z
?characterOffset@QXmlStreamReader@kso_qt@@QBE_JXZ
?checkConnectArgs@QMetaObject@kso_qt@@SA_NABVQMetaMethod@2@0@Z
?checkConnectArgs@QMetaObject@kso_qt@@SA_NPBD0@Z
?checkIndex@QAbstractItemModel@kso_qt@@QBE_NABVQModelIndex@2@V?$QFlags@W4CheckIndexOption@QAbstractItemModel@kso_qt@@@2@@Z
?checkInstance@QCoreApplicationPrivate@kso_qt@@SA_NPBD@Z
?checkPipeState@QWindowsPipeReader@kso_qt@@AAEKXZ
?checkQObjectShared@ExternalRefCountData@QtSharedPointer@kso_qt@@QAEXPBVQObject@3@@Z
?checkReceiverThread@QCoreApplicationPrivate@kso_qt@@SAXPAVQObject@2@@Z
?child@QChildEvent@kso_qt@@QBEPAVQObject@2@XZ
?child@QModelIndex@kso_qt@@QBE?AV12@HH@Z
?child@QPersistentModelIndex@kso_qt@@QBE?AVQModelIndex@2@HH@Z
?childEvent@QObject@kso_qt@@MAEXPAVQChildEvent@2@@Z
?childGroups@QSettings@kso_qt@@QBE?AVQStringList@2@XZ
?childKeys@QSettings@kso_qt@@QBE?AVQStringList@2@XZ
?childMode@QState@kso_qt@@QBE?AW4ChildMode@12@XZ
?childModeChanged@QState@kso_qt@@QAEXUQPrivateSignal@12@@Z
?childStates@QStatePrivate@kso_qt@@QBE?AV?$QList@PAVQAbstractState@kso_qt@@@2@XZ
?children@QObject@kso_qt@@QBEABV?$QList@PAVQObject@kso_qt@@@2@XZ
?children@QResource@kso_qt@@IBE?AVQStringList@2@XZ
?chop@QByteArray@kso_qt@@QAEXH@Z
?chop@QRingBuffer@kso_qt@@QAEX_J@Z
?chop@QString@kso_qt@@QAEXH@Z
?chop@QStringRef@kso_qt@@QAEXH@Z
?chopped@QByteArray@kso_qt@@QBE?AV12@H@Z
?chopped@QString@kso_qt@@QBE?AV12@H@Z
?chopped@QStringRef@kso_qt@@QBE?AV12@H@Z
?classInfo@QMetaObject@kso_qt@@QBE?AVQMetaClassInfo@2@H@Z
?classInfoCount@QMetaObject@kso_qt@@QBEHXZ
?classInfoCount@QMetaObjectBuilder@kso_qt@@QBEHXZ
?classInfoName@QMetaObjectBuilder@kso_qt@@QBE?AVQByteArray@2@H@Z
?classInfoOffset@QMetaObject@kso_qt@@QBEHXZ
?classInfoValue@QMetaObjectBuilder@kso_qt@@QBE?AVQByteArray@2@H@Z
?className@QMetaObject@kso_qt@@QBEPBDXZ
?className@QMetaObjectBuilder@kso_qt@@QBE?AVQByteArray@2@XZ
?cleanConnectionLists@QObjectPrivate@kso_qt@@QAEXXZ
?cleanHandle@QSharedMemoryPrivate@kso_qt@@QAE_NXZ
?cleanPath@QDir@kso_qt@@SA?AVQString@2@ABV32@@Z
?cleanupThreadData@QCoreApplicationPrivate@kso_qt@@QAEXXZ
?clear@?$QList@VQItemSelectionRange@kso_qt@@@kso_qt@@QAEXXZ
?clear@?$QVector@VQPoint@kso_qt@@@kso_qt@@QAEXXZ
?clear@?$QVector@VQPointF@kso_qt@@@kso_qt@@QAEXXZ
?clear@?$QVector@VQXmlStreamAttribute@kso_qt@@@kso_qt@@QAEXXZ
?clear@QAnimationGroup@kso_qt@@QAEXXZ
?clear@QBitArray@kso_qt@@QAEXXZ
?clear@QByteArray@kso_qt@@QAEXXZ
?clear@QCborArray@kso_qt@@QAEXXZ
?clear@QCborMap@kso_qt@@QAEXXZ
?clear@QCborStreamReader@kso_qt@@QAEXXZ
?clear@QFileSystemMetaData@kso_qt@@QAEXXZ
?clear@QItemSelectionModel@kso_qt@@UAEXXZ
?clear@QMimeData@kso_qt@@QAEXXZ
?clear@QMimeTypePrivate@kso_qt@@QAEXXZ
?clear@QObjectCleanupHandler@kso_qt@@QAEXXZ
?clear@QProcessEnvironment@kso_qt@@QAEXXZ
?clear@QRingBuffer@kso_qt@@QAEXXZ
?clear@QSettings@kso_qt@@QAEXXZ
?clear@QSortFilterProxyModel@kso_qt@@QAEXXZ
?clear@QString@kso_qt@@QAEXXZ
?clear@QStringRef@kso_qt@@QAEXXZ
?clear@QThreadPool@kso_qt@@QAEXXZ
?clear@QThreadPoolPrivate@kso_qt@@QAEXXZ
?clear@QUrl@kso_qt@@QAEXXZ
?clear@QUrlQuery@kso_qt@@QAEXXZ
?clear@QVariant@kso_qt@@QAEXXZ
?clear@QXmlStreamReader@kso_qt@@QAEXXZ
?clear@QXmlStreamStringRef@kso_qt@@QAEXXZ
?clearApplicationFilePath@QCoreApplicationPrivate@kso_qt@@SAXXZ
?clearBit@QBitArray@kso_qt@@QAEXH@Z
?clearCache@QConfFile@kso_qt@@SAXXZ
?clearCurrentIndex@QItemSelectionModel@kso_qt@@UAEXXZ
?clearError@QStateMachine@kso_qt@@QAEXXZ
?clearFlags@QFileSystemMetaData@kso_qt@@QAEXV?$QFlags@W4MetaDataFlag@QFileSystemMetaData@kso_qt@@@2@@Z
?clearHistory@QStateMachinePrivate@kso_qt@@QAEXXZ
?clearPositionalArguments@QCommandLineParser@kso_qt@@QAEXXZ
?clearSelection@QItemSelectionModel@kso_qt@@QAEXXZ
?clockType@QElapsedTimer@kso_qt@@SA?AW4ClockType@12@XZ
?clone@QException@kso_qt@@UBEPAV12@XZ
?clone@QTimeZonePrivate@kso_qt@@UBEPAV12@XZ
?clone@QUnhandledException@kso_qt@@UBEPAV12@XZ
?clone@QUtcTimeZonePrivate@kso_qt@@UBEPAV12@XZ
?clone@QWinTimeZonePrivate@kso_qt@@UBEPAV12@XZ
?cloneFlags@QArrayData@kso_qt@@QBE?AV?$QFlags@W4AllocationOption@QArrayData@kso_qt@@@2@XZ
?cloneTo@QAbstractFileEngine@kso_qt@@UAE_NPAV12@@Z
?cloneTo@QFSFileEngine@kso_qt@@UAE_NPAVQAbstractFileEngine@2@@Z
?close@QAbstractFileEngine@kso_qt@@UAE_NXZ
?close@QBuffer@kso_qt@@UAEXXZ
?close@QFSFileEngine@kso_qt@@UAE_NXZ
?close@QFileDevice@kso_qt@@UAEXXZ
?close@QIODevice@kso_qt@@UAEXXZ
?close@QProcess@kso_qt@@UAEXXZ
?close@QSaveFile@kso_qt@@EAEXXZ
?closeFdFh@QFSFileEnginePrivate@kso_qt@@QAE_NXZ
?closePrintDevice@QCoreApplication@kso_qt@@QAEXAAVQString@2@@Z
?closeReadChannel@QProcess@kso_qt@@QAEXW4ProcessChannel@12@@Z
?closeWriteChannel@QProcess@kso_qt@@QAEXXZ
?closestPausedAnimationTimerTimeToFinish@QUnifiedTimer@kso_qt@@AAEHXZ
?closingDown@QAbstractEventDispatcher@kso_qt@@UAEXXZ
?closingDown@QCoreApplication@kso_qt@@SA_NXZ
?closingDown@QEventDispatcherWin32@kso_qt@@UAEXXZ
?cmp@QVariant@kso_qt@@QBE_NABV12@@Z
?codeToCountry@QLocalePrivate@kso_qt@@SA?AW4Country@QLocale@2@VQStringView@2@@Z
?codeToLanguage@QLocalePrivate@kso_qt@@SA?AW4Language@QLocale@2@VQStringView@2@@Z
?codeToScript@QLocalePrivate@kso_qt@@SA?AW4Script@QLocale@2@VQStringView@2@@Z
?codec@QTextStream@kso_qt@@QBEPAVQTextCodec@2@XZ
?codec@QXmlStreamWriter@kso_qt@@QBEPAVQTextCodec@2@XZ
?codecForHtml@QTextCodec@kso_qt@@SAPAV12@ABVQByteArray@2@@Z
?codecForHtml@QTextCodec@kso_qt@@SAPAV12@ABVQByteArray@2@PAV12@@Z
?codecForLocale@QTextCodec@kso_qt@@SAPAV12@XZ
?codecForMib@QTextCodec@kso_qt@@SAPAV12@H@Z
?codecForName@QTextCodec@kso_qt@@SAPAV12@ABVQByteArray@2@@Z
?codecForName@QTextCodec@kso_qt@@SAPAV12@PBD@Z
?codecForTr@QTextCodec@kso_qt@@SAPAV12@XZ
?codecForUtfText@QTextCodec@kso_qt@@SAPAV12@ABVQByteArray@2@@Z
?codecForUtfText@QTextCodec@kso_qt@@SAPAV12@ABVQByteArray@2@PAV12@@Z
?color@QMapNodeBase@kso_qt@@QBE?AW4Color@12@XZ
?colorData@QMimeData@kso_qt@@QBE?AVQVariant@2@XZ
?column@QModelIndex@kso_qt@@QBEHXZ
?column@QPersistentModelIndex@kso_qt@@QBEHXZ
?columnCount@QAbstractListModel@kso_qt@@EBEHABVQModelIndex@2@@Z
?columnCount@QIdentityProxyModel@kso_qt@@UBEHABVQModelIndex@2@@Z
?columnCount@QSortFilterProxyModel@kso_qt@@UBEHABVQModelIndex@2@@Z
?columnIntersectsSelection@QItemSelectionModel@kso_qt@@QBE_NHABVQModelIndex@2@@Z
?columnNumber@QXmlStreamReader@kso_qt@@QBE_JXZ
?columnsAboutToBeInserted@QAbstractItemModel@kso_qt@@QAEXABVQModelIndex@2@HHUQPrivateSignal@12@@Z
?columnsAboutToBeInserted@QAbstractItemModelPrivate@kso_qt@@QAEXABVQModelIndex@2@HH@Z
?columnsAboutToBeMoved@QAbstractItemModel@kso_qt@@QAEXABVQModelIndex@2@HH0HUQPrivateSignal@12@@Z
?columnsAboutToBeRemoved@QAbstractItemModel@kso_qt@@QAEXABVQModelIndex@2@HHUQPrivateSignal@12@@Z
?columnsAboutToBeRemoved@QAbstractItemModelPrivate@kso_qt@@QAEXABVQModelIndex@2@HH@Z
?columnsInserted@QAbstractItemModel@kso_qt@@QAEXABVQModelIndex@2@HHUQPrivateSignal@12@@Z
?columnsInserted@QAbstractItemModelPrivate@kso_qt@@QAEXABVQModelIndex@2@HH@Z
?columnsMoved@QAbstractItemModel@kso_qt@@QAEXABVQModelIndex@2@HH0HUQPrivateSignal@12@@Z
?columnsRemoved@QAbstractItemModel@kso_qt@@QAEXABVQModelIndex@2@HHUQPrivateSignal@12@@Z
?columnsRemoved@QAbstractItemModelPrivate@kso_qt@@QAEXABVQModelIndex@2@HH@Z
?combiningClass@QChar@kso_qt@@QBEEXZ
?combiningClass@QChar@kso_qt@@SIEI@Z
?combiningClass@QCharRef@kso_qt@@QBEEXZ
?comment@QMimeType@kso_qt@@QBE?AVQString@2@XZ
?comment@QTimeZone@kso_qt@@QBE?AVQString@2@XZ
?comment@QTimeZonePrivate@kso_qt@@UBE?AVQString@2@XZ
?comment@QUtcTimeZonePrivate@kso_qt@@UBE?AVQString@2@XZ
?comment@QWinTimeZonePrivate@kso_qt@@UBE?AVQString@2@XZ
?commit@QSaveFile@kso_qt@@QAE_NXZ
?commitTransaction@QDataStream@kso_qt@@QAE_NXZ
?commitTransaction@QIODevice@kso_qt@@QAEXXZ
?commonPrefix@QVersionNumber@kso_qt@@SA?AV12@ABV12@0@Z
?compact@QJsonArray@kso_qt@@AAEXXZ
?compact@QJsonObject@kso_qt@@AAEXXZ
?compare@QByteArray@kso_qt@@QBEHABV12@W4CaseSensitivity@Qt@2@@Z
?compare@QByteArray@kso_qt@@QBEHPBDW4CaseSensitivity@Qt@2@@Z
?compare@QCborArray@kso_qt@@QBEHABV12@@Z
?compare@QCborMap@kso_qt@@QBEHABV12@@Z
?compare@QCborValue@kso_qt@@QBEHABV12@@Z
?compare@QCborValueRef@kso_qt@@QBEHABVQCborValue@2@@Z
?compare@QCollator@kso_qt@@QBEHABVQString@2@0@Z
?compare@QCollator@kso_qt@@QBEHABVQStringRef@2@0@Z
?compare@QCollator@kso_qt@@QBEHPBVQChar@2@H0H@Z
?compare@QCollatorSortKey@kso_qt@@QBEHABV12@@Z
?compare@QMetaType@kso_qt@@SA_NPBX0HPAH@Z
?compare@QOperatingSystemVersion@kso_qt@@CAHABV12@0@Z
?compare@QString@kso_qt@@QBEHABV12@W4CaseSensitivity@Qt@2@@Z
?compare@QString@kso_qt@@QBEHABVQStringRef@2@W4CaseSensitivity@Qt@2@@Z
?compare@QString@kso_qt@@QBEHVQLatin1String@2@W4CaseSensitivity@Qt@2@@Z
?compare@QString@kso_qt@@QBEHVQStringView@2@W4CaseSensitivity@Qt@2@@Z
?compare@QString@kso_qt@@SAHABV12@0W4CaseSensitivity@Qt@2@@Z
?compare@QString@kso_qt@@SAHABV12@ABVQStringRef@2@W4CaseSensitivity@Qt@2@@Z
?compare@QString@kso_qt@@SAHABV12@VQLatin1String@2@W4CaseSensitivity@Qt@2@@Z
?compare@QString@kso_qt@@SAHVQLatin1String@2@ABV12@W4CaseSensitivity@Qt@2@@Z
?compare@QStringRef@kso_qt@@QBEHABV12@W4CaseSensitivity@Qt@2@@Z
?compare@QStringRef@kso_qt@@QBEHABVQByteArray@2@W4CaseSensitivity@Qt@2@@Z
?compare@QStringRef@kso_qt@@QBEHABVQString@2@W4CaseSensitivity@Qt@2@@Z
?compare@QStringRef@kso_qt@@QBEHVQLatin1String@2@W4CaseSensitivity@Qt@2@@Z
?compare@QStringRef@kso_qt@@SAHABV12@0W4CaseSensitivity@Qt@2@@Z
?compare@QStringRef@kso_qt@@SAHABV12@ABVQString@2@W4CaseSensitivity@Qt@2@@Z
?compare@QStringRef@kso_qt@@SAHABV12@VQLatin1String@2@W4CaseSensitivity@Qt@2@@Z
?compare@QVariant@kso_qt@@QBEHABV12@@Z
?compare@QVersionNumber@kso_qt@@SAHABV12@0@Z
?compareStrings@QtPrivate@kso_qt@@YAHVQLatin1String@2@0W4CaseSensitivity@Qt@2@@Z
?compareStrings@QtPrivate@kso_qt@@YAHVQLatin1String@2@VQStringView@2@W4CaseSensitivity@Qt@2@@Z
?compareStrings@QtPrivate@kso_qt@@YAHVQStringView@2@0W4CaseSensitivity@Qt@2@@Z
?compareStrings@QtPrivate@kso_qt@@YAHVQStringView@2@VQLatin1String@2@W4CaseSensitivity@Qt@2@@Z
?compare_helper@QString@kso_qt@@CAHPBVQChar@2@H0HW4CaseSensitivity@Qt@2@@Z
?compare_helper@QString@kso_qt@@CAHPBVQChar@2@HPBDHW4CaseSensitivity@Qt@2@@Z
?compare_helper@QString@kso_qt@@CAHPBVQChar@2@HVQLatin1String@2@W4CaseSensitivity@Qt@2@@Z
?completeBaseName@QFileInfo@kso_qt@@QBE?AVQString@2@XZ
?completeSuffix@QFileInfo@kso_qt@@QBE?AVQString@2@XZ
?compressEvent@QCoreApplication@kso_qt@@MAE_NPAVQEvent@2@PAVQObject@2@PAVQPostEventList@2@@Z
?computeEntrySet@QStateMachinePrivate@kso_qt@@QAE?AV?$QList@PAVQAbstractState@kso_qt@@@2@ABV?$QList@PAVQAbstractTransition@kso_qt@@@2@AAV?$QSet@PAVQAbstractState@kso_qt@@@2@PAUCalculationCache@2@@Z
?computeExitSet@QStateMachinePrivate@kso_qt@@QAE?AV?$QList@PAVQAbstractState@kso_qt@@@2@ABV?$QList@PAVQAbstractTransition@kso_qt@@@2@PAUCalculationCache@2@@Z
?computeExitSet_Unordered@QStateMachinePrivate@kso_qt@@QAE?AV?$QSet@PAVQAbstractState@kso_qt@@@2@ABV?$QList@PAVQAbstractTransition@kso_qt@@@2@PAUCalculationCache@2@@Z
?computeExitSet_Unordered@QStateMachinePrivate@kso_qt@@QAE?AV?$QSet@PAVQAbstractState@kso_qt@@@2@PAVQAbstractTransition@2@PAUCalculationCache@2@@Z
?computePendingRestorables@QStateMachinePrivate@kso_qt@@QBE?AV?$QHash@VRestorableId@QStateMachinePrivate@kso_qt@@VQVariant@3@@2@ABV?$QList@PAVQAbstractState@kso_qt@@@2@@Z
?computePropertyAssignments@QStateMachinePrivate@kso_qt@@QBE?AV?$QHash@PAVQAbstractState@kso_qt@@V?$QVector@UQPropertyAssignment@kso_qt@@@2@@2@ABV?$QList@PAVQAbstractState@kso_qt@@@2@AAV?$QHash@VRestorableId@QStateMachinePrivate@kso_qt@@VQVariant@3@@2@@Z
?concrete@QCborValueRef@kso_qt@@ABE?AVQCborValue@2@XZ
?concrete@QCborValueRef@kso_qt@@CA?AVQCborValue@2@V12@@Z
?concreteType@QCborValueRef@kso_qt@@ABE?AW4Type@QCborValue@2@XZ
?concreteType@QCborValueRef@kso_qt@@CA?AW4Type@QCborValue@2@V12@@Z
?configuration@QStateMachine@kso_qt@@QBE?AV?$QSet@PAVQAbstractState@kso_qt@@@2@XZ
?connect@QMetaObject@kso_qt@@SA?AVConnection@12@PBVQObject@2@H0HHPAH@Z
?connect@QObject@kso_qt@@QBE?AVConnection@QMetaObject@2@PBV12@PBD1W4ConnectionType@Qt@2@@Z
?connect@QObject@kso_qt@@SA?AVConnection@QMetaObject@2@PBV12@ABVQMetaMethod@2@01W4ConnectionType@Qt@2@@Z
?connect@QObject@kso_qt@@SA?AVConnection@QMetaObject@2@PBV12@PBD01W4ConnectionType@Qt@2@@Z
?connect@QObjectPrivate@kso_qt@@SA?AVConnection@QMetaObject@2@PBVQObject@2@HPAVQSlotObjectBase@QtPrivate@2@W4ConnectionType@Qt@2@@Z
?connectImpl@QObject@kso_qt@@CA?AVConnection@QMetaObject@2@PBV12@PAPAX01PAVQSlotObjectBase@QtPrivate@2@W4ConnectionType@Qt@2@PBHPBU42@@Z
?connectImpl@QObjectPrivate@kso_qt@@SA?AVConnection@QMetaObject@2@PBVQObject@2@H0PAPAXPAVQSlotObjectBase@QtPrivate@2@W4ConnectionType@Qt@2@PBHPBU42@@Z
?connectNotify@QBuffer@kso_qt@@MAEXABVQMetaMethod@2@@Z
?connectNotify@QFutureWatcherBase@kso_qt@@MAEXABVQMetaMethod@2@@Z
?connectNotify@QObject@kso_qt@@MAEXABVQMetaMethod@2@@Z
?connectNotify@QObjectPrivate@kso_qt@@QAEXABVQMetaMethod@2@@Z
?connectOutputInterface@QFutureWatcherBase@kso_qt@@IAEXXZ
?connectSlotsByName@QMetaObject@kso_qt@@SAXPAVQObject@2@@Z
?constBegin@?$QList@VQItemSelectionRange@kso_qt@@@kso_qt@@QBE?AVconst_iterator@12@XZ
?constBegin@?$QVector@VQPoint@kso_qt@@@kso_qt@@QBE?AVconst_iterator@?$QTypedArrayData@VQPoint@kso_qt@@@2@V342@@Z
?constBegin@?$QVector@VQPoint@kso_qt@@@kso_qt@@QBEPBVQPoint@2@XZ
?constBegin@?$QVector@VQPointF@kso_qt@@@kso_qt@@QBE?AVconst_iterator@?$QTypedArrayData@VQPointF@kso_qt@@@2@V342@@Z
?constBegin@?$QVector@VQPointF@kso_qt@@@kso_qt@@QBEPBVQPointF@2@XZ
?constBegin@?$QVector@VQXmlStreamAttribute@kso_qt@@@kso_qt@@QBEPBVQXmlStreamAttribute@2@XZ
?constBegin@QByteArray@kso_qt@@QBEPBDXZ
?constBegin@QCborArray@kso_qt@@QBE?AVConstIterator@12@XZ
?constBegin@QCborMap@kso_qt@@QBE?AVConstIterator@12@XZ
?constBegin@QJsonArray@kso_qt@@QBE?AVconst_iterator@12@XZ
?constBegin@QJsonObject@kso_qt@@QBE?AVconst_iterator@12@XZ
?constBegin@QString@kso_qt@@QBEPBVQChar@2@XZ
?constBegin@QStringRef@kso_qt@@QBEPBVQChar@2@XZ
?constData@?$QVector@VQPoint@kso_qt@@@kso_qt@@QBEPBVQPoint@2@XZ
?constData@?$QVector@VQPointF@kso_qt@@@kso_qt@@QBEPBVQPointF@2@XZ
?constData@?$QVector@VQXmlStreamAttribute@kso_qt@@@kso_qt@@QBEPBVQXmlStreamAttribute@2@XZ
?constData@QByteArray@kso_qt@@QBEPBDXZ
?constData@QSharedMemory@kso_qt@@QBEPBXXZ
?constData@QString@kso_qt@@QBEPBVQChar@2@XZ
?constData@QStringRef@kso_qt@@QBEPBVQChar@2@XZ
?constData@QVariant@kso_qt@@QBEPBXXZ
?constEnd@?$QList@VQItemSelectionRange@kso_qt@@@kso_qt@@QBE?AVconst_iterator@12@XZ
?constEnd@?$QVector@VQPoint@kso_qt@@@kso_qt@@QBE?AVconst_iterator@?$QTypedArrayData@VQPoint@kso_qt@@@2@V342@@Z
?constEnd@?$QVector@VQPoint@kso_qt@@@kso_qt@@QBEPBVQPoint@2@XZ
?constEnd@?$QVector@VQPointF@kso_qt@@@kso_qt@@QBE?AVconst_iterator@?$QTypedArrayData@VQPointF@kso_qt@@@2@V342@@Z
?constEnd@?$QVector@VQPointF@kso_qt@@@kso_qt@@QBEPBVQPointF@2@XZ
?constEnd@?$QVector@VQXmlStreamAttribute@kso_qt@@@kso_qt@@QBEPBVQXmlStreamAttribute@2@XZ
?constEnd@QByteArray@kso_qt@@QBEPBDXZ
?constEnd@QCborArray@kso_qt@@QBE?AVConstIterator@12@XZ
?constEnd@QCborMap@kso_qt@@QBE?AVConstIterator@12@XZ
?constEnd@QJsonArray@kso_qt@@QBE?AVconst_iterator@12@XZ
?constEnd@QJsonObject@kso_qt@@QBE?AVconst_iterator@12@XZ
?constEnd@QString@kso_qt@@QBEPBVQChar@2@XZ
?constEnd@QStringRef@kso_qt@@QBEPBVQChar@2@XZ
?constFind@QCborMap@kso_qt@@QBE?AVConstIterator@12@ABVQCborValue@2@@Z
?constFind@QCborMap@kso_qt@@QBE?AVConstIterator@12@ABVQString@2@@Z
?constFind@QCborMap@kso_qt@@QBE?AVConstIterator@12@VQLatin1String@2@@Z
?constFind@QCborMap@kso_qt@@QBE?AVConstIterator@12@_J@Z
?constFind@QJsonObject@kso_qt@@QBE?AVconst_iterator@12@ABVQString@2@@Z
?constFind@QJsonObject@kso_qt@@QBE?AVconst_iterator@12@VQLatin1String@2@@Z
?constFirst@?$QList@VQItemSelectionRange@kso_qt@@@kso_qt@@QBEABVQItemSelectionRange@2@XZ
?constFirst@?$QVector@VQPoint@kso_qt@@@kso_qt@@QBEABVQPoint@2@XZ
?constFirst@?$QVector@VQPointF@kso_qt@@@kso_qt@@QBEABVQPointF@2@XZ
?constFirst@?$QVector@VQXmlStreamAttribute@kso_qt@@@kso_qt@@QBEABVQXmlStreamAttribute@2@XZ
?constLast@?$QList@VQItemSelectionRange@kso_qt@@@kso_qt@@QBEABVQItemSelectionRange@2@XZ
?constLast@?$QVector@VQPoint@kso_qt@@@kso_qt@@QBEABVQPoint@2@XZ
?constLast@?$QVector@VQPointF@kso_qt@@@kso_qt@@QBEABVQPointF@2@XZ
?constLast@?$QVector@VQXmlStreamAttribute@kso_qt@@@kso_qt@@QBEABVQXmlStreamAttribute@2@XZ
?construct@QMetaType@kso_qt@@QBEPAXPAXPBX@Z
?construct@QMetaType@kso_qt@@SAPAXHPAXPBX@Z
?construct@QMetaType@kso_qt@@SAPAXHPBX@Z
?constructExtended@QMetaType@kso_qt@@ABEPAXPAXPBX@Z
?constructor@QMetaObject@kso_qt@@QBE?AVQMetaMethod@2@H@Z
?constructor@QMetaObjectBuilder@kso_qt@@QBE?AVQMetaMethodBuilder@2@H@Z
?constructorCount@QMetaObject@kso_qt@@QBEHXZ
?constructorCount@QMetaObjectBuilder@kso_qt@@QBEHXZ
?containerDepth@QCborStreamReader@kso_qt@@QBEHXZ
?contains@?$QList@VQItemSelectionRange@kso_qt@@@kso_qt@@QBE_NABVQItemSelectionRange@2@@Z
?contains@?$QVector@VQPoint@kso_qt@@@kso_qt@@QBE_NABVQPoint@2@@Z
?contains@?$QVector@VQPointF@kso_qt@@@kso_qt@@QBE_NABVQPointF@2@@Z
?contains@?$QVector@VQXmlStreamAttribute@kso_qt@@@kso_qt@@QBE_NABVQXmlStreamAttribute@2@@Z
?contains@QByteArray@kso_qt@@QBE_NABV12@@Z
?contains@QByteArray@kso_qt@@QBE_ND@Z
?contains@QByteArray@kso_qt@@QBE_NPBD@Z
?contains@QCborArray@kso_qt@@QBE_NABVQCborValue@2@@Z
?contains@QCborMap@kso_qt@@QBE_NABVQCborValue@2@@Z
?contains@QCborMap@kso_qt@@QBE_NABVQString@2@@Z
?contains@QCborMap@kso_qt@@QBE_NVQLatin1String@2@@Z
?contains@QCborMap@kso_qt@@QBE_N_J@Z
?contains@QItemSelection@kso_qt@@QBE_NABVQModelIndex@2@@Z
?contains@QItemSelectionRange@kso_qt@@QBE_NABVQModelIndex@2@@Z
?contains@QItemSelectionRange@kso_qt@@QBE_NHHABVQModelIndex@2@@Z
?contains@QJsonArray@kso_qt@@QBE_NABVQJsonValue@2@@Z
?contains@QJsonObject@kso_qt@@QBE_NABVQString@2@@Z
?contains@QJsonObject@kso_qt@@QBE_NVQLatin1String@2@@Z
?contains@QProcessEnvironment@kso_qt@@QBE_NABVQString@2@@Z
?contains@QRect@kso_qt@@QBE_NABV12@_N@Z
?contains@QRect@kso_qt@@QBE_NABVQPoint@2@_N@Z
?contains@QRect@kso_qt@@QBE_NHH@Z
?contains@QRect@kso_qt@@QBE_NHH_N@Z
?contains@QRectF@kso_qt@@QBE_NABV12@@Z
?contains@QRectF@kso_qt@@QBE_NABVQPointF@2@@Z
?contains@QRectF@kso_qt@@QBE_NNN@Z
?contains@QSettings@kso_qt@@QBE_NABVQString@2@@Z
?contains@QString@kso_qt@@QBE_NAAVQRegExp@2@@Z
?contains@QString@kso_qt@@QBE_NABV12@W4CaseSensitivity@Qt@2@@Z
?contains@QString@kso_qt@@QBE_NABVQRegExp@2@@Z
?contains@QString@kso_qt@@QBE_NABVQRegularExpression@2@@Z
?contains@QString@kso_qt@@QBE_NABVQRegularExpression@2@PAVQRegularExpressionMatch@2@@Z
?contains@QString@kso_qt@@QBE_NABVQStringRef@2@W4CaseSensitivity@Qt@2@@Z
?contains@QString@kso_qt@@QBE_NVQChar@2@W4CaseSensitivity@Qt@2@@Z
?contains@QString@kso_qt@@QBE_NVQLatin1String@2@W4CaseSensitivity@Qt@2@@Z
?contains@QStringRef@kso_qt@@QBE_NABV12@W4CaseSensitivity@Qt@2@@Z
?contains@QStringRef@kso_qt@@QBE_NABVQString@2@W4CaseSensitivity@Qt@2@@Z
?contains@QStringRef@kso_qt@@QBE_NVQChar@2@W4CaseSensitivity@Qt@2@@Z
?contains@QStringRef@kso_qt@@QBE_NVQLatin1String@2@W4CaseSensitivity@Qt@2@@Z
?contains@ResultStoreBase@QtPrivate@kso_qt@@QBE_NH@Z
?contains_impl@?$QList@VQItemSelectionRange@kso_qt@@@kso_qt@@ABE_NABVQItemSelectionRange@2@UArrayCompatibleLayout@QListData@2@@Z
?contains_impl@?$QList@VQItemSelectionRange@kso_qt@@@kso_qt@@ABE_NABVQItemSelectionRange@2@UNotArrayCompatibleLayout@QListData@2@@Z
?convert@QMetaType@kso_qt@@SA_NPBXHPAXH@Z
?convert@QVariant@kso_qt@@QAE_NH@Z
?convert@QVariant@kso_qt@@QBE_NHPAX@Z
?convertFromAscii@QAbstractConcatenable@kso_qt@@KAXDAAPAVQChar@2@@Z
?convertFromAscii@QAbstractConcatenable@kso_qt@@KAXPBDHAAPAVQChar@2@@Z
?convertToLatin1@QtPrivate@kso_qt@@YA?AVQByteArray@2@VQStringView@2@@Z
?convertToLocal8Bit@QtPrivate@kso_qt@@YA?AVQByteArray@2@VQStringView@2@@Z
?convertToUcs4@QtPrivate@kso_qt@@YA?AV?$QVector@I@2@VQStringView@2@@Z
?convertToUtf8@QtPrivate@kso_qt@@YA?AVQByteArray@2@VQStringView@2@@Z
?copy@QAbstractFileEngine@kso_qt@@UAE_NABVQString@2@@Z
?copy@QFSFileEngine@kso_qt@@UAE_NABVQString@2@@Z
?copy@QFile@kso_qt@@QAE_NABVQString@2@@Z
?copy@QFile@kso_qt@@SA_NABVQString@2@0@Z
?copyConstruct@?$QVector@VQPoint@kso_qt@@@kso_qt@@AAEXPBVQPoint@2@0PAV32@@Z
?copyConstruct@?$QVector@VQPointF@kso_qt@@@kso_qt@@AAEXPBVQPointF@2@0PAV32@@Z
?copyConstruct@?$QVector@VQXmlStreamAttribute@kso_qt@@@kso_qt@@AAEXPBVQXmlStreamAttribute@2@0PAV32@@Z
?count@?$QList@VQItemSelectionRange@kso_qt@@@kso_qt@@QBEHABVQItemSelectionRange@2@@Z
?count@?$QList@VQItemSelectionRange@kso_qt@@@kso_qt@@QBEHXZ
?count@?$QVector@VQPoint@kso_qt@@@kso_qt@@QBEHABVQPoint@2@@Z
?count@?$QVector@VQPoint@kso_qt@@@kso_qt@@QBEHXZ
?count@?$QVector@VQPointF@kso_qt@@@kso_qt@@QBEHABVQPointF@2@@Z
?count@?$QVector@VQPointF@kso_qt@@@kso_qt@@QBEHXZ
?count@?$QVector@VQXmlStreamAttribute@kso_qt@@@kso_qt@@QBEHABVQXmlStreamAttribute@2@@Z
?count@?$QVector@VQXmlStreamAttribute@kso_qt@@@kso_qt@@QBEHXZ
?count@QBitArray@kso_qt@@QBEHXZ
?count@QBitArray@kso_qt@@QBEH_N@Z
?count@QByteArray@kso_qt@@QBEHABV12@@Z
?count@QByteArray@kso_qt@@QBEHD@Z
?count@QByteArray@kso_qt@@QBEHPBD@Z
?count@QByteArray@kso_qt@@QBEHXZ
?count@QDir@kso_qt@@QBEIXZ
?count@QJsonArray@kso_qt@@QBEHXZ
?count@QJsonObject@kso_qt@@QBEHXZ
?count@QString@kso_qt@@QBEHABV12@W4CaseSensitivity@Qt@2@@Z
?count@QString@kso_qt@@QBEHABVQRegExp@2@@Z
?count@QString@kso_qt@@QBEHABVQRegularExpression@2@@Z
?count@QString@kso_qt@@QBEHABVQStringRef@2@W4CaseSensitivity@Qt@2@@Z
?count@QString@kso_qt@@QBEHVQChar@2@W4CaseSensitivity@Qt@2@@Z
?count@QString@kso_qt@@QBEHXZ
?count@QStringRef@kso_qt@@QBEHABV12@W4CaseSensitivity@Qt@2@@Z
?count@QStringRef@kso_qt@@QBEHABVQString@2@W4CaseSensitivity@Qt@2@@Z
?count@QStringRef@kso_qt@@QBEHVQChar@2@W4CaseSensitivity@Qt@2@@Z
?count@QStringRef@kso_qt@@QBEHXZ
?count@ResultStoreBase@QtPrivate@kso_qt@@QBEHXZ
?count_impl@?$QList@VQItemSelectionRange@kso_qt@@@kso_qt@@ABEHABVQItemSelectionRange@2@UArrayCompatibleLayout@QListData@2@@Z
?count_impl@?$QList@VQItemSelectionRange@kso_qt@@@kso_qt@@ABEHABVQItemSelectionRange@2@UNotArrayCompatibleLayout@QListData@2@@Z
?countriesForLanguage@QLocale@kso_qt@@SA?AV?$QList@W4Country@QLocale@kso_qt@@@2@W4Language@12@@Z
?country@QLocale@kso_qt@@QBE?AW4Country@12@XZ
?country@QTimeZone@kso_qt@@QBE?AW4Country@QLocale@2@XZ
?country@QTimeZonePrivate@kso_qt@@UBE?AW4Country@QLocale@2@XZ
?country@QUtcTimeZonePrivate@kso_qt@@UBE?AW4Country@QLocale@2@XZ
?countryCode@QLocalePrivate@kso_qt@@QBE?AVQLatin1String@2@XZ
?countryId@QLocalePrivate@kso_qt@@QBEGXZ
?countryToCode@QLocalePrivate@kso_qt@@SA?AVQLatin1String@2@W4Country@QLocale@2@@Z
?countryToString@QLocale@kso_qt@@SA?AVQString@2@W4Country@12@@Z
?crbegin@?$QList@VQItemSelectionRange@kso_qt@@@kso_qt@@QBE?AV?$reverse_iterator@Vconst_iterator@?$QList@VQItemSelectionRange@kso_qt@@@kso_qt@@@std@@XZ
?crbegin@?$QVector@VQPoint@kso_qt@@@kso_qt@@QBE?AV?$reverse_iterator@PBVQPoint@kso_qt@@@std@@XZ
?crbegin@?$QVector@VQPoint@kso_qt@@@kso_qt@@QBE?AV?$reverse_iterator@Vconst_iterator@?$QTypedArrayData@VQPoint@kso_qt@@@kso_qt@@@std@@XZ
?crbegin@?$QVector@VQPointF@kso_qt@@@kso_qt@@QBE?AV?$reverse_iterator@PBVQPointF@kso_qt@@@std@@XZ
?crbegin@?$QVector@VQPointF@kso_qt@@@kso_qt@@QBE?AV?$reverse_iterator@Vconst_iterator@?$QTypedArrayData@VQPointF@kso_qt@@@kso_qt@@@std@@XZ
?crbegin@?$QVector@VQXmlStreamAttribute@kso_qt@@@kso_qt@@QBE?AV?$reverse_iterator@PBVQXmlStreamAttribute@kso_qt@@@std@@XZ
?crbegin@QByteArray@kso_qt@@QBE?AV?$reverse_iterator@PBD@std@@XZ
?crbegin@QString@kso_qt@@QBE?AV?$reverse_iterator@PBVQChar@kso_qt@@@std@@XZ
?crbegin@QStringRef@kso_qt@@QBE?AV?$reverse_iterator@PBVQChar@kso_qt@@@std@@XZ
?create@QAbstractFileEngine@kso_qt@@SAPAV12@ABVQString@2@@Z
?create@QLocalePrivate@kso_qt@@SAPAV12@PBUQLocaleData@2@V?$QFlags@W4NumberOption@QLocale@kso_qt@@@2@@Z
?create@QMetaType@kso_qt@@QBEPAXPBX@Z
?create@QMetaType@kso_qt@@SAPAXHPBX@Z
?create@QNonContiguousByteDeviceFactory@kso_qt@@SAPAVQNonContiguousByteDevice@2@PAVQByteArray@2@@Z
?create@QNonContiguousByteDeviceFactory@kso_qt@@SAPAVQNonContiguousByteDevice@2@PAVQIODevice@2@@Z
?create@QNonContiguousByteDeviceFactory@kso_qt@@SAPAVQNonContiguousByteDevice@2@V?$QSharedPointer@VQRingBuffer@kso_qt@@@2@@Z
?create@QSettingsPrivate@kso_qt@@SAPAV12@ABVQString@2@W4Format@QSettings@2@@Z
?create@QSettingsPrivate@kso_qt@@SAPAV12@W4Format@QSettings@2@W4Scope@42@ABVQString@2@2@Z
?create@QSharedMemory@kso_qt@@QAE_NHW4AccessMode@12@@Z
?create@QSharedMemoryPrivate@kso_qt@@QAE_NH@Z
?create@QVariant@kso_qt@@QAEXHPBX@Z
?createData@QMapDataBase@kso_qt@@SAPAU12@XZ
?createEventDispatcher@QCoreApplicationPrivate@kso_qt@@UAEXXZ
?createExtended@QMetaType@kso_qt@@ABEPAXPBX@Z
?createIndex@QAbstractItemModel@kso_qt@@IBE?AVQModelIndex@2@HHI@Z
?createIndex@QAbstractItemModel@kso_qt@@IBE?AVQModelIndex@2@HHPAX@Z
?createIndex@QAbstractItemModelPrivate@kso_qt@@QBE?AVQModelIndex@2@HHH@Z
?createIndex@QAbstractItemModelPrivate@kso_qt@@QBE?AVQModelIndex@2@HHPAX@Z
?createInitialTransition@QStateMachinePrivate@kso_qt@@QBEPAVQAbstractTransition@2@XZ
?createInternalHwnd@QEventDispatcherWin32@kso_qt@@IAEXXZ
?createLocalFile@QTemporaryFile@kso_qt@@SAPAV12@AAVQFile@2@@Z
?createLocalFile@QTemporaryFile@kso_qt@@SAPAV12@ABVQString@2@@Z
?createMutex@QMutexPool@kso_qt@@AAEPAVQMutex@2@H@Z
?createNativeFile@QTemporaryFile@kso_qt@@SAPAV12@AAVQFile@2@@Z
?createNativeFile@QTemporaryFile@kso_qt@@SAPAV12@ABVQString@2@@Z
?createNode@QMapDataBase@kso_qt@@QAEPAUQMapNodeBase@2@HHPAU32@_N@Z
?createProcessArgumentsModifier@QProcess@kso_qt@@QBE?AV?$function@$$A6AXPAUCreateProcessArguments@QProcess@kso_qt@@@Z@std@@XZ
?createProperty@QAbstractDynamicMetaObject@kso_qt@@UAEHPBD0@Z
?createSeparatedList@QLocale@kso_qt@@QBE?AVQString@2@ABVQStringList@2@@Z
?createShared@QNonContiguousByteDeviceFactory@kso_qt@@SA?AV?$QSharedPointer@VQNonContiguousByteDevice@kso_qt@@@2@PAVQByteArray@2@@Z
?createShared@QNonContiguousByteDeviceFactory@kso_qt@@SA?AV?$QSharedPointer@VQNonContiguousByteDevice@kso_qt@@@2@PAVQIODevice@2@@Z
?createShared@QNonContiguousByteDeviceFactory@kso_qt@@SA?AV?$QSharedPointer@VQNonContiguousByteDevice@kso_qt@@@2@V?$QSharedPointer@VQRingBuffer@kso_qt@@@2@@Z
?createThreadImpl@QThread@kso_qt@@CAPAV12@$$QAV?$future@X@std@@@Z
?createUuid@QUuid@kso_qt@@SA?AV12@XZ
?createUuidV3@QUuid@kso_qt@@SA?AV12@ABV12@ABVQByteArray@2@@Z
?createUuidV3@QUuid@kso_qt@@SA?AV12@ABV12@ABVQString@2@@Z
?createUuidV5@QUuid@kso_qt@@SA?AV12@ABV12@ABVQByteArray@2@@Z
?createUuidV5@QUuid@kso_qt@@SA?AV12@ABV12@ABVQString@2@@Z
?created@QFileInfo@kso_qt@@QBE?AVQDateTime@2@XZ
?crend@?$QList@VQItemSelectionRange@kso_qt@@@kso_qt@@QBE?AV?$reverse_iterator@Vconst_iterator@?$QList@VQItemSelectionRange@kso_qt@@@kso_qt@@@std@@XZ
?crend@?$QVector@VQPoint@kso_qt@@@kso_qt@@QBE?AV?$reverse_iterator@PBVQPoint@kso_qt@@@std@@XZ
?crend@?$QVector@VQPoint@kso_qt@@@kso_qt@@QBE?AV?$reverse_iterator@Vconst_iterator@?$QTypedArrayData@VQPoint@kso_qt@@@kso_qt@@@std@@XZ
?crend@?$QVector@VQPointF@kso_qt@@@kso_qt@@QBE?AV?$reverse_iterator@PBVQPointF@kso_qt@@@std@@XZ
?crend@?$QVector@VQPointF@kso_qt@@@kso_qt@@QBE?AV?$reverse_iterator@Vconst_iterator@?$QTypedArrayData@VQPointF@kso_qt@@@kso_qt@@@std@@XZ
?crend@?$QVector@VQXmlStreamAttribute@kso_qt@@@kso_qt@@QBE?AV?$reverse_iterator@PBVQXmlStreamAttribute@kso_qt@@@std@@XZ
?crend@QByteArray@kso_qt@@QBE?AV?$reverse_iterator@PBD@std@@XZ
?crend@QString@kso_qt@@QBE?AV?$reverse_iterator@PBVQChar@kso_qt@@@std@@XZ
?crend@QStringRef@kso_qt@@QBE?AV?$reverse_iterator@PBVQChar@kso_qt@@@std@@XZ
?critical@QMessageLogger@kso_qt@@QBAXABVQLoggingCategory@2@PBDZZ
?critical@QMessageLogger@kso_qt@@QBAXP6AABVQLoggingCategory@2@XZPBDZZ
?critical@QMessageLogger@kso_qt@@QBAXPBDZZ
?critical@QMessageLogger@kso_qt@@QBE?AVQDebug@2@ABVQLoggingCategory@2@@Z
?critical@QMessageLogger@kso_qt@@QBE?AVQDebug@2@P6AABVQLoggingCategory@2@XZ@Z
?critical@QMessageLogger@kso_qt@@QBE?AVQDebug@2@XZ
?ctor@QMetaType@kso_qt@@AAEXPBVQMetaTypeInterface@2@@Z
?cubicBezierSpline@QEasingCurve@kso_qt@@QBE?AV?$QList@VQPointF@kso_qt@@@2@XZ
?currencySymbol@QLocale@kso_qt@@QBE?AVQString@2@W4CurrencySymbolFormat@12@@Z
?current@QDeadlineTimer@kso_qt@@SA?AV12@W4TimerType@Qt@2@@Z
?current@QDir@kso_qt@@SA?AV12@XZ
?current@QOperatingSystemVersion@kso_qt@@SA?AV12@XZ
?current@QThreadData@kso_qt@@SAPAV12@_N@Z
?currentAnimation@QSequentialAnimationGroup@kso_qt@@QBEPAVQAbstractAnimation@2@XZ
?currentAnimationChanged@QSequentialAnimationGroup@kso_qt@@QAEXPAVQAbstractAnimation@2@@Z
?currentChanged@QItemSelectionModel@kso_qt@@QAEXABVQModelIndex@2@0@Z
?currentColumnChanged@QItemSelectionModel@kso_qt@@QAEXABVQModelIndex@2@0@Z
?currentCpuArchitecture@QSysInfo@kso_qt@@SA?AVQString@2@XZ
?currentDate@QDate@kso_qt@@SA?AV12@XZ
?currentDateTime@QDateTime@kso_qt@@SA?AV12@XZ
?currentDateTimeUtc@QDateTime@kso_qt@@SA?AV12@XZ
?currentFileInfo@QAbstractFileEngineIterator@kso_qt@@UBE?AVQFileInfo@2@XZ
?currentFilePath@QAbstractFileEngineIterator@kso_qt@@QBE?AVQString@2@XZ
?currentFrame@QTimeLine@kso_qt@@QBEHXZ
?currentIndex@QItemSelectionModel@kso_qt@@QBE?AVQModelIndex@2@XZ
?currentLoop@QAbstractAnimation@kso_qt@@QBEHXZ
?currentLoopChanged@QAbstractAnimation@kso_qt@@QAEXH@Z
?currentLoopTime@QAbstractAnimation@kso_qt@@QBEHXZ
?currentMSecsSinceEpoch@QDateTime@kso_qt@@SA_JXZ
?currentOffset@QCborStreamReader@kso_qt@@QBE_JXZ
?currentPath@QDir@kso_qt@@SA?AVQString@2@XZ
?currentPath@QFSFileEngine@kso_qt@@SA?AVQString@2@ABV32@@Z
?currentReadChannel@QIODevice@kso_qt@@QBEHXZ
?currentRowChanged@QItemSelectionModel@kso_qt@@QAEXABVQModelIndex@2@0@Z
?currentSecsSinceEpoch@QDateTime@kso_qt@@SA_JXZ
?currentStringChunkSize@QCborStreamReader@kso_qt@@QBEHXZ
?currentThread@QThread@kso_qt@@SAPAV12@XZ
?currentThreadId@QThread@kso_qt@@SAPAXXZ
?currentTime@QAbstractAnimation@kso_qt@@QBEHXZ
?currentTime@QTime@kso_qt@@SA?AV12@XZ
?currentTime@QTimeLine@kso_qt@@QBEHXZ
?currentType@QOperatingSystemVersion@kso_qt@@SA?AW4OSType@12@XZ
?currentUnicodeVersion@QChar@kso_qt@@SI?AW4UnicodeVersion@12@XZ
?currentValue@QTimeLine@kso_qt@@QBENXZ
?currentValue@QVariantAnimation@kso_qt@@QBE?AVQVariant@2@XZ
?currentWriteChannel@QIODevice@kso_qt@@QBEHXZ
?cursorPosition@QDateTimeParser@kso_qt@@MBEHXZ
?curveShape@QTimeLine@kso_qt@@QBE?AW4CurveShape@12@XZ
?customEvent@QObject@kso_qt@@MAEXPAVQEvent@2@@Z
?customType@QEasingCurve@kso_qt@@QBEP6ANN@ZXZ
?d_func@QAbstractAnimation@kso_qt@@AAEPAVQAbstractAnimationPrivate@2@XZ
?d_func@QAbstractAnimation@kso_qt@@ABEPBVQAbstractAnimationPrivate@2@XZ
?d_func@QAbstractEventDispatcher@kso_qt@@AAEPAVQAbstractEventDispatcherPrivate@2@XZ
?d_func@QAbstractEventDispatcher@kso_qt@@ABEPBVQAbstractEventDispatcherPrivate@2@XZ
?d_func@QAbstractFileEngine@kso_qt@@AAEPAVQAbstractFileEnginePrivate@2@XZ
?d_func@QAbstractFileEngine@kso_qt@@ABEPBVQAbstractFileEnginePrivate@2@XZ
?d_func@QAbstractItemModel@kso_qt@@AAEPAVQAbstractItemModelPrivate@2@XZ
?d_func@QAbstractItemModel@kso_qt@@ABEPBVQAbstractItemModelPrivate@2@XZ
?d_func@QAbstractProxyModel@kso_qt@@AAEPAVQAbstractProxyModelPrivate@2@XZ
?d_func@QAbstractProxyModel@kso_qt@@ABEPBVQAbstractProxyModelPrivate@2@XZ
?d_func@QAbstractState@kso_qt@@AAEPAVQAbstractStatePrivate@2@XZ
?d_func@QAbstractState@kso_qt@@ABEPBVQAbstractStatePrivate@2@XZ
?d_func@QAbstractTransition@kso_qt@@AAEPAVQAbstractTransitionPrivate@2@XZ
?d_func@QAbstractTransition@kso_qt@@ABEPBVQAbstractTransitionPrivate@2@XZ
?d_func@QAnimationDriver@kso_qt@@AAEPAVQAnimationDriverPrivate@2@XZ
?d_func@QAnimationDriver@kso_qt@@ABEPBVQAnimationDriverPrivate@2@XZ
?d_func@QAnimationGroup@kso_qt@@AAEPAVQAnimationGroupPrivate@2@XZ
?d_func@QAnimationGroup@kso_qt@@ABEPBVQAnimationGroupPrivate@2@XZ
?d_func@QBuffer@kso_qt@@AAEPAVQBufferPrivate@2@XZ
?d_func@QBuffer@kso_qt@@ABEPBVQBufferPrivate@2@XZ
?d_func@QCoreApplication@kso_qt@@AAEPAVQCoreApplicationPrivate@2@XZ
?d_func@QCoreApplication@kso_qt@@ABEPBVQCoreApplicationPrivate@2@XZ
?d_func@QDir@kso_qt@@AAEPAVQDirPrivate@2@XZ
?d_func@QDir@kso_qt@@ABEPBVQDirPrivate@2@XZ
?d_func@QEventDispatcherWin32@kso_qt@@AAEPAVQEventDispatcherWin32Private@2@XZ
?d_func@QEventDispatcherWin32@kso_qt@@ABEPBVQEventDispatcherWin32Private@2@XZ
?d_func@QEventLoop@kso_qt@@AAEPAVQEventLoopPrivate@2@XZ
?d_func@QEventLoop@kso_qt@@ABEPBVQEventLoopPrivate@2@XZ
?d_func@QEventTransition@kso_qt@@AAEPAVQEventTransitionPrivate@2@XZ
?d_func@QEventTransition@kso_qt@@ABEPBVQEventTransitionPrivate@2@XZ
?d_func@QFSFileEngine@kso_qt@@AAEPAVQFSFileEnginePrivate@2@XZ
?d_func@QFSFileEngine@kso_qt@@ABEPBVQFSFileEnginePrivate@2@XZ
?d_func@QFactoryLoader@kso_qt@@AAEPAVQFactoryLoaderPrivate@2@XZ
?d_func@QFactoryLoader@kso_qt@@ABEPBVQFactoryLoaderPrivate@2@XZ
?d_func@QFile@kso_qt@@AAEPAVQFilePrivate@2@XZ
?d_func@QFile@kso_qt@@ABEPBVQFilePrivate@2@XZ
?d_func@QFileDevice@kso_qt@@AAEPAVQFileDevicePrivate@2@XZ
?d_func@QFileDevice@kso_qt@@ABEPBVQFileDevicePrivate@2@XZ
?d_func@QFileInfo@kso_qt@@AAEPAVQFileInfoPrivate@2@XZ
?d_func@QFileInfo@kso_qt@@ABEPBVQFileInfoPrivate@2@XZ
?d_func@QFileSelector@kso_qt@@AAEPAVQFileSelectorPrivate@2@XZ
?d_func@QFileSelector@kso_qt@@ABEPBVQFileSelectorPrivate@2@XZ
?d_func@QFileSystemWatcher@kso_qt@@AAEPAVQFileSystemWatcherPrivate@2@XZ
?d_func@QFileSystemWatcher@kso_qt@@ABEPBVQFileSystemWatcherPrivate@2@XZ
?d_func@QFinalState@kso_qt@@AAEPAVQFinalStatePrivate@2@XZ
?d_func@QFinalState@kso_qt@@ABEPBVQFinalStatePrivate@2@XZ
?d_func@QFutureWatcherBase@kso_qt@@AAEPAVQFutureWatcherBasePrivate@2@XZ
?d_func@QFutureWatcherBase@kso_qt@@ABEPBVQFutureWatcherBasePrivate@2@XZ
?d_func@QHistoryState@kso_qt@@AAEPAVQHistoryStatePrivate@2@XZ
?d_func@QHistoryState@kso_qt@@ABEPBVQHistoryStatePrivate@2@XZ
?d_func@QIODevice@kso_qt@@AAEPAVQIODevicePrivate@2@XZ
?d_func@QIODevice@kso_qt@@ABEPBVQIODevicePrivate@2@XZ
?d_func@QIdentityProxyModel@kso_qt@@AAEPAVQIdentityProxyModelPrivate@2@XZ
?d_func@QIdentityProxyModel@kso_qt@@ABEPBVQIdentityProxyModelPrivate@2@XZ
?d_func@QItemSelectionModel@kso_qt@@AAEPAVQItemSelectionModelPrivate@2@XZ
?d_func@QItemSelectionModel@kso_qt@@ABEPBVQItemSelectionModelPrivate@2@XZ
?d_func@QLockFile@kso_qt@@AAEPAVQLockFilePrivate@2@XZ
?d_func@QLockFile@kso_qt@@ABEPBVQLockFilePrivate@2@XZ
?d_func@QMetaEnumBuilder@kso_qt@@ABEPAVQMetaEnumBuilderPrivate@2@XZ
?d_func@QMetaMethodBuilder@kso_qt@@ABEPAVQMetaMethodBuilderPrivate@2@XZ
?d_func@QMetaPropertyBuilder@kso_qt@@ABEPAVQMetaPropertyBuilderPrivate@2@XZ
?d_func@QMimeData@kso_qt@@AAEPAVQMimeDataPrivate@2@XZ
?d_func@QMimeData@kso_qt@@ABEPBVQMimeDataPrivate@2@XZ
?d_func@QObject@kso_qt@@AAEPAVQObjectPrivate@2@XZ
?d_func@QObject@kso_qt@@ABEPBVQObjectPrivate@2@XZ
?d_func@QParallelAnimationGroup@kso_qt@@AAEPAVQParallelAnimationGroupPrivate@2@XZ
?d_func@QParallelAnimationGroup@kso_qt@@ABEPBVQParallelAnimationGroupPrivate@2@XZ
?d_func@QPauseAnimation@kso_qt@@AAEPAVQPauseAnimationPrivate@2@XZ
?d_func@QPauseAnimation@kso_qt@@ABEPBVQPauseAnimationPrivate@2@XZ
?d_func@QProcess@kso_qt@@AAEPAVQProcessPrivate@2@XZ
?d_func@QProcess@kso_qt@@ABEPBVQProcessPrivate@2@XZ
?d_func@QPropertyAnimation@kso_qt@@AAEPAVQPropertyAnimationPrivate@2@XZ
?d_func@QPropertyAnimation@kso_qt@@ABEPBVQPropertyAnimationPrivate@2@XZ
?d_func@QResource@kso_qt@@AAEPAVQResourcePrivate@2@XZ
?d_func@QResource@kso_qt@@ABEPBVQResourcePrivate@2@XZ
?d_func@QSaveFile@kso_qt@@AAEPAVQSaveFilePrivate@2@XZ
?d_func@QSaveFile@kso_qt@@ABEPBVQSaveFilePrivate@2@XZ
?d_func@QSequentialAnimationGroup@kso_qt@@AAEPAVQSequentialAnimationGroupPrivate@2@XZ
?d_func@QSequentialAnimationGroup@kso_qt@@ABEPBVQSequentialAnimationGroupPrivate@2@XZ
?d_func@QSettings@kso_qt@@AAEPAVQSettingsPrivate@2@XZ
?d_func@QSettings@kso_qt@@ABEPBVQSettingsPrivate@2@XZ
?d_func@QSharedMemory@kso_qt@@AAEPAVQSharedMemoryPrivate@2@XZ
?d_func@QSharedMemory@kso_qt@@ABEPBVQSharedMemoryPrivate@2@XZ
?d_func@QSignalMapper@kso_qt@@AAEPAVQSignalMapperPrivate@2@XZ
?d_func@QSignalMapper@kso_qt@@ABEPBVQSignalMapperPrivate@2@XZ
?d_func@QSignalTransition@kso_qt@@AAEPAVQSignalTransitionPrivate@2@XZ
?d_func@QSignalTransition@kso_qt@@ABEPBVQSignalTransitionPrivate@2@XZ
?d_func@QSocketNotifier@kso_qt@@AAEPAVQSocketNotifierPrivate@2@XZ
?d_func@QSocketNotifier@kso_qt@@ABEPBVQSocketNotifierPrivate@2@XZ
?d_func@QSortFilterProxyModel@kso_qt@@AAEPAVQSortFilterProxyModelPrivate@2@XZ
?d_func@QSortFilterProxyModel@kso_qt@@ABEPBVQSortFilterProxyModelPrivate@2@XZ
?d_func@QState@kso_qt@@AAEPAVQStatePrivate@2@XZ
?d_func@QState@kso_qt@@ABEPBVQStatePrivate@2@XZ
?d_func@QStateMachine@kso_qt@@AAEPAVQStateMachinePrivate@2@XZ
?d_func@QStateMachine@kso_qt@@ABEPBVQStateMachinePrivate@2@XZ
?d_func@QTemporaryFile@kso_qt@@AAEPAVQTemporaryFilePrivate@2@XZ
?d_func@QTemporaryFile@kso_qt@@ABEPBVQTemporaryFilePrivate@2@XZ
?d_func@QTextStream@kso_qt@@AAEPAVQTextStreamPrivate@2@XZ
?d_func@QTextStream@kso_qt@@ABEPBVQTextStreamPrivate@2@XZ
?d_func@QThread@kso_qt@@AAEPAVQThreadPrivate@2@XZ
?d_func@QThread@kso_qt@@ABEPBVQThreadPrivate@2@XZ
?d_func@QThreadPool@kso_qt@@AAEPAVQThreadPoolPrivate@2@XZ
?d_func@QThreadPool@kso_qt@@ABEPBVQThreadPoolPrivate@2@XZ
?d_func@QTimeLine@kso_qt@@AAEPAVQTimeLinePrivate@2@XZ
?d_func@QTimeLine@kso_qt@@ABEPBVQTimeLinePrivate@2@XZ
?d_func@QTranslator@kso_qt@@AAEPAVQTranslatorPrivate@2@XZ
?d_func@QTranslator@kso_qt@@ABEPBVQTranslatorPrivate@2@XZ
?d_func@QVariantAnimation@kso_qt@@AAEPAVQVariantAnimationPrivate@2@XZ
?d_func@QVariantAnimation@kso_qt@@ABEPBVQVariantAnimationPrivate@2@XZ
?d_func@QWinEventNotifier@kso_qt@@AAEPAVQWinEventNotifierPrivate@2@XZ
?d_func@QWinEventNotifier@kso_qt@@ABEPBVQWinEventNotifierPrivate@2@XZ
?d_func@QXmlStreamReader@kso_qt@@AAEPAVQXmlStreamReaderPrivate@2@XZ
?d_func@QXmlStreamReader@kso_qt@@ABEPBVQXmlStreamReaderPrivate@2@XZ
?d_func@QXmlStreamWriter@kso_qt@@AAEPAVQXmlStreamWriterPrivate@2@XZ
?d_func@QXmlStreamWriter@kso_qt@@ABEPBVQXmlStreamWriterPrivate@2@XZ
?data@?$QVector@VQPoint@kso_qt@@@kso_qt@@QAEPAVQPoint@2@XZ
?data@?$QVector@VQPoint@kso_qt@@@kso_qt@@QBEPBVQPoint@2@XZ
?data@?$QVector@VQPointF@kso_qt@@@kso_qt@@QAEPAVQPointF@2@XZ
?data@?$QVector@VQPointF@kso_qt@@@kso_qt@@QBEPBVQPointF@2@XZ
?data@?$QVector@VQXmlStreamAttribute@kso_qt@@@kso_qt@@QAEPAVQXmlStreamAttribute@2@XZ
?data@?$QVector@VQXmlStreamAttribute@kso_qt@@@kso_qt@@QBEPBVQXmlStreamAttribute@2@XZ
?data@QAbstractProxyModel@kso_qt@@UBE?AVQVariant@2@ABVQModelIndex@2@H@Z
?data@QArrayData@kso_qt@@QAEPAXXZ
?data@QArrayData@kso_qt@@QBEPBXXZ
?data@QBuffer@kso_qt@@QBEABVQByteArray@2@XZ
?data@QByteArray@kso_qt@@QAEPADXZ
?data@QByteArray@kso_qt@@QBEPBDXZ
?data@QGenericArgument@kso_qt@@QBEPAXXZ
?data@QMimeData@kso_qt@@QBE?AVQByteArray@2@ABVQString@2@@Z
?data@QModelIndex@kso_qt@@QBE?AVQVariant@2@H@Z
?data@QPersistentModelIndex@kso_qt@@QBE?AVQVariant@2@H@Z
?data@QResource@kso_qt@@QBEPBEXZ
?data@QSharedMemory@kso_qt@@QAEPAXXZ
?data@QSharedMemory@kso_qt@@QBEPBXXZ
?data@QSortFilterProxyModel@kso_qt@@UBE?AVQVariant@2@ABVQModelIndex@2@H@Z
?data@QString@kso_qt@@QAEPAVQChar@2@XZ
?data@QString@kso_qt@@QBEPBVQChar@2@XZ
?data@QStringListModel@kso_qt@@UBE?AVQVariant@2@ABVQModelIndex@2@H@Z
?data@QStringRef@kso_qt@@QBEPBVQChar@2@XZ
?data@QTimeZonePrivate@kso_qt@@UBE?AUData@12@_J@Z
?data@QUtcTimeZonePrivate@kso_qt@@UBE?AUData@QTimeZonePrivate@2@_J@Z
?data@QVariant@kso_qt@@QAEPAXXZ
?data@QVariant@kso_qt@@QBEPBXXZ
?data@QWinTimeZonePrivate@kso_qt@@UBE?AUData@QTimeZonePrivate@2@_J@Z
?dataChanged@QAbstractItemModel@kso_qt@@QAEXABVQModelIndex@2@0ABV?$QVector@H@2@@Z
?dataForLocalTime@QTimeZonePrivate@kso_qt@@QBE?AUData@12@_JH@Z
?data_ptr@QBitArray@kso_qt@@QAEAAPAU?$QTypedArrayData@D@2@XZ
?data_ptr@QByteArray@kso_qt@@QAEAAPAU?$QTypedArrayData@D@2@XZ
?data_ptr@QString@kso_qt@@QAEAAPAU?$QTypedArrayData@G@2@XZ
?data_ptr@QUrl@kso_qt@@QAEAAPAVQUrlPrivate@2@XZ
?data_ptr@QUrlQuery@kso_qt@@QAEAAV?$QSharedDataPointer@VQUrlQueryPrivate@kso_qt@@@2@XZ
?data_ptr@QVariant@kso_qt@@QAEAAUPrivate@12@XZ
?data_ptr@QVariant@kso_qt@@QBEABUPrivate@12@XZ
?date@QDateTime@kso_qt@@QBE?AVQDate@2@XZ
?dateFormat@QLocale@kso_qt@@QBE?AVQString@2@W4FormatType@12@@Z
?dateTimeFormat@QLocale@kso_qt@@QBE?AVQString@2@W4FormatType@12@@Z
?dateTimeToString@QLocalePrivate@kso_qt@@QBE?AVQString@2@VQStringView@2@ABVQDateTime@2@ABVQDate@2@ABVQTime@2@PBVQLocale@2@@Z
?day@QDate@kso_qt@@QBEHXZ
?dayName@QLocale@kso_qt@@QBE?AVQString@2@HW4FormatType@12@@Z
?dayOfWeek@QDate@kso_qt@@QBEHXZ
?dayOfYear@QDate@kso_qt@@QBEHXZ
?daylightTimeOffset@QTimeZone@kso_qt@@QBEHABVQDateTime@2@@Z
?daylightTimeOffset@QTimeZonePrivate@kso_qt@@UBEH_J@Z
?daylightTimeOffset@QUtcTimeZonePrivate@kso_qt@@UBEH_J@Z
?daylightTimeOffset@QWinTimeZonePrivate@kso_qt@@UBEH_J@Z
?daysInMonth@QDate@kso_qt@@QBEHXZ
?daysInYear@QDate@kso_qt@@QBEHXZ
?daysTo@QDate@kso_qt@@QBE_JABV12@@Z
?daysTo@QDateTime@kso_qt@@QBE_JABV12@@Z
?deadline@QDeadlineTimer@kso_qt@@QBE_JXZ
?deadlineNSecs@QDeadlineTimer@kso_qt@@QBE_JXZ
?dealloc@?$QList@VQItemSelectionRange@kso_qt@@@kso_qt@@AAEXPAUData@QListData@2@@Z
?deallocate@QArrayData@kso_qt@@SAXPAU12@II@Z
?debug@QMessageLogger@kso_qt@@QBAXABVQLoggingCategory@2@PBDZZ
?debug@QMessageLogger@kso_qt@@QBAXP6AABVQLoggingCategory@2@XZPBDZZ
?debug@QMessageLogger@kso_qt@@QBAXPBDZZ
?debug@QMessageLogger@kso_qt@@QBE?AVQDebug@2@ABVQLoggingCategory@2@@Z
?debug@QMessageLogger@kso_qt@@QBE?AVQDebug@2@P6AABVQLoggingCategory@2@XZ@Z
?debug@QMessageLogger@kso_qt@@QBE?AVQDebug@2@XZ
?debugStream@QMetaType@kso_qt@@SA_NAAVQDebug@2@PBXH@Z
?dec@kso_qt@@YAAAVQTextStream@1@AAV21@@Z
?decimal@QLocalePrivate@kso_qt@@QBE?AVQChar@2@XZ
?decimalPoint@QLocale@kso_qt@@QBE?AVQChar@2@XZ
?decodeData@QAbstractItemModel@kso_qt@@IAE_NHHABVQModelIndex@2@AAVQDataStream@2@@Z
?decodeMSG@kso_qt@@YA?AVQString@1@ABUtagMSG@@@Z
?decodeName@QFile@kso_qt@@SA?AVQString@2@ABVQByteArray@2@@Z
?decodeName@QFile@kso_qt@@SA?AVQString@2@PBD@Z
?decomposition@QChar@kso_qt@@QBE?AVQString@2@XZ
?decomposition@QChar@kso_qt@@SI?AVQString@2@I@Z
?decomposition@QCharRef@kso_qt@@QBE?AVQString@2@XZ
?decompositionTag@QChar@kso_qt@@QBE?AW4Decomposition@12@XZ
?decompositionTag@QChar@kso_qt@@SI?AW4Decomposition@12@I@Z
?decompositionTag@QCharRef@kso_qt@@QBE?AW4Decomposition@QChar@2@XZ
?defaultAnimations@QStateMachine@kso_qt@@QBE?AV?$QList@PAVQAbstractAnimation@kso_qt@@@2@XZ
?defaultCategory@QLoggingCategory@kso_qt@@SAPAV12@XZ
?defaultCategoryFilter@QLoggingRegistry@kso_qt@@CAXPAVQLoggingCategory@2@@Z
?defaultConstruct@?$QVector@VQPoint@kso_qt@@@kso_qt@@AAEXPAVQPoint@2@0@Z
?defaultConstruct@?$QVector@VQPointF@kso_qt@@@kso_qt@@AAEXPAVQPointF@2@0@Z
?defaultConstruct@?$QVector@VQXmlStreamAttribute@kso_qt@@@kso_qt@@AAEXPAVQXmlStreamAttribute@2@0@Z
?defaultFormat@QSettings@kso_qt@@SA?AW4Format@12@XZ
?defaultQueryPairDelimiter@QUrlQuery@kso_qt@@SA?AVQChar@2@XZ
?defaultQueryValueDelimiter@QUrlQuery@kso_qt@@SA?AVQChar@2@XZ
?defaultRoleNames@QAbstractItemModelPrivate@kso_qt@@SAABV?$QHash@HVQByteArray@kso_qt@@@2@XZ
?defaultState@QHistoryState@kso_qt@@QBEPAVQAbstractState@2@XZ
?defaultStateChanged@QHistoryState@kso_qt@@QAEXUQPrivateSignal@12@@Z
?defaultTransition@QHistoryState@kso_qt@@QBEPAVQAbstractTransition@2@XZ
?defaultTransitionChanged@QHistoryState@kso_qt@@QAEXUQPrivateSignal@12@@Z
?defaultTypeFor@QTimer@kso_qt@@CA?AW4TimerType@Qt@2@H@Z
?defaultTypeFor@QTimer@kso_qt@@CA?AW4TimerType@Qt@2@V?$duration@_JU?$ratio@$00$0DOI@@std@@@chrono@std@@@Z
?defaultValues@QCommandLineOption@kso_qt@@QBE?AVQStringList@2@XZ
?deleteChildren@QObjectPrivate@kso_qt@@QAEXXZ
?deleteLater@QObject@kso_qt@@QAEXXZ
?dequeueExternalEvent@QStateMachinePrivate@kso_qt@@QAEPAVQEvent@2@XZ
?dequeueInternalEvent@QStateMachinePrivate@kso_qt@@QAEPAVQEvent@2@XZ
?deref@QCoreApplicationPrivate@kso_qt@@QAEXXZ
?derefT@QFutureInterfaceBase@kso_qt@@IBE_NXZ
?description@QCommandLineOption@kso_qt@@QBE?AVQString@2@XZ
?deserialize@QMetaObjectBuilder@kso_qt@@QAEXAAVQDataStream@2@ABV?$QMap@VQByteArray@kso_qt@@PBUQMetaObject@2@@2@@Z
?destroy@QMetaType@kso_qt@@QBEXPAX@Z
?destroy@QMetaType@kso_qt@@SAXHPAX@Z
?destroyExtended@QMetaType@kso_qt@@ABEXPAX@Z
?destroyed@QAbstractDeclarativeData@kso_qt@@2P6AXPAV12@PAVQObject@2@@ZA
?destroyed@QObject@kso_qt@@QAEXPAV12@@Z
?destroyed_qml1@QAbstractDeclarativeData@kso_qt@@2P6AXPAV12@PAVQObject@2@@ZA
?destruct@?$QVector@VQPoint@kso_qt@@@kso_qt@@AAEXPAVQPoint@2@0@Z
?destruct@?$QVector@VQPointF@kso_qt@@@kso_qt@@AAEXPAVQPointF@2@0@Z
?destruct@?$QVector@VQXmlStreamAttribute@kso_qt@@@kso_qt@@AAEXPAVQXmlStreamAttribute@2@0@Z
?destruct@QMetaType@kso_qt@@QBEXPAX@Z
?destruct@QMetaType@kso_qt@@SAXHPAX@Z
?destructExtended@QMetaType@kso_qt@@ABEXPAX@Z
?detach2@QJsonArray@kso_qt@@AAE_NI@Z
?detach2@QJsonObject@kso_qt@@AAE_NI@Z
?detach@?$QList@VQItemSelectionRange@kso_qt@@@kso_qt@@QAEXXZ
?detach@?$QVector@VQPoint@kso_qt@@@kso_qt@@QAEXXZ
?detach@?$QVector@VQPointF@kso_qt@@@kso_qt@@QAEXXZ
?detach@?$QVector@VQXmlStreamAttribute@kso_qt@@@kso_qt@@QAEXXZ
?detach@QBitArray@kso_qt@@QAEXXZ
?detach@QByteArray@kso_qt@@QAEXXZ
?detach@QCborArray@kso_qt@@AAEXH@Z
?detach@QCborMap@kso_qt@@AAEXH@Z
?detach@QCollator@kso_qt@@AAEXXZ
?detach@QJsonArray@kso_qt@@AAEXI@Z
?detach@QJsonObject@kso_qt@@AAEXI@Z
?detach@QJsonValue@kso_qt@@AAEXXZ
?detach@QListData@kso_qt@@QAEPAUData@12@H@Z
?detach@QRingChunk@kso_qt@@QAEXXZ
?detach@QSharedMemory@kso_qt@@QAE_NXZ
?detach@QSharedMemoryPrivate@kso_qt@@QAE_NXZ
?detach@QString@kso_qt@@QAEXXZ
?detach@QUrl@kso_qt@@QAEXXZ
?detach@QVariant@kso_qt@@QAEXXZ
?detachCapacity@QArrayData@kso_qt@@QBEII@Z
?detachFlags@QArrayData@kso_qt@@QBE?AV?$QFlags@W4AllocationOption@QArrayData@kso_qt@@@2@XZ
?detachShared@?$QList@VQItemSelectionRange@kso_qt@@@kso_qt@@QAEXXZ
?detach_grow@QListData@kso_qt@@QAEPAUData@12@PAHH@Z
?detach_helper@?$QList@VQItemSelectionRange@kso_qt@@@kso_qt@@AAEXH@Z
?detach_helper@?$QList@VQItemSelectionRange@kso_qt@@@kso_qt@@AAEXXZ
?detach_helper@QHashData@kso_qt@@QAEPAU12@P6AXPAUNode@12@PAX@ZP6AX0@ZHH@Z
?detach_helper_grow@?$QList@VQItemSelectionRange@kso_qt@@@kso_qt@@AAEPAUNode@12@HH@Z
?device@QCborStreamReader@kso_qt@@QBEPAVQIODevice@2@XZ
?device@QCborStreamWriter@kso_qt@@QBEPAVQIODevice@2@XZ
?device@QDataStream@kso_qt@@QBEPAVQIODevice@2@XZ
?device@QStorageInfo@kso_qt@@QBE?AVQByteArray@2@XZ
?device@QTextStream@kso_qt@@QBEPAVQIODevice@2@XZ
?device@QXmlStreamReader@kso_qt@@QBEPAVQIODevice@2@XZ
?device@QXmlStreamWriter@kso_qt@@QBEPAVQIODevice@2@XZ
?digitValue@QChar@kso_qt@@QBEHXZ
?digitValue@QChar@kso_qt@@SIHI@Z
?digitValue@QCharRef@kso_qt@@QBEHXZ
?dir@QFileInfo@kso_qt@@QBE?AVQDir@2@XZ
?dirName@QDir@kso_qt@@QBE?AVQString@2@XZ
?directWriteFallback@QSaveFile@kso_qt@@QBE_NXZ
?direction@QAbstractAnimation@kso_qt@@QBE?AW4Direction@12@XZ
?direction@QChar@kso_qt@@QBE?AW4Direction@12@XZ
?direction@QChar@kso_qt@@SI?AW4Direction@12@I@Z
?direction@QCharRef@kso_qt@@QBE?AW4Direction@QChar@2@XZ
?direction@QTimeLine@kso_qt@@QBE?AW4Direction@12@XZ
?directionChanged@QAbstractAnimation@kso_qt@@QAEXW4Direction@12@@Z
?directories@QFileSystemWatcher@kso_qt@@QBE?AVQStringList@2@XZ
?directoryChanged@QFileSystemWatcher@kso_qt@@QAEXABVQString@2@UQPrivateSignal@12@@Z
?discard@QRandomGenerator@kso_qt@@QAEX_K@Z
?disconnect@QMetaObject@kso_qt@@SA_NPBVQObject@2@H0H@Z
?disconnect@QObject@kso_qt@@QBE_NPBDPBV12@0@Z
?disconnect@QObject@kso_qt@@QBE_NPBV12@PBD@Z
?disconnect@QObject@kso_qt@@SA_NABVConnection@QMetaObject@2@@Z
?disconnect@QObject@kso_qt@@SA_NPBV12@ABVQMetaMethod@2@01@Z
?disconnect@QObject@kso_qt@@SA_NPBV12@PBD01@Z
?disconnect@QObjectPrivate@kso_qt@@SA_NPBVQObject@2@HPAPAX@Z
?disconnectImpl@QObject@kso_qt@@CA_NPBV12@PAPAX01PBUQMetaObject@2@@Z
?disconnectNotify@QBuffer@kso_qt@@MAEXABVQMetaMethod@2@@Z
?disconnectNotify@QFutureWatcherBase@kso_qt@@MAEXABVQMetaMethod@2@@Z
?disconnectNotify@QObject@kso_qt@@MAEXABVQMetaMethod@2@@Z
?disconnectNotify@QObjectPrivate@kso_qt@@QAEXABVQMetaMethod@2@@Z
?disconnectOne@QMetaObject@kso_qt@@SA_NPBVQObject@2@H0H@Z
?disconnectOutputInterface@QFutureWatcherBase@kso_qt@@IAEX_N@Z
?displayName@QStandardPaths@kso_qt@@SA?AVQString@2@W4StandardLocation@12@@Z
?displayName@QStorageInfo@kso_qt@@QBE?AVQString@2@XZ
?displayName@QTimeZone@kso_qt@@QBE?AVQString@2@ABVQDateTime@2@W4NameType@12@ABVQLocale@2@@Z
?displayName@QTimeZone@kso_qt@@QBE?AVQString@2@W4TimeType@12@W4NameType@12@ABVQLocale@2@@Z
?displayName@QTimeZonePrivate@kso_qt@@UBE?AVQString@2@W4TimeType@QTimeZone@2@W4NameType@52@ABVQLocale@2@@Z
?displayName@QTimeZonePrivate@kso_qt@@UBE?AVQString@2@_JW4NameType@QTimeZone@2@ABVQLocale@2@@Z
?displayName@QUtcTimeZonePrivate@kso_qt@@UBE?AVQString@2@W4TimeType@QTimeZone@2@W4NameType@52@ABVQLocale@2@@Z
?displayName@QWinTimeZonePrivate@kso_qt@@UBE?AVQString@2@W4TimeType@QTimeZone@2@W4NameType@52@ABVQLocale@2@@Z
?displayText@QDateTimeParser@kso_qt@@UBE?AVQString@2@XZ
?dispose@QCborValue@kso_qt@@AAEXXZ
?dispose@QListData@kso_qt@@QAEXXZ
?dispose@QListData@kso_qt@@SAXPAUData@12@@Z
?doSetRoleNames@QAbstractItemModel@kso_qt@@AAEXABV?$QHash@HVQByteArray@kso_qt@@@2@@Z
?doSetSupportedDragActions@QAbstractItemModel@kso_qt@@AAEXV?$QFlags@W4DropAction@Qt@kso_qt@@@2@@Z
?doStat@QFSFileEnginePrivate@kso_qt@@QBE_NV?$QFlags@W4MetaDataFlag@QFileSystemMetaData@kso_qt@@@2@@Z
?doUnregisterSocketNotifier@QEventDispatcherWin32@kso_qt@@IAEXPAVQSocketNotifier@2@@Z
?doWsaAsyncSelect@QEventDispatcherWin32Private@kso_qt@@QAEXHJ@Z
?documentEncoding@QXmlStreamReader@kso_qt@@QBE?AVQStringRef@2@XZ
?documentVersion@QXmlStreamReader@kso_qt@@QBE?AVQStringRef@2@XZ
?dotProduct@QPoint@kso_qt@@SAHABV12@0@Z
?dotProduct@QPointF@kso_qt@@SANABV12@0@Z
?drives@QDir@kso_qt@@SA?AV?$QList@VQFileInfo@kso_qt@@@2@XZ
?drives@QFSFileEngine@kso_qt@@SA?AV?$QList@VQFileInfo@kso_qt@@@2@XZ
?dropMimeData@QAbstractItemModel@kso_qt@@UAE_NPBVQMimeData@2@W4DropAction@Qt@2@HHABVQModelIndex@2@@Z
?dropMimeData@QAbstractListModel@kso_qt@@UAE_NPBVQMimeData@2@W4DropAction@Qt@2@HHABVQModelIndex@2@@Z
?dropMimeData@QAbstractProxyModel@kso_qt@@UAE_NPBVQMimeData@2@W4DropAction@Qt@2@HHABVQModelIndex@2@@Z
?dropMimeData@QAbstractTableModel@kso_qt@@UAE_NPBVQMimeData@2@W4DropAction@Qt@2@HHABVQModelIndex@2@@Z
?dropMimeData@QIdentityProxyModel@kso_qt@@UAE_NPBVQMimeData@2@W4DropAction@Qt@2@HHABVQModelIndex@2@@Z
?dropMimeData@QSortFilterProxyModel@kso_qt@@UAE_NPBVQMimeData@2@W4DropAction@Qt@2@HHABVQModelIndex@2@@Z
?ds@QTime@kso_qt@@ABEHXZ
?dtdName@QXmlStreamReader@kso_qt@@QBE?AVQStringRef@2@XZ
?dtdPublicId@QXmlStreamReader@kso_qt@@QBE?AVQStringRef@2@XZ
?dtdSystemId@QXmlStreamReader@kso_qt@@QBE?AVQStringRef@2@XZ
?dtor@QMetaType@kso_qt@@AAEXXZ
?dummyLocked@QBasicMutex@kso_qt@@CAPAVQMutexData@2@XZ
?dumpObjectInfo@QObject@kso_qt@@QAEXXZ
?dumpObjectInfo@QObject@kso_qt@@QBEXXZ
?dumpObjectTree@QObject@kso_qt@@QAEXXZ
?dumpObjectTree@QObject@kso_qt@@QBEXXZ
?duration@QParallelAnimationGroup@kso_qt@@UBEHXZ
?duration@QPauseAnimation@kso_qt@@UBEHXZ
?duration@QSequentialAnimationGroup@kso_qt@@UBEHXZ
?duration@QTimeLine@kso_qt@@QBEHXZ
?duration@QVariantAnimation@kso_qt@@UBEHXZ
?dx@QLine@kso_qt@@QBEHXZ
?dx@QLineF@kso_qt@@QBENXZ
?dy@QLine@kso_qt@@QBEHXZ
?dy@QLineF@kso_qt@@QBENXZ
?dynamicMetaObject@QObjectData@kso_qt@@QBEPAUQMetaObject@2@XZ
?dynamicPropertyNames@QObject@kso_qt@@QBE?AV?$QList@VQByteArray@kso_qt@@@2@XZ
?dynamicSortFilter@QSortFilterProxyModel@kso_qt@@QBE_NXZ
?easingCurve@QTimeLine@kso_qt@@QBE?AVQEasingCurve@2@XZ
?easingCurve@QVariantAnimation@kso_qt@@QBE?AVQEasingCurve@2@XZ
?elapsed@QAnimationDriver@kso_qt@@UBE_JXZ
?elapsed@QElapsedTimer@kso_qt@@QBE_JXZ
?elapsed@QTime@kso_qt@@QBEHXZ
?elapsed@QUnifiedTimer@kso_qt@@QBE_JXZ
?emitFinished@QStatePrivate@kso_qt@@QAEXXZ
?emitPendingBytesWrittenValue@QWindowsPipeWriter@kso_qt@@AAEXXZ
?emitPendingReadyRead@QWindowsPipeReader@kso_qt@@AAEXXZ
?emitPropertiesAssigned@QStatePrivate@kso_qt@@QAEXXZ
?emitSelectionChanged@QItemSelectionModel@kso_qt@@IAEXABVQItemSelection@2@0@Z
?emitStateFinished@QStateMachinePrivate@kso_qt@@UAEXPAVQState@2@PAVQFinalState@2@@Z
?emitTriggered@QAbstractTransitionPrivate@kso_qt@@QAEXXZ
?empty@?$QList@VQItemSelectionRange@kso_qt@@@kso_qt@@QBE_NXZ
?empty@?$QVector@VQPoint@kso_qt@@@kso_qt@@QBE_NXZ
?empty@?$QVector@VQPointF@kso_qt@@@kso_qt@@QBE_NXZ
?empty@?$QVector@VQXmlStreamAttribute@kso_qt@@@kso_qt@@QBE_NXZ
?empty@QCborArray@kso_qt@@QBE_NXZ
?empty@QCborMap@kso_qt@@QBE_NXZ
?empty@QJsonArray@kso_qt@@QBE_NXZ
?empty@QJsonObject@kso_qt@@QBE_NXZ
?enableTestMode@QStandardPaths@kso_qt@@SAX_N@Z
?enclosingMetaObject@QMetaClassInfo@kso_qt@@QBEPBUQMetaObject@2@XZ
?enclosingMetaObject@QMetaEnum@kso_qt@@QBEPBUQMetaObject@2@XZ
?enclosingMetaObject@QMetaMethod@kso_qt@@QBEPBUQMetaObject@2@XZ
?enclosingMetaObject@QMetaProperty@kso_qt@@QBEPBUQMetaObject@2@XZ
?encodeData@QAbstractItemModel@kso_qt@@IBEXABV?$QList@VQModelIndex@kso_qt@@@2@AAVQDataStream@2@@Z
?encodeName@QFile@kso_qt@@SA?AVQByteArray@2@ABVQString@2@@Z
?encodedFragment@QUrl@kso_qt@@QBE?AVQByteArray@2@XZ
?encodedHost@QUrl@kso_qt@@QBE?AVQByteArray@2@XZ
?encodedPassword@QUrl@kso_qt@@QBE?AVQByteArray@2@XZ
?encodedPath@QUrl@kso_qt@@QBE?AVQByteArray@2@XZ
?encodedQuery@QUrl@kso_qt@@QBE?AVQByteArray@2@XZ
?encodedQueryItemValue@QUrl@kso_qt@@QBE?AVQByteArray@2@ABV32@@Z
?encodedQueryItems@QUrl@kso_qt@@QBE?AV?$QList@U?$QPair@VQByteArray@kso_qt@@V12@@kso_qt@@@2@XZ
?encodedUserName@QUrl@kso_qt@@QBE?AVQByteArray@2@XZ
?end@?$QList@VQItemSelectionRange@kso_qt@@@kso_qt@@QAE?AViterator@12@XZ
?end@?$QList@VQItemSelectionRange@kso_qt@@@kso_qt@@QBE?AVconst_iterator@12@XZ
?end@?$QVector@VQPoint@kso_qt@@@kso_qt@@QAE?AViterator@?$QTypedArrayData@VQPoint@kso_qt@@@2@V342@@Z
?end@?$QVector@VQPoint@kso_qt@@@kso_qt@@QAEPAVQPoint@2@XZ
?end@?$QVector@VQPoint@kso_qt@@@kso_qt@@QBE?AVconst_iterator@?$QTypedArrayData@VQPoint@kso_qt@@@2@V342@@Z
?end@?$QVector@VQPoint@kso_qt@@@kso_qt@@QBEPBVQPoint@2@XZ
?end@?$QVector@VQPointF@kso_qt@@@kso_qt@@QAE?AViterator@?$QTypedArrayData@VQPointF@kso_qt@@@2@V342@@Z
?end@?$QVector@VQPointF@kso_qt@@@kso_qt@@QAEPAVQPointF@2@XZ
?end@?$QVector@VQPointF@kso_qt@@@kso_qt@@QBE?AVconst_iterator@?$QTypedArrayData@VQPointF@kso_qt@@@2@V342@@Z
?end@?$QVector@VQPointF@kso_qt@@@kso_qt@@QBEPBVQPointF@2@XZ
?end@?$QVector@VQXmlStreamAttribute@kso_qt@@@kso_qt@@QAEPAVQXmlStreamAttribute@2@XZ
?end@?$QVector@VQXmlStreamAttribute@kso_qt@@@kso_qt@@QBEPBVQXmlStreamAttribute@2@XZ
?end@QAssociativeIterable@kso_qt@@QBE?AUconst_iterator@12@XZ
?end@QByteArray@kso_qt@@QAEPADXZ
?end@QByteArray@kso_qt@@QBEPBDXZ
?end@QCborArray@kso_qt@@QAE?AVIterator@12@XZ
?end@QCborArray@kso_qt@@QBE?AVConstIterator@12@XZ
?end@QCborMap@kso_qt@@QAE?AVIterator@12@XZ
?end@QCborMap@kso_qt@@QBE?AVConstIterator@12@XZ
?end@QJsonArray@kso_qt@@QAE?AViterator@12@XZ
?end@QJsonArray@kso_qt@@QBE?AVconst_iterator@12@XZ
?end@QJsonObject@kso_qt@@QAE?AViterator@12@XZ
?end@QJsonObject@kso_qt@@QBE?AVconst_iterator@12@XZ
?end@QListData@kso_qt@@QBEPAPAXXZ
?end@QSequentialIterable@kso_qt@@QBE?AUconst_iterator@12@XZ
?end@QString@kso_qt@@QAEPAVQChar@2@XZ
?end@QString@kso_qt@@QBEPBVQChar@2@XZ
?end@QStringRef@kso_qt@@QBEPBVQChar@2@XZ
?end@ResultStoreBase@QtPrivate@kso_qt@@QBE?AVResultIteratorBase@23@XZ
?end@const_iterator@QAssociativeIterable@kso_qt@@AAEXXZ
?end@const_iterator@QSequentialIterable@kso_qt@@AAEXXZ
?endArray@QCborStreamWriter@kso_qt@@QAE_NXZ
?endArray@QSettings@kso_qt@@QAEXXZ
?endEntryList@QAbstractFileEngine@kso_qt@@UAEPAVQAbstractFileEngineIterator@2@XZ
?endEntryList@QFSFileEngine@kso_qt@@UAEPAVQAbstractFileEngineIterator@2@XZ
?endFrame@QTimeLine@kso_qt@@QBEHXZ
?endGroup@QSettings@kso_qt@@QAEXXZ
?endInsertColumns@QAbstractItemModel@kso_qt@@IAEXXZ
?endInsertRows@QAbstractItemModel@kso_qt@@IAEXXZ
?endMacrostep@QStateMachinePrivate@kso_qt@@UAEX_N@Z
?endMap@QCborStreamWriter@kso_qt@@QAE_NXZ
?endMicrostep@QStateMachine@kso_qt@@MAEXPAVQEvent@2@@Z
?endMoveColumns@QAbstractItemModel@kso_qt@@IAEXXZ
?endMoveRows@QAbstractItemModel@kso_qt@@IAEXXZ
?endRemoveColumns@QAbstractItemModel@kso_qt@@IAEXXZ
?endRemoveRows@QAbstractItemModel@kso_qt@@IAEXXZ
?endResetModel@QAbstractItemModel@kso_qt@@IAEXXZ
?endSelectTransitions@QStateMachine@kso_qt@@MAEXPAVQEvent@2@@Z
?endValue@QVariantAnimation@kso_qt@@QBE?AVQVariant@2@XZ
?endl@kso_qt@@YAAAVQTextStream@1@AAV21@@Z
?endsWith@?$QList@VQItemSelectionRange@kso_qt@@@kso_qt@@QBE_NABVQItemSelectionRange@2@@Z
?endsWith@?$QVector@VQPoint@kso_qt@@@kso_qt@@QBE_NABVQPoint@2@@Z
?endsWith@?$QVector@VQPointF@kso_qt@@@kso_qt@@QBE_NABVQPointF@2@@Z
?endsWith@?$QVector@VQXmlStreamAttribute@kso_qt@@@kso_qt@@QBE_NABVQXmlStreamAttribute@2@@Z
?endsWith@QByteArray@kso_qt@@QBE_NABV12@@Z
?endsWith@QByteArray@kso_qt@@QBE_ND@Z
?endsWith@QByteArray@kso_qt@@QBE_NPBD@Z
?endsWith@QString@kso_qt@@QBE_NABV12@W4CaseSensitivity@Qt@2@@Z
?endsWith@QString@kso_qt@@QBE_NABVQStringRef@2@W4CaseSensitivity@Qt@2@@Z
?endsWith@QString@kso_qt@@QBE_NVQChar@2@W4CaseSensitivity@Qt@2@@Z
?endsWith@QString@kso_qt@@QBE_NVQLatin1String@2@W4CaseSensitivity@Qt@2@@Z
?endsWith@QString@kso_qt@@QBE_NVQStringView@2@W4CaseSensitivity@Qt@2@@Z
?endsWith@QStringRef@kso_qt@@QBE_NABV12@W4CaseSensitivity@Qt@2@@Z
?endsWith@QStringRef@kso_qt@@QBE_NABVQString@2@W4CaseSensitivity@Qt@2@@Z
?endsWith@QStringRef@kso_qt@@QBE_NVQChar@2@W4CaseSensitivity@Qt@2@@Z
?endsWith@QStringRef@kso_qt@@QBE_NVQLatin1String@2@W4CaseSensitivity@Qt@2@@Z
?endsWith@QStringRef@kso_qt@@QBE_NVQStringView@2@W4CaseSensitivity@Qt@2@@Z
?endsWith@QtPrivate@kso_qt@@YA_NVQLatin1String@2@0W4CaseSensitivity@Qt@2@@Z
?endsWith@QtPrivate@kso_qt@@YA_NVQLatin1String@2@VQStringView@2@W4CaseSensitivity@Qt@2@@Z
?endsWith@QtPrivate@kso_qt@@YA_NVQStringView@2@0W4CaseSensitivity@Qt@2@@Z
?endsWith@QtPrivate@kso_qt@@YA_NVQStringView@2@VQLatin1String@2@W4CaseSensitivity@Qt@2@@Z
?enqueueTask@QThreadPoolPrivate@kso_qt@@QAEXPAVQRunnable@2@H@Z
?enter@QMetaStringTable@kso_qt@@QAEHABVQByteArray@2@@Z
?enterContainer@QCborStreamReader@kso_qt@@QAE_NXZ
?enterStates@QStateMachinePrivate@kso_qt@@UAEXPAVQEvent@2@ABV?$QList@PAVQAbstractState@kso_qt@@@2@1ABV?$QSet@PAVQAbstractState@kso_qt@@@2@AAV?$QHash@PAVQAbstractState@kso_qt@@V?$QVector@UQPropertyAssignment@kso_qt@@@2@@2@ABV?$QList@PAVQAbstractAnimation@kso_qt@@@2@@Z
?entered@QAbstractState@kso_qt@@QAEXUQPrivateSignal@12@@Z
?entityDeclarations@QXmlStreamReader@kso_qt@@QBE?AV?$QVector@VQXmlStreamEntityDeclaration@kso_qt@@@2@XZ
?entityResolver@QXmlStreamReader@kso_qt@@QBEPAVQXmlStreamEntityResolver@2@XZ
?entryInfo@QAbstractFileEngineIterator@kso_qt@@MBE?AVQVariant@2@W4EntryInfoType@12@@Z
?entryInfoList@QDir@kso_qt@@QBE?AV?$QList@VQFileInfo@kso_qt@@@2@ABVQStringList@2@V?$QFlags@W4Filter@QDir@kso_qt@@@2@V?$QFlags@W4SortFlag@QDir@kso_qt@@@2@@Z
?entryInfoList@QDir@kso_qt@@QBE?AV?$QList@VQFileInfo@kso_qt@@@2@V?$QFlags@W4Filter@QDir@kso_qt@@@2@V?$QFlags@W4SortFlag@QDir@kso_qt@@@2@@Z
?entryList@QAbstractFileEngine@kso_qt@@UBE?AVQStringList@2@V?$QFlags@W4Filter@QDir@kso_qt@@@2@ABV32@@Z
?entryList@QDir@kso_qt@@QBE?AVQStringList@2@ABV32@V?$QFlags@W4Filter@QDir@kso_qt@@@2@V?$QFlags@W4SortFlag@QDir@kso_qt@@@2@@Z
?entryList@QDir@kso_qt@@QBE?AVQStringList@2@V?$QFlags@W4Filter@QDir@kso_qt@@@2@V?$QFlags@W4SortFlag@QDir@kso_qt@@@2@@Z
?entryList@QFSFileEngine@kso_qt@@UBE?AVQStringList@2@V?$QFlags@W4Filter@QDir@kso_qt@@@2@ABV32@@Z
?enumName@QMetaEnum@kso_qt@@QBEPBDXZ
?enumName@QMetaEnumBuilder@kso_qt@@QBE?AVQByteArray@2@XZ
?enumerator@QMetaObject@kso_qt@@QBE?AVQMetaEnum@2@H@Z
?enumerator@QMetaObjectBuilder@kso_qt@@QBE?AVQMetaEnumBuilder@2@H@Z
?enumerator@QMetaProperty@kso_qt@@QBE?AVQMetaEnum@2@XZ
?enumeratorCount@QMetaObject@kso_qt@@QBEHXZ
?enumeratorCount@QMetaObjectBuilder@kso_qt@@QBEHXZ
?enumeratorOffset@QMetaObject@kso_qt@@QBEHXZ
?environment@QProcess@kso_qt@@QBE?AVQStringList@2@XZ
?equals@QMetaType@kso_qt@@SA_NPBX0HPAH@Z
?erase@?$QList@VQItemSelectionRange@kso_qt@@@kso_qt@@QAE?AViterator@12@V312@0@Z
?erase@?$QList@VQItemSelectionRange@kso_qt@@@kso_qt@@QAE?AViterator@12@V312@@Z
?erase@?$QVector@VQPoint@kso_qt@@@kso_qt@@QAE?AViterator@?$QTypedArrayData@VQPoint@kso_qt@@@2@V342@0@Z
?erase@?$QVector@VQPoint@kso_qt@@@kso_qt@@QAE?AViterator@?$QTypedArrayData@VQPoint@kso_qt@@@2@V342@@Z
?erase@?$QVector@VQPoint@kso_qt@@@kso_qt@@QAEPAVQPoint@2@PAV32@0@Z
?erase@?$QVector@VQPoint@kso_qt@@@kso_qt@@QAEPAVQPoint@2@PAV32@@Z
?erase@?$QVector@VQPointF@kso_qt@@@kso_qt@@QAE?AViterator@?$QTypedArrayData@VQPointF@kso_qt@@@2@V342@0@Z
?erase@?$QVector@VQPointF@kso_qt@@@kso_qt@@QAE?AViterator@?$QTypedArrayData@VQPointF@kso_qt@@@2@V342@@Z
?erase@?$QVector@VQPointF@kso_qt@@@kso_qt@@QAEPAVQPointF@2@PAV32@0@Z
?erase@?$QVector@VQPointF@kso_qt@@@kso_qt@@QAEPAVQPointF@2@PAV32@@Z
?erase@?$QVector@VQXmlStreamAttribute@kso_qt@@@kso_qt@@QAEPAVQXmlStreamAttribute@2@PAV32@0@Z
?erase@?$QVector@VQXmlStreamAttribute@kso_qt@@@kso_qt@@QAEPAVQXmlStreamAttribute@2@PAV32@@Z
?erase@QCborArray@kso_qt@@QAE?AVIterator@12@V312@@Z
?erase@QCborArray@kso_qt@@QAE?AVIterator@12@VConstIterator@12@@Z
?erase@QCborMap@kso_qt@@QAE?AVIterator@12@V312@@Z
?erase@QCborMap@kso_qt@@QAE?AVIterator@12@VConstIterator@12@@Z
?erase@QJsonArray@kso_qt@@QAE?AViterator@12@V312@@Z
?erase@QJsonObject@kso_qt@@QAE?AViterator@12@V312@@Z
?erase@QListData@kso_qt@@QAEPAPAXPAPAX@Z
?error@QAbstractFileEngine@kso_qt@@QBE?AW4FileError@QFileDevice@2@XZ
?error@QFileDevice@kso_qt@@QBE?AW4FileError@12@XZ
?error@QLockFile@kso_qt@@QBE?AW4LockError@12@XZ
?error@QProcess@kso_qt@@QAEXW4ProcessError@12@@Z
?error@QProcess@kso_qt@@QBE?AW4ProcessError@12@XZ
?error@QSharedMemory@kso_qt@@QBE?AW4SharedMemoryError@12@XZ
?error@QStateMachine@kso_qt@@QBE?AW4Error@12@XZ
?error@QSystemSemaphore@kso_qt@@QBE?AW4SystemSemaphoreError@12@XZ
?error@QXmlStreamReader@kso_qt@@QBE?AW4Error@12@XZ
?errorOccurred@QProcess@kso_qt@@QAEXW4ProcessError@12@@Z
?errorState@QState@kso_qt@@QBEPAVQAbstractState@2@XZ
?errorStateChanged@QState@kso_qt@@QAEXUQPrivateSignal@12@@Z
?errorString@QAbstractFileEngine@kso_qt@@QBE?AVQString@2@XZ
?errorString@QIODevice@kso_qt@@QBE?AVQString@2@XZ
?errorString@QJsonParseError@kso_qt@@QBE?AVQString@2@XZ
?errorString@QLibrary@kso_qt@@QBE?AVQString@2@XZ
?errorString@QPluginLoader@kso_qt@@QBE?AVQString@2@XZ
?errorString@QRegExp@kso_qt@@QAE?AVQString@2@XZ
?errorString@QRegExp@kso_qt@@QBE?AVQString@2@XZ
?errorString@QRegularExpression@kso_qt@@QBE?AVQString@2@XZ
?errorString@QSharedMemory@kso_qt@@QBE?AVQString@2@XZ
?errorString@QStateMachine@kso_qt@@QBE?AVQString@2@XZ
?errorString@QSystemSemaphore@kso_qt@@QBE?AVQString@2@XZ
?errorString@QTemporaryDir@kso_qt@@QBE?AVQString@2@XZ
?errorString@QUrl@kso_qt@@QBE?AVQString@2@XZ
?errorString@QXmlStreamReader@kso_qt@@QBE?AVQString@2@XZ
?errorText@QCommandLineParser@kso_qt@@QBE?AVQString@2@XZ
?escape@QRegExp@kso_qt@@SA?AVQString@2@ABV32@@Z
?escape@QRegularExpression@kso_qt@@SA?AVQString@2@ABV32@@Z
?event@QAbstractAnimation@kso_qt@@MAE_NPAVQEvent@2@@Z
?event@QAbstractState@kso_qt@@MAE_NPAVQEvent@2@@Z
?event@QAbstractTransition@kso_qt@@MAE_NPAVQEvent@2@@Z
?event@QAnimationGroup@kso_qt@@MAE_NPAVQEvent@2@@Z
?event@QCoreApplication@kso_qt@@MAE_NPAVQEvent@2@@Z
?event@QEventDispatcherWin32@kso_qt@@UAE_NPAVQEvent@2@@Z
?event@QEventLoop@kso_qt@@UAE_NPAVQEvent@2@@Z
?event@QEventTransition@kso_qt@@MAE_NPAVQEvent@2@@Z
?event@QFinalState@kso_qt@@MAE_NPAVQEvent@2@@Z
?event@QFutureWatcherBase@kso_qt@@UAE_NPAVQEvent@2@@Z
?event@QHistoryState@kso_qt@@MAE_NPAVQEvent@2@@Z
?event@QObject@kso_qt@@UAE_NPAVQEvent@2@@Z
?event@QParallelAnimationGroup@kso_qt@@MAE_NPAVQEvent@2@@Z
?event@QPauseAnimation@kso_qt@@MAE_NPAVQEvent@2@@Z
?event@QPropertyAnimation@kso_qt@@MAE_NPAVQEvent@2@@Z
?event@QSequentialAnimationGroup@kso_qt@@MAE_NPAVQEvent@2@@Z
?event@QSettings@kso_qt@@MAE_NPAVQEvent@2@@Z
?event@QSignalTransition@kso_qt@@MAE_NPAVQEvent@2@@Z
?event@QSocketNotifier@kso_qt@@MAE_NPAVQEvent@2@@Z
?event@QState@kso_qt@@MAE_NPAVQEvent@2@@Z
?event@QStateMachine@kso_qt@@MAE_NPAVQEvent@2@@Z
?event@QThread@kso_qt@@UAE_NPAVQEvent@2@@Z
?event@QVariantAnimation@kso_qt@@MAE_NPAVQEvent@2@@Z
?event@QWinEventNotifier@kso_qt@@MAE_NPAVQEvent@2@@Z
?event@WrappedEvent@QStateMachine@kso_qt@@QBEPAVQEvent@3@XZ
?eventDispatcher@QCoreApplication@kso_qt@@SAPAVQAbstractEventDispatcher@2@XZ
?eventDispatcher@QCoreApplicationPrivate@kso_qt@@2PAVQAbstractEventDispatcher@2@A
?eventDispatcher@QThread@kso_qt@@QBEPAVQAbstractEventDispatcher@2@XZ
?eventDispatcherReady@QCoreApplicationPrivate@kso_qt@@UAEXXZ
?eventFilter@QObject@kso_qt@@UAE_NPAV12@PAVQEvent@2@@Z
?eventFilter@QStateMachine@kso_qt@@UAE_NPAVQObject@2@PAVQEvent@2@@Z
?eventSource@QEventTransition@kso_qt@@QBEPAVQObject@2@XZ
?eventTest@QEventTransition@kso_qt@@MAE_NPAVQEvent@2@@Z
?eventTest@QSignalTransition@kso_qt@@MAE_NPAVQEvent@2@@Z
?eventType@QEventTransition@kso_qt@@QBE?AW4Type@QEvent@2@XZ
?exactMatch@QRegExp@kso_qt@@QBE_NABVQString@2@@Z
?exception@ExceptionHolder@QtPrivate@kso_qt@@QBEPAVQException@3@XZ
?exception@ExceptionStore@QtPrivate@kso_qt@@QAE?AVExceptionHolder@23@XZ
?exceptionStore@QFutureInterfaceBase@kso_qt@@QAEAAVExceptionStore@QtPrivate@2@XZ
?exec@QCoreApplication@kso_qt@@SAHXZ
?exec@QEventLoop@kso_qt@@QAEHV?$QFlags@W4ProcessEventsFlag@QEventLoop@kso_qt@@@2@@Z
?exec@QTextStreamManipulator@kso_qt@@QAEXAAVQTextStream@2@@Z
?exec@QThread@kso_qt@@IAEHXZ
?execCleanup@QCoreApplicationPrivate@kso_qt@@QAEXXZ
?execute@QProcess@kso_qt@@SAHABVQString@2@@Z
?execute@QProcess@kso_qt@@SAHABVQString@2@ABVQStringList@2@@Z
?executeTransitionContent@QStateMachinePrivate@kso_qt@@QAEXPAVQEvent@2@ABV?$QList@PAVQAbstractTransition@kso_qt@@@2@@Z
?exists@QDir@kso_qt@@QBE_NABVQString@2@@Z
?exists@QDir@kso_qt@@QBE_NXZ
?exists@QFile@kso_qt@@QBE_NXZ
?exists@QFile@kso_qt@@SA_NABVQString@2@@Z
?exists@QFileInfo@kso_qt@@QBE_NXZ
?exists@QFileInfo@kso_qt@@SA_NABVQString@2@@Z
?exists@QFileSystemMetaData@kso_qt@@QBE_NXZ
?exit@QCoreApplication@kso_qt@@SAXH@Z
?exit@QEventLoop@kso_qt@@QAEXH@Z
?exit@QThread@kso_qt@@QAEXH@Z
?exitCode@QProcess@kso_qt@@QBEHXZ
?exitInterpreter@QStateMachinePrivate@kso_qt@@UAEXXZ
?exitStates@QStateMachinePrivate@kso_qt@@UAEXPAVQEvent@2@ABV?$QList@PAVQAbstractState@kso_qt@@@2@ABV?$QHash@PAVQAbstractState@kso_qt@@V?$QVector@UQPropertyAssignment@kso_qt@@@2@@2@@Z
?exitStatus@QProcess@kso_qt@@QBE?AW4ExitStatus@12@XZ
?exited@QAbstractState@kso_qt@@QAEXUQPrivateSignal@12@@Z
?expand@QByteArray@kso_qt@@AAEXH@Z
?expand@QString@kso_qt@@AAEXH@Z
?expandedTo@QSize@kso_qt@@QBE?AV12@ABV12@@Z
?expandedTo@QSizeF@kso_qt@@QBE?AV12@ABV12@@Z
?expectedResultCount@QFutureInterfaceBase@kso_qt@@QAEHXZ
?expiryTimeout@QThreadPool@kso_qt@@QBEHXZ
?exponential@QLocale@kso_qt@@QBE?AVQChar@2@XZ
?exponential@QLocalePrivate@kso_qt@@QBE?AVQChar@2@XZ
?exponenttable@qfloat16@kso_qt@@0QBIB
?extension@QAbstractFileEngine@kso_qt@@UAE_NW4Extension@12@PBVExtensionOption@12@PAVExtensionReturn@12@@Z
?extension@QFSFileEngine@kso_qt@@UAE_NW4Extension@QAbstractFileEngine@2@PBVExtensionOption@42@PAVExtensionReturn@42@@Z
?extraSelectors@QFileSelector@kso_qt@@QBE?AVQStringList@2@XZ
?extract@QCborArray@kso_qt@@QAE?AVQCborValue@2@VConstIterator@12@@Z
?extract@QCborArray@kso_qt@@QAE?AVQCborValue@2@VIterator@12@@Z
?extract@QCborMap@kso_qt@@QAE?AVQCborValue@2@VConstIterator@12@@Z
?extract@QCborMap@kso_qt@@QAE?AVQCborValue@2@VIterator@12@@Z
?fallbackUiLocale@QSystemLocale@kso_qt@@UBE?AVQLocale@2@XZ
?fallbacksEnabled@QSettings@kso_qt@@QBE_NXZ
?false_element@VectorBoolElements@QtMetaTypePrivate@kso_qt@@2_NB
?fastTryLock@QBasicMutex@kso_qt@@AAE_NAAPAVQMutexData@2@@Z
?fastTryLock@QBasicMutex@kso_qt@@AAE_NXZ
?fastTryUnlock@QBasicMutex@kso_qt@@AAE_NAAPAVQMutexData@2@@Z
?fastTryUnlock@QBasicMutex@kso_qt@@AAE_NXZ
?fatal@QMessageLogger@kso_qt@@QBAXPBDZZ
?fetchMore@QAbstractItemModel@kso_qt@@UAEXABVQModelIndex@2@@Z
?fetchMore@QAbstractProxyModel@kso_qt@@UAEXABVQModelIndex@2@@Z
?fetchMore@QSortFilterProxyModel@kso_qt@@UAEXABVQModelIndex@2@@Z
?fieldAlignment@QTextStream@kso_qt@@QBE?AW4FieldAlignment@12@XZ
?fieldInfo@QDateTimeParser@kso_qt@@QBE?AV?$QFlags@W4FieldInfoFlag@QDateTimeParser@kso_qt@@@2@H@Z
?fieldWidth@QTextStream@kso_qt@@QBEHXZ
?fileChanged@QFileSystemWatcher@kso_qt@@QAEXABVQString@2@UQPrivateSignal@12@@Z
?fileFlags@QAbstractFileEngine@kso_qt@@UBE?AV?$QFlags@W4FileFlag@QAbstractFileEngine@kso_qt@@@2@V32@@Z
?fileFlags@QFSFileEngine@kso_qt@@UBE?AV?$QFlags@W4FileFlag@QAbstractFileEngine@kso_qt@@@2@V32@@Z
?fileInfo@QDirIterator@kso_qt@@QBE?AVQFileInfo@2@XZ
?fileName@QAbstractFileEngine@kso_qt@@UBE?AVQString@2@W4FileName@12@@Z
?fileName@QDirIterator@kso_qt@@QBE?AVQString@2@XZ
?fileName@QFSFileEngine@kso_qt@@UBE?AVQString@2@W4FileName@QAbstractFileEngine@2@@Z
?fileName@QFile@kso_qt@@UBE?AVQString@2@XZ
?fileName@QFileDevice@kso_qt@@UBE?AVQString@2@XZ
?fileName@QFileInfo@kso_qt@@QBE?AVQString@2@XZ
?fileName@QLibrary@kso_qt@@QBE?AVQString@2@XZ
?fileName@QPluginLoader@kso_qt@@QBE?AVQString@2@XZ
?fileName@QResource@kso_qt@@QBE?AVQString@2@XZ
?fileName@QSaveFile@kso_qt@@UBE?AVQString@2@XZ
?fileName@QSettings@kso_qt@@QBE?AVQString@2@XZ
?fileName@QTemporaryFile@kso_qt@@UBE?AVQString@2@XZ
?fileName@QUrl@kso_qt@@QBE?AVQString@2@V?$QFlags@W4ComponentFormattingOption@QUrl@kso_qt@@@2@@Z
?filePath@QDir@kso_qt@@QBE?AVQString@2@ABV32@@Z
?filePath@QDirIterator@kso_qt@@QBE?AVQString@2@XZ
?filePath@QFileInfo@kso_qt@@QBE?AVQString@2@XZ
?filePath@QTemporaryDir@kso_qt@@QBE?AVQString@2@ABV32@@Z
?fileSystemType@QStorageInfo@kso_qt@@QBE?AVQByteArray@2@XZ
?fileTemplate@QTemporaryFile@kso_qt@@QBE?AVQString@2@XZ
?fileTime@QAbstractFileEngine@kso_qt@@UBE?AVQDateTime@2@W4FileTime@12@@Z
?fileTime@QFSFileEngine@kso_qt@@UBE?AVQDateTime@2@W4FileTime@QAbstractFileEngine@2@@Z
?fileTime@QFileDevice@kso_qt@@QBE?AVQDateTime@2@W4FileTime@12@@Z
?fileTime@QFileInfo@kso_qt@@QBE?AVQDateTime@2@W4FileTime@QFileDevice@2@@Z
?fileTime@QFileSystemMetaData@kso_qt@@QBE?AVQDateTime@2@W4FileTime@QAbstractFileEngine@2@@Z
?files@QFileSystemWatcher@kso_qt@@QBE?AVQStringList@2@XZ
?fill@?$QVector@VQPoint@kso_qt@@@kso_qt@@QAEAAV12@ABVQPoint@2@H@Z
?fill@?$QVector@VQPointF@kso_qt@@@kso_qt@@QAEAAV12@ABVQPointF@2@H@Z
?fill@?$QVector@VQXmlStreamAttribute@kso_qt@@@kso_qt@@QAEAAV12@ABVQXmlStreamAttribute@2@H@Z
?fill@QBitArray@kso_qt@@QAEX_NHH@Z
?fill@QBitArray@kso_qt@@QAE_N_NH@Z
?fill@QByteArray@kso_qt@@QAEAAV12@DH@Z
?fill@QString@kso_qt@@QAEAAV12@VQChar@2@H@Z
?fillFromFileAttribute@QFileSystemMetaData@kso_qt@@QAEXK_N@Z
?fillFromFindData@QFileSystemMetaData@kso_qt@@QAEXAAU_WIN32_FIND_DATAW@@_N1@Z
?fillFromFindInfo@QFileSystemMetaData@kso_qt@@QAEXAAU_BY_HANDLE_FILE_INFORMATION@@@Z
?filter@QDir@kso_qt@@QBE?AV?$QFlags@W4Filter@QDir@kso_qt@@@2@XZ
?filterAcceptsColumn@QSortFilterProxyModel@kso_qt@@MBE_NHABVQModelIndex@2@@Z
?filterAcceptsRow@QSortFilterProxyModel@kso_qt@@MBE_NHABVQModelIndex@2@@Z
?filterCaseSensitivity@QSortFilterProxyModel@kso_qt@@QBE?AW4CaseSensitivity@Qt@2@XZ
?filterChanged@QSortFilterProxyModel@kso_qt@@IAEXXZ
?filterEvent@QAbstractEventDispatcher@kso_qt@@QAE_NPAX@Z
?filterKeyColumn@QSortFilterProxyModel@kso_qt@@QBEHXZ
?filterMode@ResultStoreBase@QtPrivate@kso_qt@@QBE_NXZ
?filterNativeEvent@QAbstractEventDispatcher@kso_qt@@QAE_NABVQByteArray@2@PAXPAJ@Z
?filterNativeEvent@QAbstractEventDispatcher@kso_qt@@QAE_N_NABW4AllowNativeEventFilterFlag@QAbstractNativeEventFilter@2@ABVQByteArray@2@PAXPAJ@Z
?filterRegExp@QSortFilterProxyModel@kso_qt@@QBE?AVQRegExp@2@XZ
?filterRegularExpression@QSortFilterProxyModel@kso_qt@@QBE?AVQRegularExpression@2@XZ
?filterRole@QSortFilterProxyModel@kso_qt@@QBEHXZ
?filterString@QMimeType@kso_qt@@QBE?AVQString@2@XZ
?filters@QAbstractFileEngineIterator@kso_qt@@QBE?AV?$QFlags@W4Filter@QDir@kso_qt@@@2@XZ
?find@QAssociativeIterable@kso_qt@@QBE?AUconst_iterator@12@ABVQVariant@2@@Z
?find@QCborMap@kso_qt@@QAE?AVIterator@12@ABVQCborValue@2@@Z
?find@QCborMap@kso_qt@@QAE?AVIterator@12@ABVQString@2@@Z
?find@QCborMap@kso_qt@@QAE?AVIterator@12@VQLatin1String@2@@Z
?find@QCborMap@kso_qt@@QAE?AVIterator@12@_J@Z
?find@QCborMap@kso_qt@@QBE?AVConstIterator@12@ABVQCborValue@2@@Z
?find@QCborMap@kso_qt@@QBE?AVConstIterator@12@ABVQString@2@@Z
?find@QCborMap@kso_qt@@QBE?AVConstIterator@12@VQLatin1String@2@@Z
?find@QCborMap@kso_qt@@QBE?AVConstIterator@12@_J@Z
?find@QJsonObject@kso_qt@@QAE?AViterator@12@ABVQString@2@@Z
?find@QJsonObject@kso_qt@@QAE?AViterator@12@VQLatin1String@2@@Z
?find@QJsonObject@kso_qt@@QBE?AVconst_iterator@12@ABVQString@2@@Z
?find@QJsonObject@kso_qt@@QBE?AVconst_iterator@12@VQLatin1String@2@@Z
?find@const_iterator@QAssociativeIterable@kso_qt@@AAEXABVQVariant@3@@Z
?findAmPm@QDateTimeParser@kso_qt@@ABE?AW4AmPmFinder@12@AAVQString@2@HPAH@Z
?findDay@QDateTimeParser@kso_qt@@ABEHABVQString@2@HHPAV32@PAH@Z
?findErrorState@QStateMachinePrivate@kso_qt@@QAEPAVQAbstractState@2@PAV32@@Z
?findExecutable@QStandardPaths@kso_qt@@SA?AVQString@2@ABV32@ABVQStringList@2@@Z
?findLCA@QStateMachinePrivate@kso_qt@@QBEPAVQState@2@ABV?$QList@PAVQAbstractState@kso_qt@@@2@_N@Z
?findLCCA@QStateMachinePrivate@kso_qt@@QBEPAVQState@2@ABV?$QList@PAVQAbstractState@kso_qt@@@2@@Z
?findMonth@QDateTimeParser@kso_qt@@ABEHABVQString@2@HHPAV32@PAH@Z
?findTimeZone@QDateTimeParser@kso_qt@@ABE?AUParsedSection@12@VQStringRef@2@ABVQDateTime@2@HH@Z
?finish@QThreadStorageData@kso_qt@@SAXPAPAX@Z
?finished@QAbstractAnimation@kso_qt@@QAEXXZ
?finished@QFutureWatcherBase@kso_qt@@QAEXXZ
?finished@QProcess@kso_qt@@QAEXH@Z
?finished@QProcess@kso_qt@@QAEXHW4ExitStatus@12@@Z
?finished@QState@kso_qt@@QAEXUQPrivateSignal@12@@Z
?finished@QThread@kso_qt@@QAEXUQPrivateSignal@12@@Z
?finished@QTimeLine@kso_qt@@QAEXUQPrivateSignal@12@@Z
?first@?$QList@VQItemSelectionRange@kso_qt@@@kso_qt@@QAEAAVQItemSelectionRange@2@XZ
?first@?$QList@VQItemSelectionRange@kso_qt@@@kso_qt@@QBEABVQItemSelectionRange@2@XZ
?first@?$QVector@VQPoint@kso_qt@@@kso_qt@@QAEAAVQPoint@2@XZ
?first@?$QVector@VQPoint@kso_qt@@@kso_qt@@QBEABVQPoint@2@XZ
?first@?$QVector@VQPointF@kso_qt@@@kso_qt@@QAEAAVQPointF@2@XZ
?first@?$QVector@VQPointF@kso_qt@@@kso_qt@@QBEABVQPointF@2@XZ
?first@?$QVector@VQXmlStreamAttribute@kso_qt@@@kso_qt@@QAEAAVQXmlStreamAttribute@2@XZ
?first@?$QVector@VQXmlStreamAttribute@kso_qt@@@kso_qt@@QBEABVQXmlStreamAttribute@2@XZ
?first@QCborArray@kso_qt@@QAE?AVQCborValueRef@2@XZ
?first@QCborArray@kso_qt@@QBE?AVQCborValue@2@XZ
?first@QJsonArray@kso_qt@@QBE?AVQJsonValue@2@XZ
?firstDayOfWeek@QLocale@kso_qt@@QBE?AW4DayOfWeek@Qt@2@XZ
?firstNode@QHashData@kso_qt@@QAEPAUNode@12@XZ
?fixed@kso_qt@@YAAAVQTextStream@1@AAV21@@Z
?flags@QAbstractItemModel@kso_qt@@UBE?AV?$QFlags@W4ItemFlag@Qt@kso_qt@@@2@ABVQModelIndex@2@@Z
?flags@QAbstractListModel@kso_qt@@UBE?AV?$QFlags@W4ItemFlag@Qt@kso_qt@@@2@ABVQModelIndex@2@@Z
?flags@QAbstractProxyModel@kso_qt@@UBE?AV?$QFlags@W4ItemFlag@Qt@kso_qt@@@2@ABVQModelIndex@2@@Z
?flags@QAbstractTableModel@kso_qt@@UBE?AV?$QFlags@W4ItemFlag@Qt@kso_qt@@@2@ABVQModelIndex@2@@Z
?flags@QCommandLineOption@kso_qt@@QBE?AV?$QFlags@W4Flag@QCommandLineOption@kso_qt@@@2@XZ
?flags@QMetaObjectBuilder@kso_qt@@QBE?AV?$QFlags@W4MetaObjectFlag@QMetaObjectBuilder@kso_qt@@@2@XZ
?flags@QMetaType@kso_qt@@QBE?AV?$QFlags@W4TypeFlag@QMetaType@kso_qt@@@2@XZ
?flags@QModelIndex@kso_qt@@QBE?AV?$QFlags@W4ItemFlag@Qt@kso_qt@@@2@XZ
?flags@QPersistentModelIndex@kso_qt@@QBE?AV?$QFlags@W4ItemFlag@Qt@kso_qt@@@2@XZ
?flags@QSortFilterProxyModel@kso_qt@@UBE?AV?$QFlags@W4ItemFlag@Qt@kso_qt@@@2@ABVQModelIndex@2@@Z
?flags@QStringListModel@kso_qt@@UBE?AV?$QFlags@W4ItemFlag@Qt@kso_qt@@@2@ABVQModelIndex@2@@Z
?flagsExtended@QMetaType@kso_qt@@ABE?AV?$QFlags@W4TypeFlag@QMetaType@kso_qt@@@2@XZ
?floatingPointPrecision@QDataStream@kso_qt@@QBE?AW4FloatingPointPrecision@12@XZ
?flush@QAbstractFileEngine@kso_qt@@UAE_NXZ
?flush@QCoreApplication@kso_qt@@SAXXZ
?flush@QEventDispatcherWin32@kso_qt@@UAEXXZ
?flush@QFSFileEngine@kso_qt@@UAE_NXZ
?flush@QFileDevice@kso_qt@@QAE_NXZ
?flush@QTextStream@kso_qt@@QAEXXZ
?flush@kso_qt@@YAAAVQTextStream@1@AAV21@@Z
?flushFh@QFSFileEnginePrivate@kso_qt@@QAE_NXZ
?forcepoint@kso_qt@@YAAAVQTextStream@1@AAV21@@Z
?forcesign@kso_qt@@YAAAVQTextStream@1@AAV21@@Z
?format@QSettings@kso_qt@@QBE?AW4Format@12@XZ
?format@SectionNode@QDateTimeParser@kso_qt@@QBE?AVQString@3@XZ
?formats@QMimeData@kso_qt@@UBE?AVQStringList@2@XZ
?formattedDataSize@QLocale@kso_qt@@QAE?AVQString@2@_JHV?$QFlags@W4DataSizeFormat@QLocale@kso_qt@@@2@@Z
?forwardEvent@QCoreApplication@kso_qt@@CA_NPAVQObject@2@PAVQEvent@2@1@Z
?fp_helper@QCborValue@kso_qt@@ABENXZ
?fragment@QUrl@kso_qt@@QBE?AVQString@2@V?$QFlags@W4ComponentFormattingOption@QUrl@kso_qt@@@2@@Z
?frameChanged@QTimeLine@kso_qt@@QAEXHUQPrivateSignal@12@@Z
?frameForTime@QTimeLine@kso_qt@@QBEHH@Z
?free@QRingBuffer@kso_qt@@QAEX_J@Z
?freeData@?$QVector@VQPoint@kso_qt@@@kso_qt@@AAEXPAU?$QTypedArrayData@VQPoint@kso_qt@@@2@@Z
?freeData@?$QVector@VQPointF@kso_qt@@@kso_qt@@AAEXPAU?$QTypedArrayData@VQPointF@kso_qt@@@2@@Z
?freeData@?$QVector@VQXmlStreamAttribute@kso_qt@@@kso_qt@@AAEXPAU?$QTypedArrayData@VQXmlStreamAttribute@kso_qt@@@2@@Z
?freeData@QContiguousCacheData@kso_qt@@SAXPAU12@@Z
?freeData@QMapDataBase@kso_qt@@SAXPAU12@@Z
?freeNode@QHashData@kso_qt@@QAEXPAX@Z
?freeNodeAndRebalance@QMapDataBase@kso_qt@@QAEXPAUQMapNodeBase@2@@Z
?freeTree@QMapDataBase@kso_qt@@QAEXPAUQMapNodeBase@2@H@Z
?free_helper@QHashData@kso_qt@@QAEXP6AXPAUNode@12@@Z@Z
?fromAce@QUrl@kso_qt@@SA?AVQString@2@ABVQByteArray@2@@Z
?fromAscii@QChar@kso_qt@@SA?AV12@D@Z
?fromAscii@QString@kso_qt@@SA?AV12@ABVQByteArray@2@@Z
?fromAscii@QString@kso_qt@@SA?AV12@PBDH@Z
?fromAscii_helper@QString@kso_qt@@CAPAU?$QTypedArrayData@G@2@PBDH@Z
?fromBase64@QByteArray@kso_qt@@SA?AV12@ABV12@@Z
?fromBase64@QByteArray@kso_qt@@SA?AV12@ABV12@V?$QFlags@W4Base64Option@QByteArray@kso_qt@@@2@@Z
?fromBinaryData@QJsonDocument@kso_qt@@SA?AV12@ABVQByteArray@2@W4DataValidation@12@@Z
?fromBits@QBitArray@kso_qt@@SA?AV12@PBDH@Z
?fromCbor@QCborValue@kso_qt@@SA?AV12@AAVQCborStreamReader@2@@Z
?fromCbor@QCborValue@kso_qt@@SA?AV12@ABVQByteArray@2@PAUQCborParserError@2@@Z
?fromCbor@QCborValue@kso_qt@@SA?AV12@PBDHPAUQCborParserError@2@@Z
?fromCbor@QCborValue@kso_qt@@SA?AV12@PBEHPAUQCborParserError@2@@Z
?fromEncoded@QUrl@kso_qt@@SA?AV12@ABVQByteArray@2@W4ParsingMode@12@@Z
?fromEncodedComponent_helper@QUrl@kso_qt@@SA?AVQString@2@ABVQByteArray@2@@Z
?fromHex@QByteArray@kso_qt@@SA?AV12@ABV12@@Z
?fromJson@QJsonDocument@kso_qt@@SA?AV12@ABVQByteArray@2@PAUQJsonParseError@2@@Z
?fromJsonArray@QCborArray@kso_qt@@SA?AV12@ABVQJsonArray@2@@Z
?fromJsonObject@QCborMap@kso_qt@@SA?AV12@ABVQJsonObject@2@@Z
?fromJsonValue@QCborValue@kso_qt@@SA?AV12@ABVQJsonValue@2@@Z
?fromJulianDay@QDate@kso_qt@@SA?AV12@_J@Z
?fromLatin1@QChar@kso_qt@@SA?AV12@D@Z
?fromLatin1@QString@kso_qt@@SA?AV12@ABVQByteArray@2@@Z
?fromLatin1@QString@kso_qt@@SA?AV12@PBDH@Z
?fromLatin1_helper@QString@kso_qt@@CAPAU?$QTypedArrayData@G@2@PBDH@Z
?fromList@?$QVector@VQPoint@kso_qt@@@kso_qt@@SA?AV12@ABV?$QList@VQPoint@kso_qt@@@2@@Z
?fromList@?$QVector@VQPointF@kso_qt@@@kso_qt@@SA?AV12@ABV?$QList@VQPointF@kso_qt@@@2@@Z
?fromList@?$QVector@VQXmlStreamAttribute@kso_qt@@@kso_qt@@SA?AV12@ABV?$QList@VQXmlStreamAttribute@kso_qt@@@2@@Z
?fromLocal8Bit@QString@kso_qt@@SA?AV12@ABVQByteArray@2@@Z
?fromLocal8Bit@QString@kso_qt@@SA?AV12@PBDH@Z
?fromLocal8Bit_helper@QString@kso_qt@@CA?AV12@PBDH@Z
?fromLocalFile@QUrl@kso_qt@@SA?AV12@ABVQString@2@@Z
?fromMSecsSinceEpoch@QDateTime@kso_qt@@SA?AV12@_J@Z
?fromMSecsSinceEpoch@QDateTime@kso_qt@@SA?AV12@_JABVQTimeZone@2@@Z
?fromMSecsSinceEpoch@QDateTime@kso_qt@@SA?AV12@_JW4TimeSpec@Qt@2@H@Z
?fromMSecsSinceStartOfDay@QTime@kso_qt@@SA?AV12@H@Z
?fromName@QConfFile@kso_qt@@SAPAV12@ABVQString@2@_N@Z
?fromNativeSeparators@QDir@kso_qt@@SA?AVQString@2@ABV32@@Z
?fromPercentEncoding@QByteArray@kso_qt@@SA?AV12@ABV12@D@Z
?fromPercentEncoding@QUrl@kso_qt@@SA?AVQString@2@ABVQByteArray@2@@Z
?fromPolar@QLineF@kso_qt@@SA?AV12@NN@Z
?fromPunycode@QUrl@kso_qt@@SA?AVQString@2@ABVQByteArray@2@@Z
?fromRawData@QByteArray@kso_qt@@SA?AV12@PBDH@Z
?fromRawData@QJsonDocument@kso_qt@@SA?AV12@PBDHW4DataValidation@12@@Z
?fromRawData@QString@kso_qt@@SA?AV12@PBVQChar@2@H@Z
?fromRelocatableData@QMetaObjectBuilder@kso_qt@@SAXPAUQMetaObject@2@PBU32@ABVQByteArray@2@@Z
?fromRfc4122@QUuid@kso_qt@@SA?AV12@ABVQByteArray@2@@Z
?fromSecsSinceEpoch@QDateTime@kso_qt@@SA?AV12@_JABVQTimeZone@2@@Z
?fromSecsSinceEpoch@QDateTime@kso_qt@@SA?AV12@_JW4TimeSpec@Qt@2@H@Z
?fromSet@?$QList@VQItemSelectionRange@kso_qt@@@kso_qt@@SA?AV12@ABV?$QSet@VQItemSelectionRange@kso_qt@@@2@@Z
?fromSignalImpl@QMetaMethod@kso_qt@@CA?AV12@PBUQMetaObject@2@PAPAX@Z
?fromStdList@?$QList@VQItemSelectionRange@kso_qt@@@kso_qt@@SA?AV12@ABV?$list@VQItemSelectionRange@kso_qt@@V?$allocator@VQItemSelectionRange@kso_qt@@@std@@@std@@@Z
?fromStdString@QByteArray@kso_qt@@SA?AV12@ABV?$basic_string@DU?$char_traits@D@std@@V?$allocator@D@2@@std@@@Z
?fromStdString@QString@kso_qt@@SA?AV12@ABV?$basic_string@DU?$char_traits@D@std@@V?$allocator@D@2@@std@@@Z
?fromStdU16String@QString@kso_qt@@SA?AV12@ABV?$basic_string@_SU?$char_traits@_S@std@@V?$allocator@_S@2@@std@@@Z
?fromStdU32String@QString@kso_qt@@SA?AV12@ABV?$basic_string@_UU?$char_traits@_U@std@@V?$allocator@_U@2@@std@@@Z
?fromStdVector@?$QVector@VQPoint@kso_qt@@@kso_qt@@SA?AV12@ABV?$vector@VQPoint@kso_qt@@V?$allocator@VQPoint@kso_qt@@@std@@@std@@@Z
?fromStdVector@?$QVector@VQPointF@kso_qt@@@kso_qt@@SA?AV12@ABV?$vector@VQPointF@kso_qt@@V?$allocator@VQPointF@kso_qt@@@std@@@std@@@Z
?fromStdVector@?$QVector@VQXmlStreamAttribute@kso_qt@@@kso_qt@@SA?AV12@ABV?$vector@VQXmlStreamAttribute@kso_qt@@V?$allocator@VQXmlStreamAttribute@kso_qt@@@std@@@std@@@Z
?fromStdWString@QString@kso_qt@@SA?AV12@ABV?$basic_string@_WU?$char_traits@_W@std@@V?$allocator@_W@2@@std@@@Z
?fromString@QDate@kso_qt@@SA?AV12@ABVQString@2@0@Z
?fromString@QDate@kso_qt@@SA?AV12@ABVQString@2@W4DateFormat@Qt@2@@Z
?fromString@QDateTime@kso_qt@@SA?AV12@ABVQString@2@0@Z
?fromString@QDateTime@kso_qt@@SA?AV12@ABVQString@2@W4DateFormat@Qt@2@@Z
?fromString@QDateTimeParser@kso_qt@@QBE_NABVQString@2@PAVQDate@2@PAVQTime@2@@Z
?fromString@QTime@kso_qt@@SA?AV12@ABVQString@2@0@Z
?fromString@QTime@kso_qt@@SA?AV12@ABVQString@2@W4DateFormat@Qt@2@@Z
?fromString@QUuid@kso_qt@@SA?AV12@VQLatin1String@2@@Z
?fromString@QUuid@kso_qt@@SA?AV12@VQStringView@2@@Z
?fromString@QVersionNumber@kso_qt@@SA?AV12@ABVQString@2@PAH@Z
?fromString@QVersionNumber@kso_qt@@SA?AV12@VQLatin1String@2@PAH@Z
?fromString@QVersionNumber@kso_qt@@SA?AV12@VQStringView@2@PAH@Z
?fromStringList@QCborArray@kso_qt@@SA?AV12@ABVQStringList@2@@Z
?fromStringList@QJsonArray@kso_qt@@SA?AV12@ABVQStringList@2@@Z
?fromStringList@QUrl@kso_qt@@SA?AV?$QList@VQUrl@kso_qt@@@2@ABVQStringList@2@W4ParsingMode@12@@Z
?fromTime_t@QDateTime@kso_qt@@SA?AV12@I@Z
?fromTime_t@QDateTime@kso_qt@@SA?AV12@IABVQTimeZone@2@@Z
?fromTime_t@QDateTime@kso_qt@@SA?AV12@IW4TimeSpec@Qt@2@H@Z
?fromUcs4@QString@kso_qt@@SA?AV12@PBIH@Z
?fromUcs4@QString@kso_qt@@SA?AV12@PB_UH@Z
?fromUnicode@QTextCodec@kso_qt@@QBE?AVQByteArray@2@ABVQString@2@@Z
?fromUnicode@QTextCodec@kso_qt@@QBE?AVQByteArray@2@PBVQChar@2@HPAUConverterState@12@@Z
?fromUnicode@QTextCodec@kso_qt@@QBE?AVQByteArray@2@VQStringView@2@@Z
?fromUnicode@QTextEncoder@kso_qt@@QAE?AVQByteArray@2@ABVQString@2@@Z
?fromUnicode@QTextEncoder@kso_qt@@QAE?AVQByteArray@2@PBVQChar@2@H@Z
?fromUnicode@QTextEncoder@kso_qt@@QAE?AVQByteArray@2@VQStringView@2@@Z
?fromUserInput@QUrl@kso_qt@@SA?AV12@ABVQString@2@0V?$QFlags@W4UserInputResolutionOption@QUrl@kso_qt@@@2@@Z
?fromUserInput@QUrl@kso_qt@@SA?AV12@ABVQString@2@@Z
?fromUtf16@QString@kso_qt@@SA?AV12@PBGH@Z
?fromUtf16@QString@kso_qt@@SA?AV12@PB_SH@Z
?fromUtf8@QString@kso_qt@@SA?AV12@ABVQByteArray@2@@Z
?fromUtf8@QString@kso_qt@@SA?AV12@PBDH@Z
?fromUtf8_helper@QString@kso_qt@@CA?AV12@PBDH@Z
?fromVariant@QCborValue@kso_qt@@SA?AV12@ABVQVariant@2@@Z
?fromVariant@QJsonDocument@kso_qt@@SA?AV12@ABVQVariant@2@@Z
?fromVariant@QJsonValue@kso_qt@@SA?AV12@ABVQVariant@2@@Z
?fromVariantHash@QCborMap@kso_qt@@SA?AV12@ABV?$QHash@VQString@kso_qt@@VQVariant@2@@2@@Z
?fromVariantHash@QJsonObject@kso_qt@@SA?AV12@ABV?$QHash@VQString@kso_qt@@VQVariant@2@@2@@Z
?fromVariantList@QCborArray@kso_qt@@SA?AV12@ABV?$QList@VQVariant@kso_qt@@@2@@Z
?fromVariantList@QJsonArray@kso_qt@@SA?AV12@ABV?$QList@VQVariant@kso_qt@@@2@@Z
?fromVariantMap@QCborMap@kso_qt@@SA?AV12@ABV?$QMap@VQString@kso_qt@@VQVariant@2@@2@@Z
?fromVariantMap@QJsonObject@kso_qt@@SA?AV12@ABV?$QMap@VQString@kso_qt@@VQVariant@2@@2@@Z
?fromVector@?$QList@VQItemSelectionRange@kso_qt@@@kso_qt@@SA?AV12@ABV?$QVector@VQItemSelectionRange@kso_qt@@@2@@Z
?fromWCharArray@QString@kso_qt@@SA?AV12@PB_WH@Z
?front@?$QList@VQItemSelectionRange@kso_qt@@@kso_qt@@QAEAAVQItemSelectionRange@2@XZ
?front@?$QList@VQItemSelectionRange@kso_qt@@@kso_qt@@QBEABVQItemSelectionRange@2@XZ
?front@?$QVector@VQPoint@kso_qt@@@kso_qt@@QAEAAVQPoint@2@XZ
?front@?$QVector@VQPoint@kso_qt@@@kso_qt@@QBEABVQPoint@2@XZ
?front@?$QVector@VQPointF@kso_qt@@@kso_qt@@QAEAAVQPointF@2@XZ
?front@?$QVector@VQPointF@kso_qt@@@kso_qt@@QBEABVQPointF@2@XZ
?front@?$QVector@VQXmlStreamAttribute@kso_qt@@@kso_qt@@QAEAAVQXmlStreamAttribute@2@XZ
?front@?$QVector@VQXmlStreamAttribute@kso_qt@@@kso_qt@@QBEABVQXmlStreamAttribute@2@XZ
?front@QByteArray@kso_qt@@QAE?AVQByteRef@2@XZ
?front@QByteArray@kso_qt@@QBEDXZ
?front@QString@kso_qt@@QAE?AVQCharRef@2@XZ
?front@QString@kso_qt@@QBE?AVQChar@2@XZ
?front@QStringRef@kso_qt@@QBE?AVQChar@2@XZ
?generateByteOrderMark@QTextStream@kso_qt@@QBE_NXZ
?genericIconName@QMimeType@kso_qt@@QBE?AVQString@2@XZ
?get@QAbstractTransitionPrivate@kso_qt@@SAPAV12@PAVQAbstractTransition@2@@Z
?get@QEventDispatcherWin32Private@kso_qt@@SAPAV12@PAVQEventDispatcherWin32@2@@Z
?get@QEventTransitionPrivate@kso_qt@@SAPAV12@PAVQEventTransition@2@@Z
?get@QLocalePrivate@kso_qt@@SAPAV12@AAVQLocale@2@@Z
?get@QLocalePrivate@kso_qt@@SAPBV12@ABVQLocale@2@@Z
?get@QMutexPool@kso_qt@@QAEPAVQMutex@2@PBX@Z
?get@QObjectPrivate@kso_qt@@SAPAV12@PAVQObject@2@@Z
?get@QObjectPrivate@kso_qt@@SAPBV12@PBVQObject@2@@Z
?get@QStateMachinePrivate@kso_qt@@SAPAV12@PAVQStateMachine@2@@Z
?get@QStatePrivate@kso_qt@@SAPAV12@PAVQState@2@@Z
?get@QStatePrivate@kso_qt@@SAPBV12@PBVQState@2@@Z
?get@QThreadStorageData@kso_qt@@QBEPAPAXXZ
?getAmPmText@QDateTimeParser@kso_qt@@MBE?AVQString@2@W4AmPm@12@W4Case@12@@Z
?getAndRef@ExternalRefCountData@QtSharedPointer@kso_qt@@SAPAU123@PBVQObject@3@@Z
?getChar@QIODevice@kso_qt@@QAE_NPAD@Z
?getCoords@QRect@kso_qt@@QBEXPAH000@Z
?getCoords@QRectF@kso_qt@@QBEXPAN000@Z
?getDate@QDate@kso_qt@@QAEXPAH00@Z
?getDate@QDate@kso_qt@@QBEXPAH00@Z
?getDigit@QDateTimeParser@kso_qt@@IBEHABVQDateTime@2@H@Z
?getInterpolator@QVariantAnimationPrivate@kso_qt@@SAP6A?AVQVariant@2@PBX0N@ZH@Z
?getLangAndCountry@QLocalePrivate@kso_qt@@SAXABVQString@2@AAW4Language@QLocale@2@AAW4Script@52@AAW4Country@52@@Z
?getLockInfo@QLockFile@kso_qt@@QBE_NPA_JPAVQString@2@1@Z
?getMaximum@QDateTimeParser@kso_qt@@MBE?AVQDateTime@2@XZ
?getMinimum@QDateTimeParser@kso_qt@@MBE?AVQDateTime@2@XZ
?getParameterTypes@QMetaMethod@kso_qt@@QBEXPAH@Z
?getRect@QRect@kso_qt@@QBEXPAH000@Z
?getRect@QRectF@kso_qt@@QBEXPAN000@Z
?getTransitionDomain@QStateMachinePrivate@kso_qt@@QBEPAVQAbstractState@2@PAVQAbstractTransition@2@ABV?$QList@PAVQAbstractState@kso_qt@@@2@PAUCalculationCache@2@@Z
?globPatterns@QMimeType@kso_qt@@QBE?AVQStringList@2@XZ
?global@QRandomGenerator64@kso_qt@@SAPAV12@XZ
?globalInstance@QThreadPool@kso_qt@@SAPAV12@XZ
?globalInstanceGet@QMutexPool@kso_qt@@SAPAVQMutex@2@PBX@Z
?globalMatch@QRegularExpression@kso_qt@@QBE?AVQRegularExpressionMatchIterator@2@ABVQString@2@HW4MatchType@12@V?$QFlags@W4MatchOption@QRegularExpression@kso_qt@@@2@@Z
?globalMatch@QRegularExpression@kso_qt@@QBE?AVQRegularExpressionMatchIterator@2@ABVQStringRef@2@HW4MatchType@12@V?$QFlags@W4MatchOption@QRegularExpression@kso_qt@@@2@@Z
?globalRestorePolicy@QStateMachine@kso_qt@@QBE?AW4RestorePolicy@QState@2@XZ
?goToState@QStateMachinePrivate@kso_qt@@QAEXPAVQAbstractState@2@@Z
?graphemeBreakClass@QUnicodeTables@kso_qt@@YI?AW4GraphemeBreakClass@12@I@Z
?group@QAbstractAnimation@kso_qt@@QBEPAVQAnimationGroup@2@XZ
?group@QFileInfo@kso_qt@@QBE?AVQString@2@XZ
?group@QLocalePrivate@kso_qt@@QBE?AVQChar@2@XZ
?group@QSettings@kso_qt@@QBE?AVQString@2@XZ
?groupId@QFileInfo@kso_qt@@QBEIXZ
?groupId@QFileSystemMetaData@kso_qt@@QBEIXZ
?groupSeparator@QLocale@kso_qt@@QBE?AVQChar@2@XZ
?handle@QAbstractFileEngine@kso_qt@@UBEHXZ
?handle@QFSFileEngine@kso_qt@@UBEHXZ
?handle@QFileDevice@kso_qt@@QBEHXZ
?handle@QSharedMemoryPrivate@kso_qt@@QAEPAXXZ
?handle@QWinEventNotifier@kso_qt@@QBEPAXXZ
?handleFilteredEvent@QStateMachinePrivate@kso_qt@@QAEXPAVQObject@2@PAVQEvent@2@@Z
?handleTransitionSignal@QStateMachinePrivate@kso_qt@@QAEXPAVQObject@2@HPAPAX@Z
?handler@QStateMachinePrivate@kso_qt@@2PBUHandler@12@B
?hasAttribute@QXmlStreamAttributes@kso_qt@@QBE_NABVQString@2@0@Z
?hasAttribute@QXmlStreamAttributes@kso_qt@@QBE_NABVQString@2@@Z
?hasAttribute@QXmlStreamAttributes@kso_qt@@QBE_NVQLatin1String@2@@Z
?hasChildren@QAbstractItemModel@kso_qt@@UBE_NABVQModelIndex@2@@Z
?hasChildren@QAbstractListModel@kso_qt@@EBE_NABVQModelIndex@2@@Z
?hasChildren@QAbstractProxyModel@kso_qt@@UBE_NABVQModelIndex@2@@Z
?hasChildren@QAbstractTableModel@kso_qt@@EBE_NABVQModelIndex@2@@Z
?hasChildren@QSortFilterProxyModel@kso_qt@@UBE_NABVQModelIndex@2@@Z
?hasColor@QMimeData@kso_qt@@QBE_NXZ
?hasDaylightTime@QTimeZone@kso_qt@@QBE_NXZ
?hasDaylightTime@QTimeZonePrivate@kso_qt@@UBE_NXZ
?hasDaylightTime@QWinTimeZonePrivate@kso_qt@@UBE_NXZ
?hasEncodedQueryItem@QUrl@kso_qt@@QBE_NABVQByteArray@2@@Z
?hasError@QXmlStreamReader@kso_qt@@QBE_NXZ
?hasError@QXmlStreamWriter@kso_qt@@QBE_NXZ
?hasException@ExceptionStore@QtPrivate@kso_qt@@QBE_NXZ
?hasExpired@QDeadlineTimer@kso_qt@@QBE_NXZ
?hasExpired@QElapsedTimer@kso_qt@@QBE_N_J@Z
?hasFailure@QTextDecoder@kso_qt@@QBE_NXZ
?hasFailure@QTextEncoder@kso_qt@@QBE_NXZ
?hasFlags@QFileSystemMetaData@kso_qt@@QBE_NV?$QFlags@W4MetaDataFlag@QFileSystemMetaData@kso_qt@@@2@@Z
?hasFormat@QMimeData@kso_qt@@UBE_NABVQString@2@@Z
?hasFragment@QUrl@kso_qt@@QBE_NXZ
?hasHtml@QMimeData@kso_qt@@QBE_NXZ
?hasImage@QMimeData@kso_qt@@QBE_NXZ
?hasIndex@QAbstractItemModel@kso_qt@@QBE_NHHABVQModelIndex@2@@Z
?hasMatch@QRegularExpressionMatch@kso_qt@@QBE_NXZ
?hasMirrored@QChar@kso_qt@@QBE_NXZ
?hasMirrored@QChar@kso_qt@@SI_NI@Z
?hasMirrored@QCharRef@kso_qt@@QBE_NXZ
?hasNext@QCborStreamReader@kso_qt@@QBE_NXZ
?hasNext@QDirIterator@kso_qt@@QBE_NXZ
?hasNext@QRegularExpressionMatchIterator@kso_qt@@QBE_NXZ
?hasNextResult@ResultStoreBase@QtPrivate@kso_qt@@QBE_NXZ
?hasNotifySignal@QMetaProperty@kso_qt@@QBE_NXZ
?hasNotifySignal@QMetaPropertyBuilder@kso_qt@@QBE_NXZ
?hasPartialMatch@QRegularExpressionMatch@kso_qt@@QBE_NXZ
?hasPendingEvents@QCoreApplication@kso_qt@@SA_NXZ
?hasPendingEvents@QEventDispatcherWin32@kso_qt@@UAE_NXZ
?hasQuery@QUrl@kso_qt@@QBE_NXZ
?hasQueryItem@QUrl@kso_qt@@QBE_NABVQString@2@@Z
?hasQueryItem@QUrlQuery@kso_qt@@QBE_NABVQString@2@@Z
?hasRegisteredComparators@QMetaType@kso_qt@@SA_NH@Z
?hasRegisteredConverterFunction@QMetaType@kso_qt@@SA_NHH@Z
?hasRegisteredDebugStreamOperator@QMetaType@kso_qt@@SA_NH@Z
?hasRestorable@QStateMachinePrivate@kso_qt@@QBE_NPAVQAbstractState@2@PAVQObject@2@ABVQByteArray@2@@Z
?hasSelection@QItemSelectionModel@kso_qt@@QBE_NXZ
?hasShrunk@QHashData@kso_qt@@QAEXXZ
?hasStdCppSet@QMetaProperty@kso_qt@@QBE_NXZ
?hasStdCppSet@QMetaPropertyBuilder@kso_qt@@QBE_NXZ
?hasText@QMimeData@kso_qt@@QBE_NXZ
?hasThrown@ExceptionStore@QtPrivate@kso_qt@@QBE_NXZ
?hasTransitions@QTimeZone@kso_qt@@QBE_NXZ
?hasTransitions@QTimeZonePrivate@kso_qt@@UBE_NXZ
?hasTransitions@QWinTimeZonePrivate@kso_qt@@UBE_NXZ
?hasUrls@QMimeData@kso_qt@@QBE_NXZ
?hash@QCryptographicHash@kso_qt@@SA?AVQByteArray@2@ABV32@W4Algorithm@12@@Z
?hash@QMessageAuthenticationCode@kso_qt@@SA?AVQByteArray@2@ABV32@0W4Algorithm@QCryptographicHash@2@@Z
?hashLength@QCryptographicHash@kso_qt@@SAHW4Algorithm@12@@Z
?headerData@QAbstractItemModel@kso_qt@@UBE?AVQVariant@2@HW4Orientation@Qt@2@H@Z
?headerData@QAbstractProxyModel@kso_qt@@UBE?AVQVariant@2@HW4Orientation@Qt@2@H@Z
?headerData@QIdentityProxyModel@kso_qt@@UBE?AVQVariant@2@HW4Orientation@Qt@2@H@Z
?headerData@QSortFilterProxyModel@kso_qt@@UBE?AVQVariant@2@HW4Orientation@Qt@2@H@Z
?headerDataChanged@QAbstractItemModel@kso_qt@@QAEXW4Orientation@Qt@2@HH@Z
?height@QItemSelectionRange@kso_qt@@QBEHXZ
?height@QRect@kso_qt@@QBEHXZ
?height@QRectF@kso_qt@@QBENXZ
?height@QSize@kso_qt@@QBEHXZ
?height@QSizeF@kso_qt@@QBENXZ
?helpText@QCommandLineParser@kso_qt@@QBE?AVQString@2@XZ
?hex@kso_qt@@YAAAVQTextStream@1@AAV21@@Z
?highSurrogate@QChar@kso_qt@@SAGI@Z
?historyStates@QStatePrivate@kso_qt@@QBE?AV?$QList@PAVQHistoryState@kso_qt@@@2@XZ
?historyType@QHistoryState@kso_qt@@QBE?AW4HistoryType@12@XZ
?historyTypeChanged@QHistoryState@kso_qt@@QAEXUQPrivateSignal@12@@Z
?home@QDir@kso_qt@@SA?AV12@XZ
?homePath@QDir@kso_qt@@SA?AVQString@2@XZ
?homePath@QFSFileEngine@kso_qt@@SA?AVQString@2@XZ
?host@QUrl@kso_qt@@QBE?AVQString@2@V?$QFlags@W4ComponentFormattingOption@QUrl@kso_qt@@@2@@Z
?hour@QTime@kso_qt@@QBEHXZ
?html@QMimeData@kso_qt@@QBE?AVQString@2@XZ
?ianaIdToWindowsId@QTimeZone@kso_qt@@SA?AVQByteArray@2@ABV32@@Z
?ianaIdToWindowsId@QTimeZonePrivate@kso_qt@@SA?AVQByteArray@2@ABV32@@Z
?iconName@QMimeType@kso_qt@@QBE?AVQString@2@XZ
?id@QAbstractFileEngine@kso_qt@@UBE?AVQByteArray@2@XZ
?id@QFSFileEngine@kso_qt@@UBE?AVQByteArray@2@XZ
?id@QMetaCallEvent@kso_qt@@QBEHXZ
?id@QTimeZone@kso_qt@@QBE?AVQByteArray@2@XZ
?id@QTimeZonePrivate@kso_qt@@QBE?AVQByteArray@2@XZ
?idealThreadCount@QThread@kso_qt@@SAHXZ
?idnWhitelist@QUrl@kso_qt@@SA?AVQStringList@2@XZ
?ignore@QEvent@kso_qt@@QAEXXZ
?ignorePunctuation@QCollator@kso_qt@@QBE_NXZ
?imageData@QMimeData@kso_qt@@QBE?AVQVariant@2@XZ
?index@QAbstractListModel@kso_qt@@UBE?AVQModelIndex@2@HHABV32@@Z
?index@QAbstractTableModel@kso_qt@@UBE?AVQModelIndex@2@HHABV32@@Z
?index@QIdentityProxyModel@kso_qt@@UBE?AVQModelIndex@2@HHABV32@@Z
?index@QMetaEnumBuilder@kso_qt@@QBEHXZ
?index@QMetaMethodBuilder@kso_qt@@QBEHXZ
?index@QMetaPropertyBuilder@kso_qt@@QBEHXZ
?index@QSortFilterProxyModel@kso_qt@@UBE?AVQModelIndex@2@HHABV32@@Z
?indexIn@QByteArrayMatcher@kso_qt@@QBEHABVQByteArray@2@H@Z
?indexIn@QByteArrayMatcher@kso_qt@@QBEHPBDHH@Z
?indexIn@QRegExp@kso_qt@@QBEHABVQString@2@HW4CaretMode@12@@Z
?indexIn@QStringMatcher@kso_qt@@QBEHABVQString@2@H@Z
?indexIn@QStringMatcher@kso_qt@@QBEHPBVQChar@2@HH@Z
?indexOf@?$QList@VQItemSelectionRange@kso_qt@@@kso_qt@@QBEHABVQItemSelectionRange@2@H@Z
?indexOf@?$QVector@VQPoint@kso_qt@@@kso_qt@@QBEHABVQPoint@2@H@Z
?indexOf@?$QVector@VQPointF@kso_qt@@@kso_qt@@QBEHABVQPointF@2@H@Z
?indexOf@?$QVector@VQXmlStreamAttribute@kso_qt@@@kso_qt@@QBEHABVQXmlStreamAttribute@2@H@Z
?indexOf@QByteArray@kso_qt@@QBEHABV12@H@Z
?indexOf@QByteArray@kso_qt@@QBEHABVQString@2@H@Z
?indexOf@QByteArray@kso_qt@@QBEHDH@Z
?indexOf@QByteArray@kso_qt@@QBEHPBDH@Z
?indexOf@QFactoryLoader@kso_qt@@QBEHABVQString@2@@Z
?indexOf@QRingBuffer@kso_qt@@QBE_JD_J0@Z
?indexOf@QString@kso_qt@@QBEHAAVQRegExp@2@H@Z
?indexOf@QString@kso_qt@@QBEHABV12@HW4CaseSensitivity@Qt@2@@Z
?indexOf@QString@kso_qt@@QBEHABVQRegExp@2@H@Z
?indexOf@QString@kso_qt@@QBEHABVQRegularExpression@2@H@Z
?indexOf@QString@kso_qt@@QBEHABVQRegularExpression@2@HPAVQRegularExpressionMatch@2@@Z
?indexOf@QString@kso_qt@@QBEHABVQStringRef@2@HW4CaseSensitivity@Qt@2@@Z
?indexOf@QString@kso_qt@@QBEHVQChar@2@HW4CaseSensitivity@Qt@2@@Z
?indexOf@QString@kso_qt@@QBEHVQLatin1String@2@HW4CaseSensitivity@Qt@2@@Z
?indexOf@QStringRef@kso_qt@@QBEHABV12@HW4CaseSensitivity@Qt@2@@Z
?indexOf@QStringRef@kso_qt@@QBEHABVQString@2@HW4CaseSensitivity@Qt@2@@Z
?indexOf@QStringRef@kso_qt@@QBEHVQChar@2@HW4CaseSensitivity@Qt@2@@Z
?indexOf@QStringRef@kso_qt@@QBEHVQLatin1String@2@HW4CaseSensitivity@Qt@2@@Z
?indexOfAnimation@QAnimationGroup@kso_qt@@QBEHPAVQAbstractAnimation@2@@Z
?indexOfClassInfo@QMetaObject@kso_qt@@QBEHPBD@Z
?indexOfClassInfo@QMetaObjectBuilder@kso_qt@@QAEHABVQByteArray@2@@Z
?indexOfConstructor@QMetaObject@kso_qt@@QBEHPBD@Z
?indexOfConstructor@QMetaObjectBuilder@kso_qt@@QAEHABVQByteArray@2@@Z
?indexOfEnumerator@QMetaObject@kso_qt@@QBEHPBD@Z
?indexOfEnumerator@QMetaObjectBuilder@kso_qt@@QAEHABVQByteArray@2@@Z
?indexOfIn@QStaticByteArrayMatcherBase@kso_qt@@IBEHPBDI0HH@Z
?indexOfMethod@QMetaObject@kso_qt@@QBEHPBD@Z
?indexOfMethod@QMetaObjectBuilder@kso_qt@@QAEHABVQByteArray@2@@Z
?indexOfProperty@QMetaObject@kso_qt@@QBEHPBD@Z
?indexOfProperty@QMetaObjectBuilder@kso_qt@@QAEHABVQByteArray@2@@Z
?indexOfSignal@QMetaObject@kso_qt@@QBEHPBD@Z
?indexOfSignal@QMetaObjectBuilder@kso_qt@@QAEHABVQByteArray@2@@Z
?indexOfSlot@QMetaObject@kso_qt@@QBEHPBD@Z
?indexOfSlot@QMetaObjectBuilder@kso_qt@@QAEHABVQByteArray@2@@Z
?indexValid@QAbstractItemModelPrivate@kso_qt@@QBE_NABVQModelIndex@2@@Z
?indexes@QItemSelection@kso_qt@@QBE?AV?$QList@VQModelIndex@kso_qt@@@2@XZ
?indexes@QItemSelectionRange@kso_qt@@QBE?AV?$QList@VQModelIndex@kso_qt@@@2@XZ
?info@QMessageLogger@kso_qt@@QBAXABVQLoggingCategory@2@PBDZZ
?info@QMessageLogger@kso_qt@@QBAXP6AABVQLoggingCategory@2@XZPBDZZ
?info@QMessageLogger@kso_qt@@QBAXPBDZZ
?info@QMessageLogger@kso_qt@@QBE?AVQDebug@2@ABVQLoggingCategory@2@@Z
?info@QMessageLogger@kso_qt@@QBE?AVQDebug@2@P6AABVQLoggingCategory@2@XZ@Z
?info@QMessageLogger@kso_qt@@QBE?AVQDebug@2@XZ
?inherits@QMetaObject@kso_qt@@QBE_NPBU12@@Z
?inherits@QMimeType@kso_qt@@QBE_NABVQString@2@@Z
?inherits@QObject@kso_qt@@QBE_NPBD@Z
?iniCodec@QSettings@kso_qt@@QBEPAVQTextCodec@2@XZ
?iniEscapedKey@QSettingsPrivate@kso_qt@@SAXABVQString@2@AAVQByteArray@2@@Z
?iniEscapedString@QSettingsPrivate@kso_qt@@SAXABVQString@2@AAVQByteArray@2@PAVQTextCodec@2@@Z
?iniEscapedStringList@QSettingsPrivate@kso_qt@@SAXABVQStringList@2@AAVQByteArray@2@PAVQTextCodec@2@@Z
?iniUnescapedKey@QSettingsPrivate@kso_qt@@SA_NABVQByteArray@2@HHAAVQString@2@@Z
?iniUnescapedStringList@QSettingsPrivate@kso_qt@@SA_NABVQByteArray@2@HHAAVQString@2@AAVQStringList@2@PAVQTextCodec@2@@Z
?init@QCoreApplicationPrivate@kso_qt@@QAEXXZ
?init@QFSFileEnginePrivate@kso_qt@@IAEXXZ
?init@QLoggingCategory@kso_qt@@AAEXPBDW4QtMsgType@2@@Z
?init@QUtcTimeZonePrivate@kso_qt@@AAEXABVQByteArray@2@@Z
?init@QUtcTimeZonePrivate@kso_qt@@AAEXABVQByteArray@2@HABVQString@2@1W4Country@QLocale@2@1@Z
?init@QWinTimeZonePrivate@kso_qt@@AAEXABVQByteArray@2@@Z
?initCharAttributes@QUnicodeTools@kso_qt@@YAXPBGHPBUScriptItem@12@HPAUQCharAttributes@2@V?$QFlags@W4CharAttributeOption@QUnicodeTools@kso_qt@@@2@@Z
?initKey@QSharedMemoryPrivate@kso_qt@@QAE_NXZ
?initLocale@QCoreApplicationPrivate@kso_qt@@SAXXZ
?initScripts@QUnicodeTools@kso_qt@@YAXPBGHPAE@Z
?initialState@QState@kso_qt@@QBEPAVQAbstractState@2@XZ
?initialStateChanged@QState@kso_qt@@QAEXUQPrivateSignal@12@@Z
?initialize@QJsonArray@kso_qt@@AAEXXZ
?initialize@QJsonObject@kso_qt@@AAEXXZ
?initializeAnimation@QStateMachinePrivate@kso_qt@@QAE?AUInitializeAnimationResult@12@PAVQAbstractAnimation@2@ABUQPropertyAssignment@2@@Z
?initializeAnimations@QStateMachinePrivate@kso_qt@@QAEXPAVQAbstractState@2@ABV?$QList@PAVQAbstractAnimation@kso_qt@@@2@ABV?$QList@PAVQAbstractState@kso_qt@@@2@AAV?$QHash@PAVQAbstractState@kso_qt@@V?$QVector@UQPropertyAssignment@kso_qt@@@2@@2@@Z
?initializeRules@QLoggingRegistry@kso_qt@@QAEXXZ
?inputChannelMode@QProcess@kso_qt@@QBE?AW4InputChannelMode@12@XZ
?insert@?$QList@VQItemSelectionRange@kso_qt@@@kso_qt@@QAE?AViterator@12@V312@ABVQItemSelectionRange@2@@Z
?insert@?$QList@VQItemSelectionRange@kso_qt@@@kso_qt@@QAEXHABVQItemSelectionRange@2@@Z
?insert@?$QVector@VQPoint@kso_qt@@@kso_qt@@QAE?AViterator@?$QTypedArrayData@VQPoint@kso_qt@@@2@V342@$$QAVQPoint@2@@Z
?insert@?$QVector@VQPoint@kso_qt@@@kso_qt@@QAE?AViterator@?$QTypedArrayData@VQPoint@kso_qt@@@2@V342@ABVQPoint@2@@Z
?insert@?$QVector@VQPoint@kso_qt@@@kso_qt@@QAE?AViterator@?$QTypedArrayData@VQPoint@kso_qt@@@2@V342@HABVQPoint@2@@Z
?insert@?$QVector@VQPoint@kso_qt@@@kso_qt@@QAEPAVQPoint@2@PAV32@$$QAV32@@Z
?insert@?$QVector@VQPoint@kso_qt@@@kso_qt@@QAEPAVQPoint@2@PAV32@ABV32@@Z
?insert@?$QVector@VQPoint@kso_qt@@@kso_qt@@QAEPAVQPoint@2@PAV32@HABV32@@Z
?insert@?$QVector@VQPoint@kso_qt@@@kso_qt@@QAEXH$$QAVQPoint@2@@Z
?insert@?$QVector@VQPoint@kso_qt@@@kso_qt@@QAEXHABVQPoint@2@@Z
?insert@?$QVector@VQPoint@kso_qt@@@kso_qt@@QAEXHHABVQPoint@2@@Z
?insert@?$QVector@VQPointF@kso_qt@@@kso_qt@@QAE?AViterator@?$QTypedArrayData@VQPointF@kso_qt@@@2@V342@$$QAVQPointF@2@@Z
?insert@?$QVector@VQPointF@kso_qt@@@kso_qt@@QAE?AViterator@?$QTypedArrayData@VQPointF@kso_qt@@@2@V342@ABVQPointF@2@@Z
?insert@?$QVector@VQPointF@kso_qt@@@kso_qt@@QAE?AViterator@?$QTypedArrayData@VQPointF@kso_qt@@@2@V342@HABVQPointF@2@@Z
?insert@?$QVector@VQPointF@kso_qt@@@kso_qt@@QAEPAVQPointF@2@PAV32@$$QAV32@@Z
?insert@?$QVector@VQPointF@kso_qt@@@kso_qt@@QAEPAVQPointF@2@PAV32@ABV32@@Z
?insert@?$QVector@VQPointF@kso_qt@@@kso_qt@@QAEPAVQPointF@2@PAV32@HABV32@@Z
?insert@?$QVector@VQPointF@kso_qt@@@kso_qt@@QAEXH$$QAVQPointF@2@@Z
?insert@?$QVector@VQPointF@kso_qt@@@kso_qt@@QAEXHABVQPointF@2@@Z
?insert@?$QVector@VQPointF@kso_qt@@@kso_qt@@QAEXHHABVQPointF@2@@Z
?insert@?$QVector@VQXmlStreamAttribute@kso_qt@@@kso_qt@@QAEPAVQXmlStreamAttribute@2@PAV32@$$QAV32@@Z
?insert@?$QVector@VQXmlStreamAttribute@kso_qt@@@kso_qt@@QAEPAVQXmlStreamAttribute@2@PAV32@ABV32@@Z
?insert@?$QVector@VQXmlStreamAttribute@kso_qt@@@kso_qt@@QAEPAVQXmlStreamAttribute@2@PAV32@HABV32@@Z
?insert@?$QVector@VQXmlStreamAttribute@kso_qt@@@kso_qt@@QAEXH$$QAVQXmlStreamAttribute@2@@Z
?insert@?$QVector@VQXmlStreamAttribute@kso_qt@@@kso_qt@@QAEXHABVQXmlStreamAttribute@2@@Z
?insert@?$QVector@VQXmlStreamAttribute@kso_qt@@@kso_qt@@QAEXHHABVQXmlStreamAttribute@2@@Z
?insert@QByteArray@kso_qt@@QAEAAV12@HABV12@@Z
?insert@QByteArray@kso_qt@@QAEAAV12@HABVQString@2@@Z
?insert@QByteArray@kso_qt@@QAEAAV12@HD@Z
?insert@QByteArray@kso_qt@@QAEAAV12@HHD@Z
?insert@QByteArray@kso_qt@@QAEAAV12@HPBD@Z
?insert@QByteArray@kso_qt@@QAEAAV12@HPBDH@Z
?insert@QCborArray@kso_qt@@QAE?AVIterator@12@V312@ABVQCborValue@2@@Z
?insert@QCborArray@kso_qt@@QAE?AVIterator@12@VConstIterator@12@ABVQCborValue@2@@Z
?insert@QCborArray@kso_qt@@QAEXH$$QAVQCborValue@2@@Z
?insert@QCborArray@kso_qt@@QAEXHABVQCborValue@2@@Z
?insert@QCborMap@kso_qt@@QAE?AVIterator@12@ABVQCborValue@2@0@Z
?insert@QCborMap@kso_qt@@QAE?AVIterator@12@ABVQString@2@ABVQCborValue@2@@Z
?insert@QCborMap@kso_qt@@QAE?AVIterator@12@U?$QPair@VQCborValue@kso_qt@@V12@@2@@Z
?insert@QCborMap@kso_qt@@QAE?AVIterator@12@VQLatin1String@2@ABVQCborValue@2@@Z
?insert@QCborMap@kso_qt@@QAE?AVIterator@12@_JABVQCborValue@2@@Z
?insert@QJsonArray@kso_qt@@QAE?AViterator@12@V312@ABVQJsonValue@2@@Z
?insert@QJsonArray@kso_qt@@QAEXHABVQJsonValue@2@@Z
?insert@QJsonObject@kso_qt@@QAE?AViterator@12@ABVQString@2@ABVQJsonValue@2@@Z
?insert@QListData@kso_qt@@QAEPAPAXH@Z
?insert@QProcessEnvironment@kso_qt@@QAEXABV12@@Z
?insert@QProcessEnvironment@kso_qt@@QAEXABVQString@2@0@Z
?insert@QString@kso_qt@@QAEAAV12@HABV12@@Z
?insert@QString@kso_qt@@QAEAAV12@HABVQByteArray@2@@Z
?insert@QString@kso_qt@@QAEAAV12@HABVQStringRef@2@@Z
?insert@QString@kso_qt@@QAEAAV12@HPBD@Z
?insert@QString@kso_qt@@QAEAAV12@HPBVQChar@2@H@Z
?insert@QString@kso_qt@@QAEAAV12@HVQChar@2@@Z
?insert@QString@kso_qt@@QAEAAV12@HVQLatin1String@2@@Z
?insertAnimation@QAnimationGroup@kso_qt@@QAEXHPAVQAbstractAnimation@2@@Z
?insertColumn@QAbstractItemModel@kso_qt@@QAE_NHABVQModelIndex@2@@Z
?insertColumns@QAbstractItemModel@kso_qt@@UAE_NHHABVQModelIndex@2@@Z
?insertColumns@QIdentityProxyModel@kso_qt@@UAE_NHHABVQModelIndex@2@@Z
?insertColumns@QSortFilterProxyModel@kso_qt@@UAE_NHHABVQModelIndex@2@@Z
?insertPause@QSequentialAnimationGroup@kso_qt@@QAEPAVQPauseAnimation@2@HH@Z
?insertResultItem@ResultStoreBase@QtPrivate@kso_qt@@IAEHHAAVResultItem@23@@Z
?insertResultItemIfValid@ResultStoreBase@QtPrivate@kso_qt@@IAEXHAAVResultItem@23@@Z
?insertRow@QAbstractItemModel@kso_qt@@QAE_NHABVQModelIndex@2@@Z
?insertRows@QAbstractItemModel@kso_qt@@UAE_NHHABVQModelIndex@2@@Z
?insertRows@QIdentityProxyModel@kso_qt@@UAE_NHHABVQModelIndex@2@@Z
?insertRows@QSortFilterProxyModel@kso_qt@@UAE_NHHABVQModelIndex@2@@Z
?insertRows@QStringListModel@kso_qt@@UAE_NHHABVQModelIndex@2@@Z
?install@QAnimationDriver@kso_qt@@QAEXXZ
?installAnimationDriver@QUnifiedTimer@kso_qt@@QAEXPAVQAnimationDriver@2@@Z
?installEventFilter@QObject@kso_qt@@QAEXPAV12@@Z
?installFilter@QLoggingCategory@kso_qt@@SAP6AXPAV12@@ZP6AX0@Z@Z
?installFilter@QLoggingRegistry@kso_qt@@QAEP6AXPAVQLoggingCategory@2@@ZP6AX0@Z@Z
?installMessageHook@QEventDispatcherWin32@kso_qt@@IAEXXZ
?installNativeEventFilter@QAbstractEventDispatcher@kso_qt@@QAEXPAVQAbstractNativeEventFilter@2@@Z
?installNativeEventFilter@QCoreApplication@kso_qt@@QAEXPAVQAbstractNativeEventFilter@2@@Z
?installTranslator@QCoreApplication@kso_qt@@SA_NPAVQTranslator@2@@Z
?instance@QAbstractEventDispatcher@kso_qt@@SAPAV12@PAVQThread@2@@Z
?instance@QCoreApplication@kso_qt@@SAPAV12@XZ
?instance@QFactoryLoader@kso_qt@@QBEPAVQObject@2@H@Z
?instance@QLoggingRegistry@kso_qt@@SAPAV12@XZ
?instance@QMutexPool@kso_qt@@SAPAV12@XZ
?instance@QPluginLoader@kso_qt@@QAEPAVQObject@2@XZ
?instance@QUnifiedTimer@kso_qt@@SAPAV12@XZ
?instance@QUnifiedTimer@kso_qt@@SAPAV12@_N@Z
?integerBase@QTextStream@kso_qt@@QBEHXZ
?internalHwnd@QEventDispatcherWin32@kso_qt@@QAEPAUHWND__@@XZ
?internalId@QModelIndex@kso_qt@@QBEIXZ
?internalId@QPersistentModelIndex@kso_qt@@QBEIXZ
?internalPointer@QModelIndex@kso_qt@@QBEPAXXZ
?internalPointer@QPersistentModelIndex@kso_qt@@QBEPAXXZ
?internalSafetyCheckAdd@QtSharedPointer@kso_qt@@YAXPBXPDX@Z
?internalSafetyCheckCleanCheck@QtSharedPointer@kso_qt@@YAXXZ
?internalSafetyCheckRemove@QtSharedPointer@kso_qt@@YAXPBX@Z
?interpolated@QVariantAnimation@kso_qt@@MBE?AVQVariant@2@ABV32@0N@Z
?interrupt@QEventDispatcherWin32@kso_qt@@UAEXXZ
?intersect@QItemSelectionRange@kso_qt@@QBE?AV12@ABV12@@Z
?intersect@QLineF@kso_qt@@QBE?AW4IntersectType@12@ABV12@PAVQPointF@2@@Z
?intersect@QRect@kso_qt@@QBE?AV12@ABV12@@Z
?intersect@QRectF@kso_qt@@QBE?AV12@ABV12@@Z
?intersected@QItemSelectionRange@kso_qt@@QBE?AV12@ABV12@@Z
?intersected@QRect@kso_qt@@QBE?AV12@ABV12@@Z
?intersected@QRectF@kso_qt@@QBE?AV12@ABV12@@Z
?intersects@QItemSelectionRange@kso_qt@@QBE_NABV12@@Z
?intersects@QRect@kso_qt@@QBE_NABV12@@Z
?intersects@QRectF@kso_qt@@QBE_NABV12@@Z
?interval@QTimer@kso_qt@@QBEHXZ
?intervalAsDuration@QTimer@kso_qt@@QBE?AV?$duration@_JU?$ratio@$00$0DOI@@std@@@chrono@std@@XZ
?invalidData@QTimeZonePrivate@kso_qt@@SA?AUData@12@XZ
?invalidMSecs@QTimeZonePrivate@kso_qt@@SA_JXZ
?invalidOffsetData@QTimeZonePrivate@kso_qt@@SA?AUOffsetData@QTimeZone@2@XZ
?invalidSeconds@QTimeZonePrivate@kso_qt@@SA_JXZ
?invalidate@QElapsedTimer@kso_qt@@QAEXXZ
?invalidate@QSortFilterProxyModel@kso_qt@@QAEXXZ
?invalidateFilter@QSortFilterProxyModel@kso_qt@@IAEXXZ
?invalidatePersistentIndex@QAbstractItemModelPrivate@kso_qt@@QAEXABVQModelIndex@2@@Z
?invalidatePersistentIndexes@QAbstractItemModelPrivate@kso_qt@@QAEXXZ
?invoke@QMetaMethod@kso_qt@@QBE_NPAVQObject@2@VQGenericArgument@2@111111111@Z
?invoke@QMetaMethod@kso_qt@@QBE_NPAVQObject@2@VQGenericReturnArgument@2@VQGenericArgument@2@222222222@Z
?invoke@QMetaMethod@kso_qt@@QBE_NPAVQObject@2@W4ConnectionType@Qt@2@VQGenericArgument@2@222222222@Z
?invoke@QMetaMethod@kso_qt@@QBE_NPAVQObject@2@W4ConnectionType@Qt@2@VQGenericReturnArgument@2@VQGenericArgument@2@333333333@Z
?invokeMethod@QMetaObject@kso_qt@@SA_NPAVQObject@2@PBDVQGenericArgument@2@222222222@Z
?invokeMethod@QMetaObject@kso_qt@@SA_NPAVQObject@2@PBDVQGenericReturnArgument@2@VQGenericArgument@2@333333333@Z
?invokeMethod@QMetaObject@kso_qt@@SA_NPAVQObject@2@PBDW4ConnectionType@Qt@2@VQGenericArgument@2@333333333@Z
?invokeMethod@QMetaObject@kso_qt@@SA_NPAVQObject@2@PBDW4ConnectionType@Qt@2@VQGenericReturnArgument@2@VQGenericArgument@2@444444444@Z
?invokeMethodImpl@QMetaObject@kso_qt@@CA_NPAVQObject@2@PAVQSlotObjectBase@QtPrivate@2@W4ConnectionType@Qt@2@PAX@Z
?invokeOnGadget@QMetaMethod@kso_qt@@QBE_NPAXVQGenericArgument@2@111111111@Z
?invokeOnGadget@QMetaMethod@kso_qt@@QBE_NPAXVQGenericReturnArgument@2@VQGenericArgument@2@222222222@Z
?isAbsolute@QDir@kso_qt@@QBE_NXZ
?isAbsolute@QFileInfo@kso_qt@@QBE_NXZ
?isAbsolutePath@QDir@kso_qt@@SA_NABVQString@2@@Z
?isAccepted@QEvent@kso_qt@@QBE_NXZ
?isActive@QBasicTimer@kso_qt@@QBE_NXZ
?isActive@QTimer@kso_qt@@QBE_NXZ
?isAlias@QFileSystemMetaData@kso_qt@@QBE_NXZ
?isAnimated@QStateMachine@kso_qt@@QBE_NXZ
?isAnyOfType@QOperatingSystemVersion@kso_qt@@QBE_NV?$initializer_list@W4OSType@QOperatingSystemVersion@kso_qt@@@std@@@Z
?isArray@QCborStreamReader@kso_qt@@QBE_NXZ
?isArray@QCborValue@kso_qt@@QBE_NXZ
?isArray@QCborValueRef@kso_qt@@QBE_NXZ
?isArray@QJsonDocument@kso_qt@@QBE_NXZ
?isArray@QJsonValue@kso_qt@@QBE_NXZ
?isArray@QJsonValueRef@kso_qt@@QBE_NXZ
?isAscii@QtPrivate@kso_qt@@YA_NVQLatin1String@2@@Z
?isAscii@QtPrivate@kso_qt@@YA_NVQStringView@2@@Z
?isAtBoundary@QTextBoundaryFinder@kso_qt@@QBE_NXZ
?isAtomic@QStateMachinePrivate@kso_qt@@QBE_NPBVQAbstractState@2@@Z
?isAtomicSyncRequired@QSettings@kso_qt@@QBE_NXZ
?isAttached@QSharedMemory@kso_qt@@QBE_NXZ
?isBaseChar@QXmlUtils@kso_qt@@CA_NVQChar@2@@Z
?isBool@QCborStreamReader@kso_qt@@QBE_NXZ
?isBool@QCborValue@kso_qt@@QBE_NXZ
?isBool@QCborValueRef@kso_qt@@QBE_NXZ
?isBool@QJsonValue@kso_qt@@QBE_NXZ
?isBool@QJsonValueRef@kso_qt@@QBE_NXZ
?isBufferEmpty@QIODevicePrivate@kso_qt@@QBE_NXZ
?isBuiltinType@QtPrivate@kso_qt@@YA_NABVQByteArray@2@@Z
?isBundle@QFileInfo@kso_qt@@QBE_NXZ
?isBundle@QFileSystemMetaData@kso_qt@@QBE_NXZ
?isByteArray@QCborStreamReader@kso_qt@@QBE_NXZ
?isByteArray@QCborValue@kso_qt@@QBE_NXZ
?isByteArray@QCborValueRef@kso_qt@@QBE_NXZ
?isCDATA@QXmlStreamReader@kso_qt@@QBE_NXZ
?isCanceled@QFutureInterfaceBase@kso_qt@@QBE_NXZ
?isCanceled@QFutureWatcherBase@kso_qt@@QBE_NXZ
?isChar@QXmlUtils@kso_qt@@SA_NVQChar@2@@Z
?isCharacters@QXmlStreamReader@kso_qt@@QBE_NXZ
?isColumnSelected@QItemSelectionModel@kso_qt@@QBE_NHABVQModelIndex@2@@Z
?isCombiningChar@QXmlUtils@kso_qt@@CA_NVQChar@2@@Z
?isComment@QXmlStreamReader@kso_qt@@QBE_NXZ
?isCompound@QStateMachinePrivate@kso_qt@@QBE_NPBVQAbstractState@2@@Z
?isCompressed@QResource@kso_qt@@QBE_NXZ
?isConnected_helper@Connection@QMetaObject@kso_qt@@ABE_NXZ
?isConstant@QMetaProperty@kso_qt@@QBE_NXZ
?isConstant@QMetaPropertyBuilder@kso_qt@@QBE_NXZ
?isContainer@QCborStreamReader@kso_qt@@QBE_NXZ
?isContainer@QCborValue@kso_qt@@QBE_NXZ
?isContainer@QCborValueRef@kso_qt@@QBE_NXZ
?isCriticalEnabled@QLoggingCategory@kso_qt@@QBE_NXZ
?isDTD@QXmlStreamReader@kso_qt@@QBE_NXZ
?isDateTime@QCborValue@kso_qt@@QBE_NXZ
?isDateTime@QCborValueRef@kso_qt@@QBE_NXZ
?isDaylightTime@QDateTime@kso_qt@@QBE_NXZ
?isDaylightTime@QTimeZone@kso_qt@@QBE_NABVQDateTime@2@@Z
?isDaylightTime@QTimeZonePrivate@kso_qt@@UBE_N_J@Z
?isDaylightTime@QWinTimeZonePrivate@kso_qt@@UBE_N_J@Z
?isDebugBuild@QLibraryInfo@kso_qt@@SA_NXZ
?isDebugEnabled@QLoggingCategory@kso_qt@@QBE_NXZ
?isDeclarativeSignalConnected@QObjectPrivate@kso_qt@@QBE_NI@Z
?isDefault@QMimeType@kso_qt@@QBE_NXZ
?isDefault@QXmlStreamAttribute@kso_qt@@QBE_NXZ
?isDesignable@QMetaProperty@kso_qt@@QBE_NPBVQObject@2@@Z
?isDesignable@QMetaPropertyBuilder@kso_qt@@QBE_NXZ
?isDetached@?$QList@VQItemSelectionRange@kso_qt@@@kso_qt@@QBE_NXZ
?isDetached@?$QVector@VQPoint@kso_qt@@@kso_qt@@QBE_NXZ
?isDetached@?$QVector@VQPointF@kso_qt@@@kso_qt@@QBE_NXZ
?isDetached@?$QVector@VQXmlStreamAttribute@kso_qt@@@kso_qt@@QBE_NXZ
?isDetached@QBitArray@kso_qt@@QBE_NXZ
?isDetached@QByteArray@kso_qt@@QBE_NXZ
?isDetached@QString@kso_qt@@QBE_NXZ
?isDetached@QUrl@kso_qt@@QBE_NXZ
?isDetached@QUrlQuery@kso_qt@@QBE_NXZ
?isDetached@QVariant@kso_qt@@QBE_NXZ
?isDigit@QChar@kso_qt@@QBE_NXZ
?isDigit@QChar@kso_qt@@SA_NI@Z
?isDigit@QCharRef@kso_qt@@QBE_NXZ
?isDigit@QXmlUtils@kso_qt@@CA_NVQChar@2@@Z
?isDir@QFileInfo@kso_qt@@QBE_NXZ
?isDir@QResource@kso_qt@@IBE_NXZ
?isDirectory@QFileSystemMetaData@kso_qt@@QBE_NXZ
?isDouble@QCborStreamReader@kso_qt@@QBE_NXZ
?isDouble@QCborValue@kso_qt@@QBE_NXZ
?isDouble@QCborValueRef@kso_qt@@QBE_NXZ
?isDouble@QJsonValue@kso_qt@@QBE_NXZ
?isDouble@QJsonValueRef@kso_qt@@QBE_NXZ
?isEditable@QMetaProperty@kso_qt@@QBE_NPBVQObject@2@@Z
?isEditable@QMetaPropertyBuilder@kso_qt@@QBE_NXZ
?isEmpty@?$QList@VQItemSelectionRange@kso_qt@@@kso_qt@@QBE_NXZ
?isEmpty@?$QVector@VQPoint@kso_qt@@@kso_qt@@QBE_NXZ
?isEmpty@?$QVector@VQPointF@kso_qt@@@kso_qt@@QBE_NXZ
?isEmpty@?$QVector@VQXmlStreamAttribute@kso_qt@@@kso_qt@@QBE_NXZ
?isEmpty@QBitArray@kso_qt@@QBE_NXZ
?isEmpty@QByteArray@kso_qt@@QBE_NXZ
?isEmpty@QCborArray@kso_qt@@QBE_NXZ
?isEmpty@QCborMap@kso_qt@@QBE_NXZ
?isEmpty@QDir@kso_qt@@QBE_NV?$QFlags@W4Filter@QDir@kso_qt@@@2@@Z
?isEmpty@QItemSelectionRange@kso_qt@@QBE_NXZ
?isEmpty@QJsonArray@kso_qt@@QBE_NXZ
?isEmpty@QJsonDocument@kso_qt@@QBE_NXZ
?isEmpty@QJsonObject@kso_qt@@QBE_NXZ
?isEmpty@QListData@kso_qt@@QBE_NXZ
?isEmpty@QObjectCleanupHandler@kso_qt@@QBE_NXZ
?isEmpty@QProcessEnvironment@kso_qt@@QBE_NXZ
?isEmpty@QRect@kso_qt@@QBE_NXZ
?isEmpty@QRectF@kso_qt@@QBE_NXZ
?isEmpty@QRegExp@kso_qt@@QBE_NXZ
?isEmpty@QSize@kso_qt@@QBE_NXZ
?isEmpty@QSizeF@kso_qt@@QBE_NXZ
?isEmpty@QString@kso_qt@@QBE_NXZ
?isEmpty@QStringRef@kso_qt@@QBE_NXZ
?isEmpty@QTranslator@kso_qt@@UBE_NXZ
?isEmpty@QUrl@kso_qt@@QBE_NXZ
?isEmpty@QUrlQuery@kso_qt@@QBE_NXZ
?isEnabled@QLoggingCategory@kso_qt@@QBE_NW4QtMsgType@2@@Z
?isEnabled@QSocketNotifier@kso_qt@@QBE_NXZ
?isEnabled@QWinEventNotifier@kso_qt@@QBE_NXZ
?isEncName@QXmlUtils@kso_qt@@SA_NVQStringView@2@@Z
?isEndDocument@QXmlStreamReader@kso_qt@@QBE_NXZ
?isEndElement@QXmlStreamReader@kso_qt@@QBE_NXZ
?isEntityReference@QXmlStreamReader@kso_qt@@QBE_NXZ
?isEnumOrFlag@QMetaPropertyBuilder@kso_qt@@QBE_NXZ
?isEnumType@QMetaProperty@kso_qt@@QBE_NXZ
?isExecutable@QFileInfo@kso_qt@@QBE_NXZ
?isExtended@QMetaType@kso_qt@@ABE_NW4ExtensionFlag@12@@Z
?isExtender@QXmlUtils@kso_qt@@CA_NVQChar@2@@Z
?isExternalEventQueueEmpty@QStateMachinePrivate@kso_qt@@QAE_NXZ
?isFalse@QCborStreamReader@kso_qt@@QBE_NXZ
?isFalse@QCborValue@kso_qt@@QBE_NXZ
?isFalse@QCborValueRef@kso_qt@@QBE_NXZ
?isFile@QFileInfo@kso_qt@@QBE_NXZ
?isFile@QFileSystemMetaData@kso_qt@@QBE_NXZ
?isFile@QResource@kso_qt@@IBE_NXZ
?isFinal@QMetaProperty@kso_qt@@QBE_NXZ
?isFinal@QMetaPropertyBuilder@kso_qt@@QBE_NXZ
?isFinal@QStateMachinePrivate@kso_qt@@SA_NPBVQAbstractState@2@@Z
?isFinished@QFutureInterfaceBase@kso_qt@@QBE_NXZ
?isFinished@QFutureWatcherBase@kso_qt@@QBE_NXZ
?isFinished@QThread@kso_qt@@QBE_NXZ
?isFlag@QMetaEnum@kso_qt@@QBE_NXZ
?isFlag@QMetaEnumBuilder@kso_qt@@QBE_NXZ
?isFlagType@QMetaProperty@kso_qt@@QBE_NXZ
?isFloat16@QCborStreamReader@kso_qt@@QBE_NXZ
?isFloat@QCborStreamReader@kso_qt@@QBE_NXZ
?isForever@QDeadlineTimer@kso_qt@@QBE_NXZ
?isHidden@QCommandLineOption@kso_qt@@QBE_NXZ
?isHidden@QFileInfo@kso_qt@@QBE_NXZ
?isHidden@QFileSystemMetaData@kso_qt@@QBE_NXZ
?isHighSurrogate@QChar@kso_qt@@QBE_NXZ
?isHighSurrogate@QChar@kso_qt@@SA_NI@Z
?isIdeographic@QXmlUtils@kso_qt@@CA_NVQChar@2@@Z
?isInFinalState@QStateMachinePrivate@kso_qt@@QBE_NPAVQAbstractState@2@@Z
?isInfoEnabled@QLoggingCategory@kso_qt@@QBE_NXZ
?isInteger@QCborStreamReader@kso_qt@@QBE_NXZ
?isInteger@QCborValue@kso_qt@@QBE_NXZ
?isInteger@QCborValueRef@kso_qt@@QBE_NXZ
?isInternalEventQueueEmpty@QStateMachinePrivate@kso_qt@@QAE_NXZ
?isInterruptionRequested@QThread@kso_qt@@QBE_NXZ
?isInvalid@QCborStreamReader@kso_qt@@QBE_NXZ
?isInvalid@QCborValue@kso_qt@@QBE_NXZ
?isInvalid@QCborValueRef@kso_qt@@QBE_NXZ
?isLatin1@QtPrivate@kso_qt@@YA_NVQStringView@2@@Z
?isLeapYear@QDate@kso_qt@@SA_NH@Z
?isLegacyLink@QFileSystemMetaData@kso_qt@@QBE_NXZ
?isLengthKnown@QCborStreamReader@kso_qt@@QBE_NXZ
?isLetter@QChar@kso_qt@@QBE_NXZ
?isLetter@QChar@kso_qt@@SA_NI@Z
?isLetter@QCharRef@kso_qt@@QBE_NXZ
?isLetter@QXmlUtils@kso_qt@@SA_NVQChar@2@@Z
?isLetterOrNumber@QChar@kso_qt@@QBE_NXZ
?isLetterOrNumber@QChar@kso_qt@@SA_NI@Z
?isLetterOrNumber@QCharRef@kso_qt@@QAE_NXZ
?isLetterOrNumber_helper@QChar@kso_qt@@CI_NI@Z
?isLetter_helper@QChar@kso_qt@@CI_NI@Z
?isLibrary@QLibrary@kso_qt@@SA_NABVQString@2@@Z
?isLink@QFileSystemMetaData@kso_qt@@QBE_NXZ
?isLnkFile@QFileSystemMetaData@kso_qt@@QBE_NXZ
?isLoaded@QLibrary@kso_qt@@QBE_NXZ
?isLoaded@QPluginLoader@kso_qt@@QBE_NXZ
?isLocalFile@QUrl@kso_qt@@QBE_NXZ
?isLocked@QLockFile@kso_qt@@QBE_NXZ
?isLowSurrogate@QChar@kso_qt@@QBE_NXZ
?isLowSurrogate@QChar@kso_qt@@SA_NI@Z
?isLower@QByteArray@kso_qt@@QBE_NXZ
?isLower@QChar@kso_qt@@QBE_NXZ
?isLower@QChar@kso_qt@@SA_NI@Z
?isLower@QCharRef@kso_qt@@QBE_NXZ
?isLower@QString@kso_qt@@QBE_NXZ
?isMap@QCborStreamReader@kso_qt@@QBE_NXZ
?isMap@QCborValue@kso_qt@@QBE_NXZ
?isMap@QCborValueRef@kso_qt@@QBE_NXZ
?isMark@QChar@kso_qt@@QBE_NXZ
?isMark@QChar@kso_qt@@SI_NI@Z
?isMark@QCharRef@kso_qt@@QBE_NXZ
?isMinimal@QRegExp@kso_qt@@QBE_NXZ
?isMonotonic@QElapsedTimer@kso_qt@@SA_NXZ
?isMutable@QArrayData@kso_qt@@QBE_NXZ
?isNCName@QXmlUtils@kso_qt@@SA_NVQStringView@2@@Z
?isNameChar@QXmlUtils@kso_qt@@SA_NVQChar@2@@Z
?isNativePath@QFileInfo@kso_qt@@QBE_NXZ
?isNegativeInteger@QCborStreamReader@kso_qt@@QBE_NXZ
?isNonCharacter@QChar@kso_qt@@QBE_NXZ
?isNonCharacter@QChar@kso_qt@@SA_NI@Z
?isNull@QBitArray@kso_qt@@QBE_NXZ
?isNull@QByteArray@kso_qt@@QBE_NXZ
?isNull@QCborStreamReader@kso_qt@@QBE_NXZ
?isNull@QCborValue@kso_qt@@QBE_NXZ
?isNull@QCborValueRef@kso_qt@@QBE_NXZ
?isNull@QChar@kso_qt@@QBE_NXZ
?isNull@QCharRef@kso_qt@@QBE_NXZ
?isNull@QDate@kso_qt@@QBE_NXZ
?isNull@QDateTime@kso_qt@@QBE_NXZ
?isNull@QJsonDocument@kso_qt@@QBE_NXZ
?isNull@QJsonValue@kso_qt@@QBE_NXZ
?isNull@QJsonValueRef@kso_qt@@QBE_NXZ
?isNull@QLine@kso_qt@@QBE_NXZ
?isNull@QLineF@kso_qt@@QBE_NXZ
?isNull@QPoint@kso_qt@@QBE_NXZ
?isNull@QPointF@kso_qt@@QBE_NXZ
?isNull@QRect@kso_qt@@QBE_NXZ
?isNull@QRectF@kso_qt@@QBE_NXZ
?isNull@QSize@kso_qt@@QBE_NXZ
?isNull@QSizeF@kso_qt@@QBE_NXZ
?isNull@QString@kso_qt@@QBE_NXZ
?isNull@QStringRef@kso_qt@@QBE_NXZ
?isNull@QTime@kso_qt@@QBE_NXZ
?isNull@QUuid@kso_qt@@QBE_NXZ
?isNull@QVariant@kso_qt@@QBE_NXZ
?isNumber@QChar@kso_qt@@QBE_NXZ
?isNumber@QChar@kso_qt@@SA_NI@Z
?isNumber@QCharRef@kso_qt@@QBE_NXZ
?isNumber_helper@QChar@kso_qt@@CI_NI@Z
?isObject@QJsonDocument@kso_qt@@QBE_NXZ
?isObject@QJsonValue@kso_qt@@QBE_NXZ
?isObject@QJsonValueRef@kso_qt@@QBE_NXZ
?isOpen@QIODevice@kso_qt@@QBE_NXZ
?isParallel@QStateMachinePrivate@kso_qt@@SA_NPBVQAbstractState@2@@Z
?isParentOf@QUrl@kso_qt@@QBE_NABV12@@Z
?isPaused@QFutureInterfaceBase@kso_qt@@QBE_NXZ
?isPaused@QFutureWatcherBase@kso_qt@@QBE_NXZ
?isPipeClosed@QWindowsPipeReader@kso_qt@@QBE_NXZ
?isPrefixOf@QVersionNumber@kso_qt@@QBE_NABV12@@Z
?isPrint@QChar@kso_qt@@QBE_NXZ
?isPrint@QChar@kso_qt@@SI_NI@Z
?isPrint@QCharRef@kso_qt@@QBE_NXZ
?isProcessingInstruction@QXmlStreamReader@kso_qt@@QBE_NXZ
?isProgressUpdateNeeded@QFutureInterfaceBase@kso_qt@@QBE_NXZ
?isPublicID@QXmlUtils@kso_qt@@SA_NVQStringView@2@@Z
?isPunct@QChar@kso_qt@@QBE_NXZ
?isPunct@QChar@kso_qt@@SI_NI@Z
?isPunct@QCharRef@kso_qt@@QBE_NXZ
?isQuitLockEnabled@QCoreApplication@kso_qt@@SA_NXZ
?isReadOnly@QStorageInfo@kso_qt@@QBE_NXZ
?isReadOperationActive@QWindowsPipeReader@kso_qt@@QBE_NXZ
?isReadable@QDir@kso_qt@@QBE_NXZ
?isReadable@QFileInfo@kso_qt@@QBE_NXZ
?isReadable@QIODevice@kso_qt@@QBE_NXZ
?isReadable@QMetaProperty@kso_qt@@QBE_NXZ
?isReadable@QMetaPropertyBuilder@kso_qt@@QBE_NXZ
?isReady@QStorageInfo@kso_qt@@QBE_NXZ
?isRecursive@QBasicMutex@kso_qt@@QAE_NXZ
?isRecursive@QBasicMutex@kso_qt@@QBE_NXZ
?isRecursive@QMutex@kso_qt@@QBE_NXZ
?isRecursiveFilteringEnabled@QSortFilterProxyModel@kso_qt@@QBE_NXZ
?isRegistered@QMetaType@kso_qt@@QBE_NXZ
?isRegistered@QMetaType@kso_qt@@SA_NH@Z
?isRegularExpression@QCborValue@kso_qt@@QBE_NXZ
?isRegularExpression@QCborValueRef@kso_qt@@QBE_NXZ
?isRelative@QDir@kso_qt@@QBE_NXZ
?isRelative@QFileInfo@kso_qt@@QBE_NXZ
?isRelative@QUrl@kso_qt@@QBE_NXZ
?isRelativePath@QAbstractFileEngine@kso_qt@@UBE_NXZ
?isRelativePath@QDir@kso_qt@@SA_NABVQString@2@@Z
?isRelativePath@QFSFileEngine@kso_qt@@UBE_NXZ
?isResettable@QMetaProperty@kso_qt@@QBE_NXZ
?isResettable@QMetaPropertyBuilder@kso_qt@@QBE_NXZ
?isResultReadyAt@QFutureInterfaceBase@kso_qt@@QBE_NH@Z
?isRightToLeft@QString@kso_qt@@QBE_NXZ
?isRightToLeft@QStringRef@kso_qt@@QBE_NXZ
?isRightToLeft@QtPrivate@kso_qt@@YA_NVQStringView@2@@Z
?isRoot@QDir@kso_qt@@QBE_NXZ
?isRoot@QFileInfo@kso_qt@@QBE_NXZ
?isRoot@QStorageInfo@kso_qt@@QBE_NXZ
?isRootPath@QFileSystemEntry@kso_qt@@SA_NABVQString@2@@Z
?isRowSelected@QItemSelectionModel@kso_qt@@QBE_NHABVQModelIndex@2@@Z
?isRunning@QAnimationDriver@kso_qt@@QBE_NXZ
?isRunning@QEventLoop@kso_qt@@QBE_NXZ
?isRunning@QFutureInterfaceBase@kso_qt@@QBE_NXZ
?isRunning@QFutureWatcherBase@kso_qt@@QBE_NXZ
?isRunning@QStateMachine@kso_qt@@QBE_NXZ
?isRunning@QThread@kso_qt@@QBE_NXZ
?isScoped@QMetaEnum@kso_qt@@QBE_NXZ
?isScoped@QMetaEnumBuilder@kso_qt@@QBE_NXZ
?isScriptable@QMetaProperty@kso_qt@@QBE_NPBVQObject@2@@Z
?isScriptable@QMetaPropertyBuilder@kso_qt@@QBE_NXZ
?isSelected@QItemSelectionModel@kso_qt@@QBE_NABVQModelIndex@2@@Z
?isSender@QObjectPrivate@kso_qt@@QBE_NPBVQObject@2@PBD@Z
?isSequential@QAbstractFileEngine@kso_qt@@UBE_NXZ
?isSequential@QFSFileEngine@kso_qt@@UBE_NXZ
?isSequential@QFileDevice@kso_qt@@UBE_NXZ
?isSequential@QFileSystemMetaData@kso_qt@@QBE_NXZ
?isSequential@QIODevice@kso_qt@@UBE_NXZ
?isSequential@QIODevicePrivate@kso_qt@@QBE_NXZ
?isSequential@QProcess@kso_qt@@UBE_NXZ
?isSet@QCommandLineParser@kso_qt@@QBE_NABVQCommandLineOption@2@@Z
?isSet@QCommandLineParser@kso_qt@@QBE_NABVQString@2@@Z
?isSetuidAllowed@QCoreApplication@kso_qt@@SA_NXZ
?isSharedWith@?$QList@VQItemSelectionRange@kso_qt@@@kso_qt@@QBE_NABV12@@Z
?isSharedWith@?$QVector@VQPoint@kso_qt@@@kso_qt@@QBE_NABV12@@Z
?isSharedWith@?$QVector@VQPointF@kso_qt@@@kso_qt@@QBE_NABV12@@Z
?isSharedWith@?$QVector@VQXmlStreamAttribute@kso_qt@@@kso_qt@@QBE_NABV12@@Z
?isSharedWith@QByteArray@kso_qt@@QBE_NABV12@@Z
?isSharedWith@QString@kso_qt@@QBE_NABV12@@Z
?isSignalConnected@QAbstractDeclarativeData@kso_qt@@2P6A_NPAV12@PBVQObject@2@H@ZA
?isSignalConnected@QObject@kso_qt@@IBE_NABVQMetaMethod@2@@Z
?isSignalConnected@QObjectPrivate@kso_qt@@QBE_NI_N@Z
?isSimpleText@QString@kso_qt@@QBE_NXZ
?isSimpleType@QCborStreamReader@kso_qt@@QBE_NW4QCborSimpleType@2@@Z
?isSimpleType@QCborStreamReader@kso_qt@@QBE_NXZ
?isSimpleType@QCborValue@kso_qt@@QBE_NW4QCborSimpleType@2@@Z
?isSimpleType@QCborValue@kso_qt@@QBE_NXZ
?isSimpleType@QCborValueRef@kso_qt@@QBE_NW4QCborSimpleType@2@@Z
?isSimpleType@QCborValueRef@kso_qt@@QBE_NXZ
?isSingleShot@QTimer@kso_qt@@QBE_NXZ
?isSortLocaleAware@QSortFilterProxyModel@kso_qt@@QBE_NXZ
?isSpace@QChar@kso_qt@@QBE_NXZ
?isSpace@QChar@kso_qt@@SA_NI@Z
?isSpace@QCharRef@kso_qt@@QBE_NXZ
?isSpace_helper@QChar@kso_qt@@CI_NI@Z
?isStandaloneDocument@QXmlStreamReader@kso_qt@@QBE_NXZ
?isStartDocument@QXmlStreamReader@kso_qt@@QBE_NXZ
?isStartElement@QXmlStreamReader@kso_qt@@QBE_NXZ
?isStarted@QFutureInterfaceBase@kso_qt@@QBE_NXZ
?isStarted@QFutureWatcherBase@kso_qt@@QBE_NXZ
?isStored@QMetaProperty@kso_qt@@QBE_NPBVQObject@2@@Z
?isStored@QMetaPropertyBuilder@kso_qt@@QBE_NXZ
?isString@QCborStreamReader@kso_qt@@QBE_NXZ
?isString@QCborValue@kso_qt@@QBE_NXZ
?isString@QCborValueRef@kso_qt@@QBE_NXZ
?isString@QJsonValue@kso_qt@@QBE_NXZ
?isString@QJsonValueRef@kso_qt@@QBE_NXZ
?isSurrogate@QChar@kso_qt@@QBE_NXZ
?isSurrogate@QChar@kso_qt@@SA_NI@Z
?isSymLink@QFileInfo@kso_qt@@QBE_NXZ
?isSymbol@QChar@kso_qt@@QBE_NXZ
?isSymbol@QChar@kso_qt@@SI_NI@Z
?isTag@QCborStreamReader@kso_qt@@QBE_NXZ
?isTag@QCborValue@kso_qt@@QBE_NXZ
?isTag@QCborValueRef@kso_qt@@QBE_NXZ
?isTag_helper@QCborValue@kso_qt@@CA_NW4Type@12@@Z
?isTestModeEnabled@QStandardPaths@kso_qt@@SA_NXZ
?isTextModeEnabled@QIODevice@kso_qt@@QBE_NXZ
?isThrottled@QFutureInterfaceBase@kso_qt@@QBE_NXZ
?isTimeZoneIdAvailable@QTimeZone@kso_qt@@SA_NABVQByteArray@2@@Z
?isTimeZoneIdAvailable@QTimeZonePrivate@kso_qt@@UBE_NABVQByteArray@2@@Z
?isTimeZoneIdAvailable@QUtcTimeZonePrivate@kso_qt@@UBE_NABVQByteArray@2@@Z
?isTitleCase@QChar@kso_qt@@QBE_NXZ
?isTitleCase@QChar@kso_qt@@SA_NI@Z
?isTitleCase@QCharRef@kso_qt@@QBE_NXZ
?isTransactionStarted@QIODevice@kso_qt@@QBE_NXZ
?isTranslatorInstalled@QCoreApplicationPrivate@kso_qt@@SA_NPAVQTranslator@2@@Z
?isTrue@QCborStreamReader@kso_qt@@QBE_NXZ
?isTrue@QCborValue@kso_qt@@QBE_NXZ
?isTrue@QCborValueRef@kso_qt@@QBE_NXZ
?isUndefined@QCborStreamReader@kso_qt@@QBE_NXZ
?isUndefined@QCborValue@kso_qt@@QBE_NXZ
?isUndefined@QCborValueRef@kso_qt@@QBE_NXZ
?isUndefined@QJsonValue@kso_qt@@QBE_NXZ
?isUndefined@QJsonValueRef@kso_qt@@QBE_NXZ
?isUnnamedFile@QFSFileEngine@kso_qt@@UBE_NXZ
?isUnsignedInteger@QCborStreamReader@kso_qt@@QBE_NXZ
?isUpper@QByteArray@kso_qt@@QBE_NXZ
?isUpper@QChar@kso_qt@@QBE_NXZ
?isUpper@QChar@kso_qt@@SA_NI@Z
?isUpper@QCharRef@kso_qt@@QBE_NXZ
?isUpper@QString@kso_qt@@QBE_NXZ
?isUrl@QCborValue@kso_qt@@QBE_NXZ
?isUrl@QCborValueRef@kso_qt@@QBE_NXZ
?isUser@QMetaProperty@kso_qt@@QBE_NPBVQObject@2@@Z
?isUser@QMetaPropertyBuilder@kso_qt@@QBE_NXZ
?isUuid@QCborValue@kso_qt@@QBE_NXZ
?isUuid@QCborValueRef@kso_qt@@QBE_NXZ
?isValid@QCborStreamReader@kso_qt@@QBE_NXZ
?isValid@QDate@kso_qt@@QBE_NXZ
?isValid@QDate@kso_qt@@SA_NHHH@Z
?isValid@QDateTime@kso_qt@@QBE_NXZ
?isValid@QElapsedTimer@kso_qt@@QBE_NXZ
?isValid@QItemSelectionRange@kso_qt@@QBE_NXZ
?isValid@QMetaEnum@kso_qt@@QBE_NXZ
?isValid@QMetaMethod@kso_qt@@QBE_NXZ
?isValid@QMetaProperty@kso_qt@@QBE_NXZ
?isValid@QMetaType@kso_qt@@QBE_NXZ
?isValid@QMimeType@kso_qt@@QBE_NXZ
?isValid@QModelIndex@kso_qt@@QBE_NXZ
?isValid@QPersistentModelIndex@kso_qt@@QBE_NXZ
?isValid@QRect@kso_qt@@QBE_NXZ
?isValid@QRectF@kso_qt@@QBE_NXZ
?isValid@QRegExp@kso_qt@@QBE_NXZ
?isValid@QRegularExpression@kso_qt@@QBE_NXZ
?isValid@QRegularExpressionMatch@kso_qt@@QBE_NXZ
?isValid@QRegularExpressionMatchIterator@kso_qt@@QBE_NXZ
?isValid@QResource@kso_qt@@QBE_NXZ
?isValid@QSize@kso_qt@@QBE_NXZ
?isValid@QSizeF@kso_qt@@QBE_NXZ
?isValid@QStorageInfo@kso_qt@@QBE_NXZ
?isValid@QTemporaryDir@kso_qt@@QBE_NXZ
?isValid@QTextBoundaryFinder@kso_qt@@QBE_NXZ
?isValid@QTime@kso_qt@@QBE_NXZ
?isValid@QTime@kso_qt@@SA_NHHHH@Z
?isValid@QTimeZone@kso_qt@@QBE_NXZ
?isValid@QTimeZonePrivate@kso_qt@@QBE_NXZ
?isValid@QUrl@kso_qt@@QBE_NXZ
?isValid@QVariant@kso_qt@@QBE_NXZ
?isValidId@QTimeZonePrivate@kso_qt@@SA_NABVQByteArray@2@@Z
?isValidIterator@?$QList@VQItemSelectionRange@kso_qt@@@kso_qt@@ABE_NABViterator@12@@Z
?isValidIterator@?$QVector@VQPoint@kso_qt@@@kso_qt@@ABE_NABQAVQPoint@2@@Z
?isValidIterator@?$QVector@VQPoint@kso_qt@@@kso_qt@@ABE_NABViterator@?$QTypedArrayData@VQPoint@kso_qt@@@2@@Z
?isValidIterator@?$QVector@VQPointF@kso_qt@@@kso_qt@@ABE_NABQAVQPointF@2@@Z
?isValidIterator@?$QVector@VQPointF@kso_qt@@@kso_qt@@ABE_NABViterator@?$QTypedArrayData@VQPointF@kso_qt@@@2@@Z
?isValidIterator@?$QVector@VQXmlStreamAttribute@kso_qt@@@kso_qt@@ABE_NABQAVQXmlStreamAttribute@2@@Z
?isVariantLessThan@QAbstractItemModelPrivate@kso_qt@@SA_NABVQVariant@2@0W4CaseSensitivity@Qt@2@_N@Z
?isVector@ResultIteratorBase@QtPrivate@kso_qt@@QBE_NXZ
?isWarningEnabled@QLoggingCategory@kso_qt@@QBE_NXZ
?isWhitespace@QXmlStreamReader@kso_qt@@QBE_NXZ
?isWidgetType@QObject@kso_qt@@QBE_NXZ
?isWindowType@QObject@kso_qt@@QBE_NXZ
?isWritable@QConfFile@kso_qt@@QBE_NXZ
?isWritable@QFileInfo@kso_qt@@QBE_NXZ
?isWritable@QIODevice@kso_qt@@QBE_NXZ
?isWritable@QMetaProperty@kso_qt@@QBE_NXZ
?isWritable@QMetaPropertyBuilder@kso_qt@@QBE_NXZ
?isWritable@QSettings@kso_qt@@QBE_NXZ
?isWriteOperationActive@QWindowsPipeWriter@kso_qt@@QBE_NXZ
?is_app_closing@QCoreApplicationPrivate@kso_qt@@2_NA
?is_app_running@QCoreApplicationPrivate@kso_qt@@2_NA
?isoOffsetFormat@QTimeZonePrivate@kso_qt@@SA?AVQString@2@H@Z
?itemData@QAbstractItemModel@kso_qt@@UBE?AV?$QMap@HVQVariant@kso_qt@@@2@ABVQModelIndex@2@@Z
?itemData@QAbstractProxyModel@kso_qt@@UBE?AV?$QMap@HVQVariant@kso_qt@@@2@ABVQModelIndex@2@@Z
?itemsAboutToBeMoved@QAbstractItemModelPrivate@kso_qt@@QAEXABVQModelIndex@2@HH0HW4Orientation@Qt@2@@Z
?itemsMoved@QAbstractItemModelPrivate@kso_qt@@QAEXABVQModelIndex@2@HH0HW4Orientation@Qt@2@@Z
?joining@QChar@kso_qt@@QBE?AW4Joining@12@XZ
?joining@QChar@kso_qt@@SI?AW4Joining@12@I@Z
?joining@QCharRef@kso_qt@@QBE?AW4Joining@QChar@2@XZ
?joiningType@QChar@kso_qt@@QBE?AW4JoiningType@12@XZ
?joiningType@QChar@kso_qt@@SI?AW4JoiningType@12@I@Z
?joiningType@QCharRef@kso_qt@@QBE?AW4JoiningType@QChar@2@XZ
?kernelType@QSysInfo@kso_qt@@SA?AVQString@2@XZ
?kernelVersion@QSysInfo@kso_qt@@SA?AVQString@2@XZ
?key@QMetaEnum@kso_qt@@QBEPBDH@Z
?key@QMetaEnumBuilder@kso_qt@@QBE?AVQByteArray@2@H@Z
?key@QSharedMemory@kso_qt@@QBE?AVQString@2@XZ
?key@QSystemSemaphore@kso_qt@@QBE?AVQString@2@XZ
?key@const_iterator@QAssociativeIterable@kso_qt@@QBE?BVQVariant@3@XZ
?keyAt@QJsonObject@kso_qt@@ABE?AVQString@2@H@Z
?keyCount@QMetaEnum@kso_qt@@QBEHXZ
?keyCount@QMetaEnumBuilder@kso_qt@@QBEHXZ
?keyInputSourceID@QLocale@kso_qt@@QBE?AVQString@2@XZ
?keyInputSourceID@QLocalePrivate@kso_qt@@QBE?AVQString@2@XZ
?keyMap@QFactoryLoader@kso_qt@@QBE?AV?$QMultiMap@HVQString@kso_qt@@@2@XZ
?keyToValue@QMetaEnum@kso_qt@@QBEHPBDPA_N@Z
?keyValueAt@QVariantAnimation@kso_qt@@QBE?AVQVariant@2@N@Z
?keyValues@QVariantAnimation@kso_qt@@QBE?AV?$QVector@U?$QPair@NVQVariant@kso_qt@@@kso_qt@@@2@XZ
?keys@QCborMap@kso_qt@@QBE?AV?$QVector@VQCborValue@kso_qt@@@2@XZ
?keys@QJsonObject@kso_qt@@QBE?AVQStringList@2@XZ
?keys@QProcessEnvironment@kso_qt@@QBE?AVQStringList@2@XZ
?keysToValue@QMetaEnum@kso_qt@@QBEHPBDPA_N@Z
?kill@QProcess@kso_qt@@QAEXXZ
?killTimer@QObject@kso_qt@@QAEXH@Z
?killTimer@QTimer@kso_qt@@AAEXH@Z
?language@QLocale@kso_qt@@QBE?AW4Language@12@XZ
?languageCode@QLocalePrivate@kso_qt@@QBE?AVQLatin1String@2@XZ
?languageId@QLocalePrivate@kso_qt@@QBEGXZ
?languageToCode@QLocalePrivate@kso_qt@@SA?AVQLatin1String@2@W4Language@QLocale@2@@Z
?languageToString@QLocale@kso_qt@@SA?AVQString@2@W4Language@12@@Z
?last@?$QList@VQItemSelectionRange@kso_qt@@@kso_qt@@QAEAAVQItemSelectionRange@2@XZ
?last@?$QList@VQItemSelectionRange@kso_qt@@@kso_qt@@QBEABVQItemSelectionRange@2@XZ
?last@?$QVector@VQPoint@kso_qt@@@kso_qt@@QAEAAVQPoint@2@XZ
?last@?$QVector@VQPoint@kso_qt@@@kso_qt@@QBEABVQPoint@2@XZ
?last@?$QVector@VQPointF@kso_qt@@@kso_qt@@QAEAAVQPointF@2@XZ
?last@?$QVector@VQPointF@kso_qt@@@kso_qt@@QBEABVQPointF@2@XZ
?last@?$QVector@VQXmlStreamAttribute@kso_qt@@@kso_qt@@QAEAAVQXmlStreamAttribute@2@XZ
?last@?$QVector@VQXmlStreamAttribute@kso_qt@@@kso_qt@@QBEABVQXmlStreamAttribute@2@XZ
?last@QCborArray@kso_qt@@QAE?AVQCborValueRef@2@XZ
?last@QCborArray@kso_qt@@QBE?AVQCborValue@2@XZ
?last@QJsonArray@kso_qt@@QBE?AVQJsonValue@2@XZ
?lastCapturedIndex@QRegularExpressionMatch@kso_qt@@QBEHXZ
?lastError@QCborStreamReader@kso_qt@@QAE?AUQCborError@2@XZ
?lastIndexIn@QRegExp@kso_qt@@QBEHABVQString@2@HW4CaretMode@12@@Z
?lastIndexOf@?$QList@VQItemSelectionRange@kso_qt@@@kso_qt@@QBEHABVQItemSelectionRange@2@H@Z
?lastIndexOf@?$QVector@VQPoint@kso_qt@@@kso_qt@@QBEHABVQPoint@2@H@Z
?lastIndexOf@?$QVector@VQPointF@kso_qt@@@kso_qt@@QBEHABVQPointF@2@H@Z
?lastIndexOf@?$QVector@VQXmlStreamAttribute@kso_qt@@@kso_qt@@QBEHABVQXmlStreamAttribute@2@H@Z
?lastIndexOf@QByteArray@kso_qt@@QBEHABV12@H@Z
?lastIndexOf@QByteArray@kso_qt@@QBEHABVQString@2@H@Z
?lastIndexOf@QByteArray@kso_qt@@QBEHDH@Z
?lastIndexOf@QByteArray@kso_qt@@QBEHPBDH@Z
?lastIndexOf@QString@kso_qt@@QBEHAAVQRegExp@2@H@Z
?lastIndexOf@QString@kso_qt@@QBEHABV12@HW4CaseSensitivity@Qt@2@@Z
?lastIndexOf@QString@kso_qt@@QBEHABVQRegExp@2@H@Z
?lastIndexOf@QString@kso_qt@@QBEHABVQRegularExpression@2@H@Z
?lastIndexOf@QString@kso_qt@@QBEHABVQRegularExpression@2@HPAVQRegularExpressionMatch@2@@Z
?lastIndexOf@QString@kso_qt@@QBEHABVQStringRef@2@HW4CaseSensitivity@Qt@2@@Z
?lastIndexOf@QString@kso_qt@@QBEHVQChar@2@HW4CaseSensitivity@Qt@2@@Z
?lastIndexOf@QString@kso_qt@@QBEHVQLatin1String@2@HW4CaseSensitivity@Qt@2@@Z
?lastIndexOf@QStringRef@kso_qt@@QBEHABV12@HW4CaseSensitivity@Qt@2@@Z
?lastIndexOf@QStringRef@kso_qt@@QBEHABVQString@2@HW4CaseSensitivity@Qt@2@@Z
?lastIndexOf@QStringRef@kso_qt@@QBEHVQChar@2@HW4CaseSensitivity@Qt@2@@Z
?lastIndexOf@QStringRef@kso_qt@@QBEHVQLatin1String@2@HW4CaseSensitivity@Qt@2@@Z
?lastModified@QFileInfo@kso_qt@@QBE?AVQDateTime@2@XZ
?lastModified@QResource@kso_qt@@QBE?AVQDateTime@2@XZ
?lastRead@QFileInfo@kso_qt@@QBE?AVQDateTime@2@XZ
?layoutAboutToBeChanged@QAbstractItemModel@kso_qt@@QAEXABV?$QList@VQPersistentModelIndex@kso_qt@@@2@W4LayoutChangeHint@12@@Z
?layoutChanged@QAbstractItemModel@kso_qt@@QAEXABV?$QList@VQPersistentModelIndex@kso_qt@@@2@W4LayoutChangeHint@12@@Z
?leaveContainer@QCborStreamReader@kso_qt@@QAE_NXZ
?left@QByteArray@kso_qt@@QBE?AV12@H@Z
?left@QItemSelectionRange@kso_qt@@QBEHXZ
?left@QRect@kso_qt@@QBEHXZ
?left@QRectF@kso_qt@@QBENXZ
?left@QString@kso_qt@@QBE?AV12@H@Z
?left@QStringRef@kso_qt@@QBE?AV12@H@Z
?left@kso_qt@@YAAAVQTextStream@1@AAV21@@Z
?leftJustified@QByteArray@kso_qt@@QBE?AV12@HD_N@Z
?leftJustified@QString@kso_qt@@QBE?AV12@HVQChar@2@_N@Z
?leftRef@QString@kso_qt@@QBE?AVQStringRef@2@H@Z
?length@?$QList@VQItemSelectionRange@kso_qt@@@kso_qt@@QBEHXZ
?length@?$QVector@VQPoint@kso_qt@@@kso_qt@@QBEHXZ
?length@?$QVector@VQPointF@kso_qt@@@kso_qt@@QBEHXZ
?length@?$QVector@VQXmlStreamAttribute@kso_qt@@@kso_qt@@QBEHXZ
?length@QByteArray@kso_qt@@QBEHXZ
?length@QCborStreamReader@kso_qt@@QBE_KXZ
?length@QJsonObject@kso_qt@@QBEHXZ
?length@QLineF@kso_qt@@QBENXZ
?length@QString@kso_qt@@QBEHXZ
?length@QStringRef@kso_qt@@QBEHXZ
?lessThan@QSortFilterProxyModel@kso_qt@@MBE_NABVQModelIndex@2@0@Z
?libraryPaths@QCoreApplication@kso_qt@@SA?AVQStringList@2@XZ
?licensedProducts@QLibraryInfo@kso_qt@@SA?AVQString@2@XZ
?licensee@QLibraryInfo@kso_qt@@SA?AVQString@2@XZ
?lineBreakClass@QUnicodeTables@kso_qt@@YI?AW4LineBreakClass@12@I@Z
?lineNumber@QXmlStreamReader@kso_qt@@QBE_JXZ
?link@QAbstractFileEngine@kso_qt@@UAE_NABVQString@2@@Z
?link@QFSFileEngine@kso_qt@@UAE_NABVQString@2@@Z
?link@QFile@kso_qt@@QAE_NABVQString@2@@Z
?link@QFile@kso_qt@@SA_NABVQString@2@0@Z
?list@QLocalePrivate@kso_qt@@QBE?AVQChar@2@XZ
?listSeparator@QDir@kso_qt@@SA?AVQChar@2@XZ
?load@QLibrary@kso_qt@@QAE_NXZ
?load@QMetaType@kso_qt@@SA_NAAVQDataStream@2@HPAX@Z
?load@QPluginLoader@kso_qt@@QAE_NXZ
?load@QSystemLibrary@kso_qt@@SAPAUHINSTANCE__@@PB_W_N@Z
?load@QTranslator@kso_qt@@QAE_NABVQLocale@2@ABVQString@2@111@Z
?load@QTranslator@kso_qt@@QAE_NABVQString@2@000@Z
?load@QTranslator@kso_qt@@QAE_NPBEHABVQString@2@@Z
?load@QVariant@kso_qt@@QAEXAAVQDataStream@2@@Z
?loadHints@QLibrary@kso_qt@@QBE?AV?$QFlags@W4LoadHint@QLibrary@kso_qt@@@2@XZ
?loadHints@QPluginLoader@kso_qt@@QBE?AV?$QFlags@W4LoadHint@QLibrary@kso_qt@@@2@XZ
?localRestart@QUnifiedTimer@kso_qt@@AAEXXZ
?locale@QCollator@kso_qt@@QBE?AVQLocale@2@XZ
?locale@QDateTimeParser@kso_qt@@MBE?AVQLocale@2@XZ
?locale@QResource@kso_qt@@QBE?AVQLocale@2@XZ
?locale@QTextStream@kso_qt@@QBE?AVQLocale@2@XZ
?localeAwareCompare@QString@kso_qt@@QBEHABV12@@Z
?localeAwareCompare@QString@kso_qt@@QBEHABVQStringRef@2@@Z
?localeAwareCompare@QString@kso_qt@@SAHABV12@0@Z
?localeAwareCompare@QString@kso_qt@@SAHABV12@ABVQStringRef@2@@Z
?localeAwareCompare@QStringRef@kso_qt@@QBEHABV12@@Z
?localeAwareCompare@QStringRef@kso_qt@@QBEHABVQString@2@@Z
?localeAwareCompare@QStringRef@kso_qt@@SAHABV12@0@Z
?localeAwareCompare@QStringRef@kso_qt@@SAHABV12@ABVQString@2@@Z
?localeAwareCompare_helper@QString@kso_qt@@CAHPBVQChar@2@H0H@Z
?locate@QStandardPaths@kso_qt@@SA?AVQString@2@W4StandardLocation@12@ABV32@V?$QFlags@W4LocateOption@QStandardPaths@kso_qt@@@2@@Z
?locateAll@QStandardPaths@kso_qt@@SA?AVQStringList@2@W4StandardLocation@12@ABVQString@2@V?$QFlags@W4LocateOption@QStandardPaths@kso_qt@@@2@@Z
?location@QLibraryInfo@kso_qt@@SA?AVQString@2@W4LibraryLocation@12@@Z
?lock@QBasicMutex@kso_qt@@QAEXXZ
?lock@QLockFile@kso_qt@@QAE_NXZ
?lock@QMutex@kso_qt@@QAEXXZ
?lock@QSharedMemory@kso_qt@@QAE_NXZ
?lockForRead@QReadWriteLock@kso_qt@@QAEXXZ
?lockForWrite@QReadWriteLock@kso_qt@@QAEXXZ
?lockInternal@QBasicMutex@kso_qt@@AAEXXZ
?lockInternal@QBasicMutex@kso_qt@@AAE_NH@Z
?longDayName@QDate@kso_qt@@SA?AVQString@2@HW4MonthNameType@12@@Z
?longFileName@QFSFileEnginePrivate@kso_qt@@SA?AVQString@2@ABV32@@Z
?longMonthName@QDate@kso_qt@@SA?AVQString@2@HW4MonthNameType@12@@Z
?loopCount@QAbstractAnimation@kso_qt@@QBEHXZ
?loopCount@QTimeLine@kso_qt@@QBEHXZ
?loopLevel@QDeferredDeleteEvent@kso_qt@@QBEHXZ
?loopLevel@QThread@kso_qt@@QBEHXZ
?lowSurrogate@QChar@kso_qt@@SAGI@Z
?lowercasebase@kso_qt@@YAAAVQTextStream@1@AAV21@@Z
?lowercasedigits@kso_qt@@YAAAVQTextStream@1@AAV21@@Z
?macVersion@QSysInfo@kso_qt@@SA?AW4MacVersion@12@XZ
?machine@QAbstractState@kso_qt@@QBEPAVQStateMachine@2@XZ
?machine@QAbstractTransition@kso_qt@@QBEPAVQStateMachine@2@XZ
?machine@QAbstractTransitionPrivate@kso_qt@@QBEPAVQStateMachine@2@XZ
?machineHostName@QSysInfo@kso_qt@@SA?AVQString@2@XZ
?machineUniqueId@QSysInfo@kso_qt@@SA?AVQByteArray@2@XZ
?mainThread@QCoreApplicationPrivate@kso_qt@@SAPAVQThread@2@XZ
?majorVersion@QOperatingSystemVersion@kso_qt@@QBEHXZ
?makeAbsolute@QDir@kso_qt@@QAE_NXZ
?makeAbsolute@QFileInfo@kso_qt@@QAE_NXZ
?makeDecoder@QTextCodec@kso_qt@@QBEPAVQTextDecoder@2@V?$QFlags@W4ConversionFlag@QTextCodec@kso_qt@@@2@@Z
?makeEncoder@QTextCodec@kso_qt@@QBEPAVQTextEncoder@2@V?$QFlags@W4ConversionFlag@QTextCodec@kso_qt@@@2@@Z
?makePlatformSafeKey@QSharedMemoryPrivate@kso_qt@@SA?AVQString@2@ABV32@0@Z
?manhattanLength@QPoint@kso_qt@@QBEHXZ
?manhattanLength@QPointF@kso_qt@@QBENXZ
?mantissatable@qfloat16@kso_qt@@0QBIB
?map@QAbstractFileEngine@kso_qt@@QAEPAE_J0W4MemoryMapFlags@QFileDevice@2@@Z
?map@QFSFileEnginePrivate@kso_qt@@QAEPAE_J0W4MemoryMapFlags@QFileDevice@2@@Z
?map@QFileDevice@kso_qt@@QAEPAE_J0W4MemoryMapFlags@12@@Z
?map@QSignalMapper@kso_qt@@QAEXPAVQObject@2@@Z
?map@QSignalMapper@kso_qt@@QAEXXZ
?mapDropCoordinatesToSource@QAbstractProxyModelPrivate@kso_qt@@QBEXHHABVQModelIndex@2@PAH1PAV32@@Z
?mapFromSource@QIdentityProxyModel@kso_qt@@UBE?AVQModelIndex@2@ABV32@@Z
?mapFromSource@QSortFilterProxyModel@kso_qt@@UBE?AVQModelIndex@2@ABV32@@Z
?mapSelectionFromSource@QAbstractProxyModel@kso_qt@@UBE?AVQItemSelection@2@ABV32@@Z
?mapSelectionFromSource@QIdentityProxyModel@kso_qt@@UBE?AVQItemSelection@2@ABV32@@Z
?mapSelectionFromSource@QSortFilterProxyModel@kso_qt@@UBE?AVQItemSelection@2@ABV32@@Z
?mapSelectionToSource@QAbstractProxyModel@kso_qt@@UBE?AVQItemSelection@2@ABV32@@Z
?mapSelectionToSource@QIdentityProxyModel@kso_qt@@UBE?AVQItemSelection@2@ABV32@@Z
?mapSelectionToSource@QSortFilterProxyModel@kso_qt@@UBE?AVQItemSelection@2@ABV32@@Z
?mapToSource@QIdentityProxyModel@kso_qt@@UBE?AVQModelIndex@2@ABV32@@Z
?mapToSource@QSortFilterProxyModel@kso_qt@@UBE?AVQModelIndex@2@ABV32@@Z
?mapped@QSignalMapper@kso_qt@@QAEXABVQString@2@@Z
?mapped@QSignalMapper@kso_qt@@QAEXH@Z
?mapped@QSignalMapper@kso_qt@@QAEXPAVQObject@2@@Z
?mapped@QSignalMapper@kso_qt@@QAEXPAVQWidget@2@@Z
?mapping@QSignalMapper@kso_qt@@QBEPAVQObject@2@ABVQString@2@@Z
?mapping@QSignalMapper@kso_qt@@QBEPAVQObject@2@H@Z
?mapping@QSignalMapper@kso_qt@@QBEPAVQObject@2@PAV32@@Z
?mapping@QSignalMapper@kso_qt@@QBEPAVQObject@2@PAVQWidget@2@@Z
?marginsAdded@QRect@kso_qt@@QBE?AV12@ABVQMargins@2@@Z
?marginsAdded@QRectF@kso_qt@@QBE?AV12@ABVQMarginsF@2@@Z
?marginsRemoved@QRect@kso_qt@@QBE?AV12@ABVQMargins@2@@Z
?marginsRemoved@QRectF@kso_qt@@QBE?AV12@ABVQMarginsF@2@@Z
?match@QAbstractItemModel@kso_qt@@UBE?AV?$QList@VQModelIndex@kso_qt@@@2@ABVQModelIndex@2@HABVQVariant@2@HV?$QFlags@W4MatchFlag@Qt@kso_qt@@@2@@Z
?match@QDir@kso_qt@@SA_NABVQString@2@0@Z
?match@QDir@kso_qt@@SA_NABVQStringList@2@ABVQString@2@@Z
?match@QIdentityProxyModel@kso_qt@@UBE?AV?$QList@VQModelIndex@kso_qt@@@2@ABVQModelIndex@2@HABVQVariant@2@HV?$QFlags@W4MatchFlag@Qt@kso_qt@@@2@@Z
?match@QRegularExpression@kso_qt@@QBE?AVQRegularExpressionMatch@2@ABVQString@2@HW4MatchType@12@V?$QFlags@W4MatchOption@QRegularExpression@kso_qt@@@2@@Z
?match@QRegularExpression@kso_qt@@QBE?AVQRegularExpressionMatch@2@ABVQStringRef@2@HW4MatchType@12@V?$QFlags@W4MatchOption@QRegularExpression@kso_qt@@@2@@Z
?match@QSortFilterProxyModel@kso_qt@@UBE?AV?$QList@VQModelIndex@kso_qt@@@2@ABVQModelIndex@2@HABVQVariant@2@HV?$QFlags@W4MatchFlag@Qt@kso_qt@@@2@@Z
?matchOptions@QRegularExpressionMatch@kso_qt@@QBE?AV?$QFlags@W4MatchOption@QRegularExpression@kso_qt@@@2@XZ
?matchOptions@QRegularExpressionMatchIterator@kso_qt@@QBE?AV?$QFlags@W4MatchOption@QRegularExpression@kso_qt@@@2@XZ
?matchType@QRegularExpressionMatch@kso_qt@@QBE?AW4MatchType@QRegularExpression@2@XZ
?matchType@QRegularExpressionMatchIterator@kso_qt@@QBE?AW4MatchType@QRegularExpression@2@XZ
?matchedLength@QRegExp@kso_qt@@QBEHXZ
?matches@QUrl@kso_qt@@QBE_NABV12@V?$QUrlTwoFlags@W4UrlFormattingOption@QUrl@kso_qt@@W4ComponentFormattingOption@23@@2@@Z
?matchingLocales@QLocale@kso_qt@@SA?AV?$QList@VQLocale@kso_qt@@@2@W4Language@12@W4Script@12@W4Country@12@@Z
?maxChange@SectionNode@QDateTimeParser@kso_qt@@QBEHXZ
?maxJd@QDate@kso_qt@@CA_JXZ
?maxMSecs@QTimeZonePrivate@kso_qt@@SA_JXZ
?maxReadBufferSize@QWindowsPipeReader@kso_qt@@QBE_JXZ
?maxThreadCount@QThreadPool@kso_qt@@QBEHXZ
?maybeQuit@QCoreApplicationPrivate@kso_qt@@QAEXXZ
?maybeQuote@QDebug@kso_qt@@QAEAAV12@D@Z
?maybeRegister@QEventTransitionPrivate@kso_qt@@QAEXXZ
?maybeRegisterEventTransition@QStateMachinePrivate@kso_qt@@QAEXPAVQEventTransition@2@@Z
?maybeRegisterSignalTransition@QStateMachinePrivate@kso_qt@@QAEXPAVQSignalTransition@2@@Z
?maybeRegisterTransition@QStateMachinePrivate@kso_qt@@QAEXPAVQAbstractTransition@2@@Z
?maybeSpace@QDebug@kso_qt@@QAEAAV12@XZ
?maybeUpdateAnimationsToCurrentTime@QUnifiedTimer@kso_qt@@QAEXXZ
?measurementSystem@QLocale@kso_qt@@QBE?AW4MeasurementSystem@12@XZ
?measurementSystem@QLocalePrivate@kso_qt@@QBE?AW4MeasurementSystem@QLocale@2@XZ
?merge@QItemSelection@kso_qt@@QAEXABV12@V?$QFlags@W4SelectionFlag@QItemSelectionModel@kso_qt@@@2@@Z
?mergedKeyMap@QConfFile@kso_qt@@QBE?AV?$QMap@VQSettingsKey@kso_qt@@VQVariant@2@@2@XZ
?metaCall@QAbstractDynamicMetaObject@kso_qt@@UAEHPAVQObject@2@W4Call@QMetaObject@2@HPAPAX@Z
?metaCall@QAbstractDynamicMetaObject@kso_qt@@UAEHW4Call@QMetaObject@2@HPAPAX@Z
?metaData@QFactoryLoader@kso_qt@@QBE?AV?$QList@VQJsonObject@kso_qt@@@2@XZ
?metaData@QPluginLoader@kso_qt@@QBE?AVQJsonObject@2@XZ
?metaData@QStaticPlugin@kso_qt@@QBE?AVQJsonObject@2@XZ
?metaObject@QAbstractAnimation@kso_qt@@UBEPBUQMetaObject@2@XZ
?metaObject@QAbstractAnimationTimer@kso_qt@@UBEPBUQMetaObject@2@XZ
?metaObject@QAbstractEventDispatcher@kso_qt@@UBEPBUQMetaObject@2@XZ
?metaObject@QAbstractItemModel@kso_qt@@UBEPBUQMetaObject@2@XZ
?metaObject@QAbstractListModel@kso_qt@@UBEPBUQMetaObject@2@XZ
?metaObject@QAbstractProxyModel@kso_qt@@UBEPBUQMetaObject@2@XZ
?metaObject@QAbstractState@kso_qt@@UBEPBUQMetaObject@2@XZ
?metaObject@QAbstractTableModel@kso_qt@@UBEPBUQMetaObject@2@XZ
?metaObject@QAbstractTransition@kso_qt@@UBEPBUQMetaObject@2@XZ
?metaObject@QAnimationDriver@kso_qt@@UBEPBUQMetaObject@2@XZ
?metaObject@QAnimationGroup@kso_qt@@UBEPBUQMetaObject@2@XZ
?metaObject@QBuffer@kso_qt@@UBEPBUQMetaObject@2@XZ
?metaObject@QCoreApplication@kso_qt@@UBEPBUQMetaObject@2@XZ
?metaObject@QEventDispatcherWin32@kso_qt@@UBEPBUQMetaObject@2@XZ
?metaObject@QEventLoop@kso_qt@@UBEPBUQMetaObject@2@XZ
?metaObject@QEventTransition@kso_qt@@UBEPBUQMetaObject@2@XZ
?metaObject@QFactoryLoader@kso_qt@@UBEPBUQMetaObject@2@XZ
?metaObject@QFile@kso_qt@@UBEPBUQMetaObject@2@XZ
?metaObject@QFileDevice@kso_qt@@UBEPBUQMetaObject@2@XZ
?metaObject@QFileSelector@kso_qt@@UBEPBUQMetaObject@2@XZ
?metaObject@QFileSystemWatcher@kso_qt@@UBEPBUQMetaObject@2@XZ
?metaObject@QFinalState@kso_qt@@UBEPBUQMetaObject@2@XZ
?metaObject@QFutureWatcherBase@kso_qt@@UBEPBUQMetaObject@2@XZ
?metaObject@QHistoryState@kso_qt@@UBEPBUQMetaObject@2@XZ
?metaObject@QIODevice@kso_qt@@UBEPBUQMetaObject@2@XZ
?metaObject@QIdentityProxyModel@kso_qt@@UBEPBUQMetaObject@2@XZ
?metaObject@QItemSelectionModel@kso_qt@@UBEPBUQMetaObject@2@XZ
?metaObject@QLibrary@kso_qt@@UBEPBUQMetaObject@2@XZ
?metaObject@QMetaType@kso_qt@@QBEPBUQMetaObject@2@XZ
?metaObject@QMimeData@kso_qt@@UBEPBUQMetaObject@2@XZ
?metaObject@QNonContiguousByteDevice@kso_qt@@UBEPBUQMetaObject@2@XZ
?metaObject@QObject@kso_qt@@UBEPBUQMetaObject@2@XZ
?metaObject@QObjectCleanupHandler@kso_qt@@UBEPBUQMetaObject@2@XZ
?metaObject@QParallelAnimationGroup@kso_qt@@UBEPBUQMetaObject@2@XZ
?metaObject@QPauseAnimation@kso_qt@@UBEPBUQMetaObject@2@XZ
?metaObject@QPluginLoader@kso_qt@@UBEPBUQMetaObject@2@XZ
?metaObject@QProcess@kso_qt@@UBEPBUQMetaObject@2@XZ
?metaObject@QPropertyAnimation@kso_qt@@UBEPBUQMetaObject@2@XZ
?metaObject@QSaveFile@kso_qt@@UBEPBUQMetaObject@2@XZ
?metaObject@QSequentialAnimationGroup@kso_qt@@UBEPBUQMetaObject@2@XZ
?metaObject@QSettings@kso_qt@@UBEPBUQMetaObject@2@XZ
?metaObject@QSharedMemory@kso_qt@@UBEPBUQMetaObject@2@XZ
?metaObject@QSignalMapper@kso_qt@@UBEPBUQMetaObject@2@XZ
?metaObject@QSignalTransition@kso_qt@@UBEPBUQMetaObject@2@XZ
?metaObject@QSocketNotifier@kso_qt@@UBEPBUQMetaObject@2@XZ
?metaObject@QSortFilterProxyModel@kso_qt@@UBEPBUQMetaObject@2@XZ
?metaObject@QState@kso_qt@@UBEPBUQMetaObject@2@XZ
?metaObject@QStateMachine@kso_qt@@UBEPBUQMetaObject@2@XZ
?metaObject@QStringListModel@kso_qt@@UBEPBUQMetaObject@2@XZ
?metaObject@QTemporaryFile@kso_qt@@UBEPBUQMetaObject@2@XZ
?metaObject@QThread@kso_qt@@UBEPBUQMetaObject@2@XZ
?metaObject@QThreadPool@kso_qt@@UBEPBUQMetaObject@2@XZ
?metaObject@QTimeLine@kso_qt@@UBEPBUQMetaObject@2@XZ
?metaObject@QTimer@kso_qt@@UBEPBUQMetaObject@2@XZ
?metaObject@QTranslator@kso_qt@@UBEPBUQMetaObject@2@XZ
?metaObject@QUnifiedTimer@kso_qt@@UBEPBUQMetaObject@2@XZ
?metaObject@QVariantAnimation@kso_qt@@UBEPBUQMetaObject@2@XZ
?metaObject@QWinEventNotifier@kso_qt@@UBEPBUQMetaObject@2@XZ
?metaObject@QWindowsPipeReader@kso_qt@@UBEPBUQMetaObject@2@XZ
?metaObject@QWindowsPipeWriter@kso_qt@@UBEPBUQMetaObject@2@XZ
?metaObjectExtended@QMetaType@kso_qt@@ABEPBUQMetaObject@2@XZ
?metaObjectForType@QMetaType@kso_qt@@SAPBUQMetaObject@2@H@Z
?metacall@QMetaObject@kso_qt@@SAHPAVQObject@2@W4Call@12@HPAPAX@Z
?metadataChangeTime@QFileInfo@kso_qt@@QBE?AVQDateTime@2@XZ
?metadataChangeTime@QFileSystemMetaData@kso_qt@@QBE?AVQDateTime@2@XZ
?method@QMetaObject@kso_qt@@QBE?AVQMetaMethod@2@H@Z
?method@QMetaObjectBuilder@kso_qt@@QBE?AVQMetaMethodBuilder@2@H@Z
?methodCount@QMetaObject@kso_qt@@QBEHXZ
?methodCount@QMetaObjectBuilder@kso_qt@@QBEHXZ
?methodIndex@QMetaMethod@kso_qt@@QBEHXZ
?methodOffset@QMetaObject@kso_qt@@QBEHXZ
?methodSignature@QMetaMethod@kso_qt@@QBE?AVQByteArray@2@XZ
?methodType@QMetaMethod@kso_qt@@QBE?AW4MethodType@12@XZ
?methodType@QMetaMethodBuilder@kso_qt@@QBE?AW4MethodType@QMetaMethod@2@XZ
?microVersion@QOperatingSystemVersion@kso_qt@@QBEHXZ
?microstep@QStateMachinePrivate@kso_qt@@QAEXPAVQEvent@2@ABV?$QList@PAVQAbstractTransition@kso_qt@@@2@PAUCalculationCache@2@@Z
?mid@?$QList@VQItemSelectionRange@kso_qt@@@kso_qt@@QBE?AV12@HH@Z
?mid@?$QVector@VQPoint@kso_qt@@@kso_qt@@QBE?AV12@HH@Z
?mid@?$QVector@VQPointF@kso_qt@@@kso_qt@@QBE?AV12@HH@Z
?mid@?$QVector@VQXmlStreamAttribute@kso_qt@@@kso_qt@@QBE?AV12@HH@Z
?mid@QByteArray@kso_qt@@QBE?AV12@HH@Z
?mid@QContainerImplHelper@QtPrivate@kso_qt@@SA?AW4CutResult@123@HPAH0@Z
?mid@QString@kso_qt@@QBE?AV12@HH@Z
?mid@QStringRef@kso_qt@@QBE?AV12@HH@Z
?midRef@QString@kso_qt@@QBE?AVQStringRef@2@HH@Z
?mimeData@QAbstractItemModel@kso_qt@@UBEPAVQMimeData@2@ABV?$QList@VQModelIndex@kso_qt@@@2@@Z
?mimeData@QAbstractProxyModel@kso_qt@@UBEPAVQMimeData@2@ABV?$QList@VQModelIndex@kso_qt@@@2@@Z
?mimeData@QSortFilterProxyModel@kso_qt@@UBEPAVQMimeData@2@ABV?$QList@VQModelIndex@kso_qt@@@2@@Z
?mimeTypeForData@QMimeDatabase@kso_qt@@QBE?AVQMimeType@2@ABVQByteArray@2@@Z
?mimeTypeForData@QMimeDatabase@kso_qt@@QBE?AVQMimeType@2@PAVQIODevice@2@@Z
?mimeTypeForFile@QMimeDatabase@kso_qt@@QBE?AVQMimeType@2@ABVQFileInfo@2@W4MatchMode@12@@Z
?mimeTypeForFile@QMimeDatabase@kso_qt@@QBE?AVQMimeType@2@ABVQString@2@W4MatchMode@12@@Z
?mimeTypeForFileNameAndData@QMimeDatabase@kso_qt@@QBE?AVQMimeType@2@ABVQString@2@ABVQByteArray@2@@Z
?mimeTypeForFileNameAndData@QMimeDatabase@kso_qt@@QBE?AVQMimeType@2@ABVQString@2@PAVQIODevice@2@@Z
?mimeTypeForName@QMimeDatabase@kso_qt@@QBE?AVQMimeType@2@ABVQString@2@@Z
?mimeTypeForUrl@QMimeDatabase@kso_qt@@QBE?AVQMimeType@2@ABVQUrl@2@@Z
?mimeTypes@QAbstractItemModel@kso_qt@@UBE?AVQStringList@2@XZ
?mimeTypes@QAbstractProxyModel@kso_qt@@UBE?AVQStringList@2@XZ
?mimeTypes@QSortFilterProxyModel@kso_qt@@UBE?AVQStringList@2@XZ
?mimeTypesForFileName@QMimeDatabase@kso_qt@@QBE?AV?$QList@VQMimeType@kso_qt@@@2@ABVQString@2@@Z
?minJd@QDate@kso_qt@@CA_JXZ
?minMSecs@QTimeZonePrivate@kso_qt@@SA_JXZ
?minorVersion@QOperatingSystemVersion@kso_qt@@QBEHXZ
?minus@QLocalePrivate@kso_qt@@QBE?AVQChar@2@XZ
?minute@QTime@kso_qt@@QBEHXZ
?mirroredChar@QChar@kso_qt@@QBE?AV12@XZ
?mirroredChar@QChar@kso_qt@@SIII@Z
?mirroredChar@QCharRef@kso_qt@@QBE?AVQChar@2@XZ
?missingFlags@QFileSystemMetaData@kso_qt@@QAE?AV?$QFlags@W4MetaDataFlag@QFileSystemMetaData@kso_qt@@@2@V32@@Z
?mkdir@QAbstractFileEngine@kso_qt@@UBE_NABVQString@2@_N@Z
?mkdir@QDir@kso_qt@@QBE_NABVQString@2@@Z
?mkdir@QFSFileEngine@kso_qt@@UBE_NABVQString@2@_N@Z
?mkpath@QDir@kso_qt@@QBE_NABVQString@2@@Z
?model@QItemSelectionModel@kso_qt@@QAEPAVQAbstractItemModel@2@XZ
?model@QItemSelectionModel@kso_qt@@QBEPBVQAbstractItemModel@2@XZ
?model@QItemSelectionRange@kso_qt@@QBEPBVQAbstractItemModel@2@XZ
?model@QModelIndex@kso_qt@@QBEPBVQAbstractItemModel@2@XZ
?model@QPersistentModelIndex@kso_qt@@QBEPBVQAbstractItemModel@2@XZ
?modelAboutToBeReset@QAbstractItemModel@kso_qt@@QAEXUQPrivateSignal@12@@Z
?modelChanged@QItemSelectionModel@kso_qt@@QAEXPAVQAbstractItemModel@2@@Z
?modelReset@QAbstractItemModel@kso_qt@@QAEXUQPrivateSignal@12@@Z
?modificationTime@QFileSystemMetaData@kso_qt@@QBE?AVQDateTime@2@XZ
?month@QDate@kso_qt@@QBEHXZ
?monthName@QLocale@kso_qt@@QBE?AVQString@2@HW4FormatType@12@@Z
?mountedVolumes@QStorageInfo@kso_qt@@SA?AV?$QList@VQStorageInfo@kso_qt@@@2@XZ
?move@?$QList@VQItemSelectionRange@kso_qt@@@kso_qt@@QAEXHH@Z
?move@?$QVector@VQPoint@kso_qt@@@kso_qt@@QAEXHH@Z
?move@?$QVector@VQPointF@kso_qt@@@kso_qt@@QAEXHH@Z
?move@?$QVector@VQXmlStreamAttribute@kso_qt@@@kso_qt@@QAEXHH@Z
?move@QListData@kso_qt@@QAEXHH@Z
?moveBottom@QRect@kso_qt@@QAEXH@Z
?moveBottom@QRectF@kso_qt@@QAEXN@Z
?moveBottomLeft@QRect@kso_qt@@QAEXABVQPoint@2@@Z
?moveBottomLeft@QRectF@kso_qt@@QAEXABVQPointF@2@@Z
?moveBottomRight@QRect@kso_qt@@QAEXABVQPoint@2@@Z
?moveBottomRight@QRectF@kso_qt@@QAEXABVQPointF@2@@Z
?moveCenter@QRect@kso_qt@@QAEXABVQPoint@2@@Z
?moveCenter@QRectF@kso_qt@@QAEXABVQPointF@2@@Z
?moveColumn@QAbstractItemModel@kso_qt@@QAE_NABVQModelIndex@2@H0H@Z
?moveColumns@QAbstractItemModel@kso_qt@@UAE_NABVQModelIndex@2@HH0H@Z
?moveLeft@QRect@kso_qt@@QAEXH@Z
?moveLeft@QRectF@kso_qt@@QAEXN@Z
?movePersistentIndexes@QAbstractItemModelPrivate@kso_qt@@QAEXABV?$QVector@PAVQPersistentModelIndexData@kso_qt@@@2@HABVQModelIndex@2@W4Orientation@Qt@2@@Z
?moveRight@QRect@kso_qt@@QAEXH@Z
?moveRight@QRectF@kso_qt@@QAEXN@Z
?moveRow@QAbstractItemModel@kso_qt@@QAE_NABVQModelIndex@2@H0H@Z
?moveRows@QAbstractItemModel@kso_qt@@UAE_NABVQModelIndex@2@HH0H@Z
?moveTo@QRect@kso_qt@@QAEXABVQPoint@2@@Z
?moveTo@QRect@kso_qt@@QAEXHH@Z
?moveTo@QRectF@kso_qt@@QAEXABVQPointF@2@@Z
?moveTo@QRectF@kso_qt@@QAEXNN@Z
?moveToThread@QObject@kso_qt@@QAEXPAVQThread@2@@Z
?moveToThread_helper@QObjectPrivate@kso_qt@@QAEXXZ
?moveTop@QRect@kso_qt@@QAEXH@Z
?moveTop@QRectF@kso_qt@@QAEXN@Z
?moveTopLeft@QRect@kso_qt@@QAEXABVQPoint@2@@Z
?moveTopLeft@QRectF@kso_qt@@QAEXABVQPointF@2@@Z
?moveTopRight@QRect@kso_qt@@QAEXABVQPoint@2@@Z
?moveTopRight@QRectF@kso_qt@@QAEXABVQPointF@2@@Z
?msec@QTime@kso_qt@@QBEHXZ
?msecsSinceReference@QElapsedTimer@kso_qt@@QBE_JXZ
?msecsSinceStartOfDay@QTime@kso_qt@@QBEHXZ
?msecsTo@QDateTime@kso_qt@@QBE_JABV12@@Z
?msecsTo@QElapsedTimer@kso_qt@@QBE_JABV12@@Z
?msecsTo@QTime@kso_qt@@QBEHABV12@@Z
?msleep@QThread@kso_qt@@SAXK@Z
?multiArg@QString@kso_qt@@ABE?AV12@HPAPBV12@@Z
?mutex@QFutureInterfaceBase@kso_qt@@QBEPAVQMutex@2@XZ
?mutex@QMutexLocker@kso_qt@@QBEPAVQMutex@2@XZ
?name@QGenericArgument@kso_qt@@QBEPBDXZ
?name@QLocale@kso_qt@@QBE?AVQString@2@XZ
?name@QMetaClassInfo@kso_qt@@QBEPBDXZ
?name@QMetaEnum@kso_qt@@QBEPBDXZ
?name@QMetaEnumBuilder@kso_qt@@QBE?AVQByteArray@2@XZ
?name@QMetaMethod@kso_qt@@QBE?AVQByteArray@2@XZ
?name@QMetaProperty@kso_qt@@QBEPBDXZ
?name@QMetaPropertyBuilder@kso_qt@@QBE?AVQByteArray@2@XZ
?name@QMimeType@kso_qt@@QBE?AVQString@2@XZ
?name@QOperatingSystemVersion@kso_qt@@QBE?AVQString@2@XZ
?name@QStorageInfo@kso_qt@@QBE?AVQString@2@XZ
?name@QXmlStreamAttribute@kso_qt@@QBE?AVQStringRef@2@XZ
?name@QXmlStreamEntityDeclaration@kso_qt@@QBE?AVQStringRef@2@XZ
?name@QXmlStreamNotationDeclaration@kso_qt@@QBE?AVQStringRef@2@XZ
?name@QXmlStreamReader@kso_qt@@QBE?AVQStringRef@2@XZ
?name@SectionNode@QDateTimeParser@kso_qt@@QBE?AVQString@3@XZ
?name@SectionNode@QDateTimeParser@kso_qt@@SA?AVQString@3@W4Section@23@@Z
?nameFilters@QAbstractFileEngineIterator@kso_qt@@QBE?AVQStringList@2@XZ
?nameFilters@QDir@kso_qt@@QBE?AVQStringList@2@XZ
?nameFiltersFromString@QDir@kso_qt@@SA?AVQStringList@2@ABVQString@2@@Z
?nameToType@QVariant@kso_qt@@SA?AW4Type@12@PBD@Z
?namedCaptureGroups@QRegularExpression@kso_qt@@QBE?AVQStringList@2@XZ
?names@QCommandLineOption@kso_qt@@QBE?AVQStringList@2@XZ
?namespaceDeclarations@QXmlStreamReader@kso_qt@@QBE?AV?$QVector@VQXmlStreamNamespaceDeclaration@kso_qt@@@2@XZ
?namespaceProcessing@QXmlStreamReader@kso_qt@@QBE_NXZ
?namespaceUri@QXmlStreamAttribute@kso_qt@@QBE?AVQStringRef@2@XZ
?namespaceUri@QXmlStreamNamespaceDeclaration@kso_qt@@QBE?AVQStringRef@2@XZ
?namespaceUri@QXmlStreamReader@kso_qt@@QBE?AVQStringRef@2@XZ
?nativeArguments@QProcess@kso_qt@@QBE?AVQString@2@XZ
?nativeClose@QFSFileEnginePrivate@kso_qt@@QAE_NXZ
?nativeCountryName@QLocale@kso_qt@@QBE?AVQString@2@XZ
?nativeEventFilterFlags@QAbstractNativeEventFilter@kso_qt@@MBE?AV?$QFlags@W4AllowNativeEventFilterFlag@QAbstractNativeEventFilter@kso_qt@@@2@XZ
?nativeFlush@QFSFileEnginePrivate@kso_qt@@QAE_NXZ
?nativeHandle@QFSFileEnginePrivate@kso_qt@@QBEHXZ
?nativeIsSequential@QFSFileEnginePrivate@kso_qt@@QBE_NXZ
?nativeKey@QSharedMemory@kso_qt@@QBE?AVQString@2@XZ
?nativeLanguageName@QLocale@kso_qt@@QBE?AVQString@2@XZ
?nativeOpen@QFSFileEnginePrivate@kso_qt@@QAE_NV?$QFlags@W4OpenModeFlag@QIODevice@kso_qt@@@2@@Z
?nativePos@QFSFileEnginePrivate@kso_qt@@QBE_JXZ
?nativeRead@QFSFileEnginePrivate@kso_qt@@QAE_JPAD_J@Z
?nativeReadLine@QFSFileEnginePrivate@kso_qt@@QAE_JPAD_J@Z
?nativeSeek@QFSFileEnginePrivate@kso_qt@@QAE_N_J@Z
?nativeSize@QFSFileEnginePrivate@kso_qt@@QBE_JXZ
?nativeSyncToDisk@QFSFileEnginePrivate@kso_qt@@QAE_NXZ
?nativeWrite@QFSFileEnginePrivate@kso_qt@@QAE_JPBD_J@Z
?needsMoreData@QTextDecoder@kso_qt@@QBE_NXZ
?negativeSign@QLocale@kso_qt@@QBE?AVQChar@2@XZ
?newInstance@QMetaObject@kso_qt@@QBEPAVQObject@2@VQGenericArgument@2@000000000@Z
?next@QCborStreamReader@kso_qt@@QAE_NH@Z
?next@QDirIterator@kso_qt@@QAE?AVQString@2@XZ
?next@QRegularExpressionMatchIterator@kso_qt@@QAE?AVQRegularExpressionMatch@2@XZ
?nextNode@QHashData@kso_qt@@SAPAUNode@12@PAU312@@Z
?nextNode@QMapNodeBase@kso_qt@@QAEPAU12@XZ
?nextNode@QMapNodeBase@kso_qt@@QBEPBU12@XZ
?nextTransition@QTimeZone@kso_qt@@QBE?AUOffsetData@12@ABVQDateTime@2@@Z
?nextTransition@QTimeZonePrivate@kso_qt@@UBE?AUData@12@_J@Z
?nextTransition@QWinTimeZonePrivate@kso_qt@@UBE?AUData@QTimeZonePrivate@2@_J@Z
?noDebug@QMessageLogger@kso_qt@@QBAXPBDZZ
?noDebug@QMessageLogger@kso_qt@@QBE?AVQNoDebug@2@XZ
?noMicrostep@QStateMachinePrivate@kso_qt@@UAEXXZ
?node_construct@?$QList@VQItemSelectionRange@kso_qt@@@kso_qt@@AAEXPAUNode@12@ABVQItemSelectionRange@2@@Z
?node_copy@?$QList@VQItemSelectionRange@kso_qt@@@kso_qt@@AAEXPAUNode@12@00@Z
?node_destruct@?$QList@VQItemSelectionRange@kso_qt@@@kso_qt@@AAEXPAUNode@12@0@Z
?node_destruct@?$QList@VQItemSelectionRange@kso_qt@@@kso_qt@@AAEXPAUNode@12@@Z
?noforcepoint@kso_qt@@YAAAVQTextStream@1@AAV21@@Z
?noforcesign@kso_qt@@YAAAVQTextStream@1@AAV21@@Z
?noquote@QDebug@kso_qt@@QAEAAV12@XZ
?normalVector@QLineF@kso_qt@@QBE?AV12@XZ
?normalized@QRect@kso_qt@@QBE?AV12@XZ
?normalized@QRectF@kso_qt@@QBE?AV12@XZ
?normalized@QString@kso_qt@@QBE?AV12@W4NormalizationForm@12@W4UnicodeVersion@QChar@2@@Z
?normalized@QVersionNumber@kso_qt@@QBE?AV12@XZ
?normalizedKey@QSettingsPrivate@kso_qt@@SA?AVQString@2@ABV32@@Z
?normalizedSignature@QMetaObject@kso_qt@@SA?AVQByteArray@2@PBD@Z
?normalizedType@QMetaObject@kso_qt@@SA?AVQByteArray@2@PBD@Z
?noshowbase@kso_qt@@YAAAVQTextStream@1@AAV21@@Z
?nospace@QDebug@kso_qt@@QAEAAV12@XZ
?notationDeclarations@QXmlStreamReader@kso_qt@@QBE?AV?$QVector@VQXmlStreamNotationDeclaration@kso_qt@@@2@XZ
?notationName@QXmlStreamEntityDeclaration@kso_qt@@QBE?AVQStringRef@2@XZ
?notified@QWindowsPipeReader@kso_qt@@AAEXKK@Z
?notified@QWindowsPipeWriter@kso_qt@@AAEXKK@Z
?notify@QCoreApplication@kso_qt@@UAE_NPAVQObject@2@PAVQEvent@2@@Z
?notifyInternal2@QCoreApplication@kso_qt@@CA_NPAVQObject@2@PAVQEvent@2@@Z
?notifyInternal@QCoreApplication@kso_qt@@AAE_NPAVQObject@2@PAVQEvent@2@@Z
?notifySignal@QMetaProperty@kso_qt@@QBE?AVQMetaMethod@2@XZ
?notifySignal@QMetaPropertyBuilder@kso_qt@@QBE?AVQMetaMethodBuilder@2@XZ
?notifySignalIndex@QMetaProperty@kso_qt@@QBEHXZ
?notify_all@QWaitCondition@kso_qt@@QAEXXZ
?notify_helper@QCoreApplicationPrivate@kso_qt@@SA_NPAVQObject@2@PAVQEvent@2@@Z
?notify_one@QWaitCondition@kso_qt@@QAEXXZ
?nsecsElapsed@QElapsedTimer@kso_qt@@QBE_JXZ
?nulTerminated@QByteArray@kso_qt@@ABE?AV12@XZ
?null@QString@kso_qt@@2UNull@12@B
?nullDevice@QProcess@kso_qt@@SA?AVQString@2@XZ
?nullJd@QDate@kso_qt@@CA_JXZ
?number@QByteArray@kso_qt@@SA?AV12@HH@Z
?number@QByteArray@kso_qt@@SA?AV12@IH@Z
?number@QByteArray@kso_qt@@SA?AV12@NDH@Z
?number@QByteArray@kso_qt@@SA?AV12@_JH@Z
?number@QByteArray@kso_qt@@SA?AV12@_KH@Z
?number@QString@kso_qt@@SA?AV12@HH@Z
?number@QString@kso_qt@@SA?AV12@IH@Z
?number@QString@kso_qt@@SA?AV12@JH@Z
?number@QString@kso_qt@@SA?AV12@KH@Z
?number@QString@kso_qt@@SA?AV12@NDH@Z
?number@QString@kso_qt@@SA?AV12@_JH@Z
?number@QString@kso_qt@@SA?AV12@_KH@Z
?numberFlags@QTextStream@kso_qt@@QBE?AV?$QFlags@W4NumberFlag@QTextStream@kso_qt@@@2@XZ
?numberOptions@QLocale@kso_qt@@QBE?AV?$QFlags@W4NumberOption@QLocale@kso_qt@@@2@XZ
?numericMode@QCollator@kso_qt@@QBE_NXZ
?object@QJsonDocument@kso_qt@@QBE?AVQJsonObject@2@XZ
?object@WrappedEvent@QStateMachine@kso_qt@@QBEPAVQObject@3@XZ
?objectDestroyed@QDynamicMetaObjectData@kso_qt@@UAEXPAVQObject@2@@Z
?objectDestroyed@QObjectCleanupHandler@kso_qt@@AAEXPAVQObject@2@@Z
?objectName@QObject@kso_qt@@QBE?AVQString@2@XZ
?objectNameChanged@QObject@kso_qt@@QAEXABVQString@2@UQPrivateSignal@12@@Z
?oct@kso_qt@@YAAAVQTextStream@1@AAV21@@Z
?offsetData@QTimeZone@kso_qt@@QBE?AUOffsetData@12@ABVQDateTime@2@@Z
?offsetFromUtc@QDateTime@kso_qt@@QBEHXZ
?offsetFromUtc@QTimeZone@kso_qt@@QBEHABVQDateTime@2@@Z
?offsetFromUtc@QTimeZonePrivate@kso_qt@@UBEH_J@Z
?offsetFromUtc@QWinTimeZonePrivate@kso_qt@@UBEH_J@Z
?offsettable@qfloat16@kso_qt@@0QBIB
?onEntry@QFinalState@kso_qt@@MAEXPAVQEvent@2@@Z
?onEntry@QHistoryState@kso_qt@@MAEXPAVQEvent@2@@Z
?onEntry@QState@kso_qt@@MAEXPAVQEvent@2@@Z
?onEntry@QStateMachine@kso_qt@@MAEXPAVQEvent@2@@Z
?onExit@QFinalState@kso_qt@@MAEXPAVQEvent@2@@Z
?onExit@QHistoryState@kso_qt@@MAEXPAVQEvent@2@@Z
?onExit@QState@kso_qt@@MAEXPAVQEvent@2@@Z
?onExit@QStateMachine@kso_qt@@MAEXPAVQEvent@2@@Z
?onTransition@QEventTransition@kso_qt@@MAEXPAVQEvent@2@@Z
?onTransition@QSignalTransition@kso_qt@@MAEXPAVQEvent@2@@Z
?op_eq_impl@?$QList@VQItemSelectionRange@kso_qt@@@kso_qt@@ABE_NABV12@UArrayCompatibleLayout@QListData@2@@Z
?op_eq_impl@?$QList@VQItemSelectionRange@kso_qt@@@kso_qt@@ABE_NABV12@UNotArrayCompatibleLayout@QListData@2@@Z
?open@QAbstractFileEngine@kso_qt@@UAE_NV?$QFlags@W4OpenModeFlag@QIODevice@kso_qt@@@2@@Z
?open@QBuffer@kso_qt@@UAE_NV?$QFlags@W4OpenModeFlag@QIODevice@kso_qt@@@2@@Z
?open@QFSFileEngine@kso_qt@@QAE_NV?$QFlags@W4OpenModeFlag@QIODevice@kso_qt@@@2@H@Z
?open@QFSFileEngine@kso_qt@@QAE_NV?$QFlags@W4OpenModeFlag@QIODevice@kso_qt@@@2@HV?$QFlags@W4FileHandleFlag@QFileDevice@kso_qt@@@2@@Z
?open@QFSFileEngine@kso_qt@@QAE_NV?$QFlags@W4OpenModeFlag@QIODevice@kso_qt@@@2@PAU_iobuf@@@Z
?open@QFSFileEngine@kso_qt@@QAE_NV?$QFlags@W4OpenModeFlag@QIODevice@kso_qt@@@2@PAU_iobuf@@V?$QFlags@W4FileHandleFlag@QFileDevice@kso_qt@@@2@@Z
?open@QFSFileEngine@kso_qt@@UAE_NV?$QFlags@W4OpenModeFlag@QIODevice@kso_qt@@@2@@Z
?open@QFile@kso_qt@@QAE_NHV?$QFlags@W4OpenModeFlag@QIODevice@kso_qt@@@2@V?$QFlags@W4FileHandleFlag@QFileDevice@kso_qt@@@2@@Z
?open@QFile@kso_qt@@QAE_NPAU_iobuf@@V?$QFlags@W4OpenModeFlag@QIODevice@kso_qt@@@2@V?$QFlags@W4FileHandleFlag@QFileDevice@kso_qt@@@2@@Z
?open@QFile@kso_qt@@UAE_NV?$QFlags@W4OpenModeFlag@QIODevice@kso_qt@@@2@@Z
?open@QIODevice@kso_qt@@UAE_NV?$QFlags@W4OpenModeFlag@QIODevice@kso_qt@@@2@@Z
?open@QProcess@kso_qt@@UAE_NV?$QFlags@W4OpenModeFlag@QIODevice@kso_qt@@@2@@Z
?open@QSaveFile@kso_qt@@UAE_NV?$QFlags@W4OpenModeFlag@QIODevice@kso_qt@@@2@@Z
?open@QTemporaryFile@kso_qt@@MAE_NV?$QFlags@W4OpenModeFlag@QIODevice@kso_qt@@@2@@Z
?open@QTemporaryFile@kso_qt@@QAE_NXZ
?openFd@QFSFileEnginePrivate@kso_qt@@QAE_NV?$QFlags@W4OpenModeFlag@QIODevice@kso_qt@@@2@H@Z
?openFh@QFSFileEnginePrivate@kso_qt@@QAE_NV?$QFlags@W4OpenModeFlag@QIODevice@kso_qt@@@2@PAU_iobuf@@@Z
?openMode@QIODevice@kso_qt@@QBE?AV?$QFlags@W4OpenModeFlag@QIODevice@kso_qt@@@2@XZ
?openModeCanCreate@QFSFileEnginePrivate@kso_qt@@SA_NV?$QFlags@W4OpenModeFlag@QIODevice@kso_qt@@@2@@Z
?optimize@QRegularExpression@kso_qt@@QBEXXZ
?optionNames@QCommandLineParser@kso_qt@@QBE?AVQStringList@2@XZ
?organizationDomain@QCoreApplication@kso_qt@@SA?AVQString@2@XZ
?organizationDomainChanged@QCoreApplication@kso_qt@@QAEXXZ
?organizationName@QCoreApplication@kso_qt@@SA?AVQString@2@XZ
?organizationName@QSettings@kso_qt@@QBE?AVQString@2@XZ
?organizationNameChanged@QCoreApplication@kso_qt@@QAEXXZ
?overshoot@QEasingCurve@kso_qt@@QBENXZ
?owner@QAbstractFileEngine@kso_qt@@UBE?AVQString@2@W4FileOwner@12@@Z
?owner@QFSFileEngine@kso_qt@@UBE?AVQString@2@W4FileOwner@QAbstractFileEngine@2@@Z
?owner@QFileInfo@kso_qt@@QBE?AVQString@2@XZ
?ownerId@QAbstractFileEngine@kso_qt@@UBEIW4FileOwner@12@@Z
?ownerId@QFSFileEngine@kso_qt@@UBEIW4FileOwner@QAbstractFileEngine@2@@Z
?ownerId@QFileInfo@kso_qt@@QBEIXZ
?ownerId@QFileSystemMetaData@kso_qt@@QBEIW4FileOwner@QAbstractFileEngine@2@@Z
?p1@QLine@kso_qt@@QBE?AVQPoint@2@XZ
?p1@QLineF@kso_qt@@QBE?AVQPointF@2@XZ
?p2@QLine@kso_qt@@QBE?AVQPoint@2@XZ
?p2@QLineF@kso_qt@@QBE?AVQPointF@2@XZ
?padChar@QTextStream@kso_qt@@QBE?AVQChar@2@XZ
?parameterCount@QMetaMethod@kso_qt@@QBEHXZ
?parameterNames@QMetaMethod@kso_qt@@QBE?AV?$QList@VQByteArray@kso_qt@@@2@XZ
?parameterNames@QMetaMethodBuilder@kso_qt@@QBE?AV?$QList@VQByteArray@kso_qt@@@2@XZ
?parameterType@QMetaMethod@kso_qt@@QBEHH@Z
?parameterTypes@QMetaMethod@kso_qt@@QBE?AV?$QList@VQByteArray@kso_qt@@@2@XZ
?parameterTypes@QMetaMethodBuilder@kso_qt@@QBE?AV?$QList@VQByteArray@kso_qt@@@2@XZ
?parent@QAbstractListModel@kso_qt@@EBE?AVQModelIndex@2@ABV32@@Z
?parent@QAbstractTableModel@kso_qt@@EBE?AVQModelIndex@2@ABV32@@Z
?parent@QIdentityProxyModel@kso_qt@@UBE?AVQModelIndex@2@ABV32@@Z
?parent@QItemSelectionRange@kso_qt@@QBE?AVQModelIndex@2@XZ
?parent@QMapNodeBase@kso_qt@@QBEPAU12@XZ
?parent@QModelIndex@kso_qt@@QBE?AV12@XZ
?parent@QObject@kso_qt@@QBEPAV12@XZ
?parent@QPersistentModelIndex@kso_qt@@QBE?AVQModelIndex@2@XZ
?parent@QSortFilterProxyModel@kso_qt@@UBE?AVQModelIndex@2@ABV32@@Z
?parentChanged@QAbstractDeclarativeData@kso_qt@@2P6AXPAV12@PAVQObject@2@1@ZA
?parentContainerType@QCborStreamReader@kso_qt@@QBE?AW4Type@12@XZ
?parentMimeTypes@QMimeType@kso_qt@@QBE?AVQStringList@2@XZ
?parentState@QAbstractState@kso_qt@@QBEPAVQState@2@XZ
?parse@QCommandLineParser@kso_qt@@QAE_NABVQStringList@2@@Z
?parse@QDateTimeParser@kso_qt@@QBE?AUStateNode@12@VQString@2@HABVQDateTime@2@_N@Z
?parse@QLoggingRule@kso_qt@@AAEXABVQStringRef@2@@Z
?parseFormat@QDateTimeParser@kso_qt@@QAE_NABVQString@2@@Z
?parseIp4@QIPAddressUtils@kso_qt@@YA_NAAIPBVQChar@2@1@Z
?parseIp6@QIPAddressUtils@kso_qt@@YAPBVQChar@2@AAY0BA@EPBV32@1@Z
?parseNextLine@QLoggingSettingsParser@kso_qt@@AAEXVQStringRef@2@@Z
?parseSection@QDateTimeParser@kso_qt@@ABE?AUParsedSection@12@ABVQDateTime@2@HHPAVQString@2@@Z
?pass@QLoggingRule@kso_qt@@QBEHABVQString@2@W4QtMsgType@2@@Z
?password@QUrl@kso_qt@@QBE?AVQString@2@V?$QFlags@W4ComponentFormattingOption@QUrl@kso_qt@@@2@@Z
?path@QAbstractFileEngineIterator@kso_qt@@QBE?AVQString@2@XZ
?path@QDir@kso_qt@@QBE?AVQString@2@XZ
?path@QDirIterator@kso_qt@@QBE?AVQString@2@XZ
?path@QFileInfo@kso_qt@@QBE?AVQString@2@XZ
?path@QTemporaryDir@kso_qt@@QBE?AVQString@2@XZ
?path@QUrl@kso_qt@@QBE?AVQString@2@V?$QFlags@W4ComponentFormattingOption@QUrl@kso_qt@@@2@@Z
?pattern@QByteArrayMatcher@kso_qt@@QBE?AVQByteArray@2@XZ
?pattern@QRegExp@kso_qt@@QBE?AVQString@2@XZ
?pattern@QRegularExpression@kso_qt@@QBE?AVQString@2@XZ
?pattern@QStringMatcher@kso_qt@@QBE?AVQString@2@XZ
?patternErrorOffset@QRegularExpression@kso_qt@@QBEHXZ
?patternOptions@QRegularExpression@kso_qt@@QBE?AV?$QFlags@W4PatternOption@QRegularExpression@kso_qt@@@2@XZ
?patternSyntax@QRegExp@kso_qt@@QBE?AW4PatternSyntax@12@XZ
?pause@QAbstractAnimation@kso_qt@@QAEXXZ
?pause@QFutureWatcherBase@kso_qt@@QAEXXZ
?pauseAnimationTimer@QUnifiedTimer@kso_qt@@SAXPAVQAbstractAnimationTimer@2@H@Z
?paused@QFutureWatcherBase@kso_qt@@QAEXXZ
?peek@QIODevice@kso_qt@@QAE?AVQByteArray@2@_J@Z
?peek@QIODevice@kso_qt@@QAE_JPAD_J@Z
?peek@QIODevicePrivate@kso_qt@@UAE?AVQByteArray@2@_J@Z
?peek@QIODevicePrivate@kso_qt@@UAE_JPAD_J@Z
?peek@QRingBuffer@kso_qt@@QBE_JPAD_J1@Z
?peekNext@QRegularExpressionMatchIterator@kso_qt@@QBE?AVQRegularExpressionMatch@2@XZ
?percent@QLocale@kso_qt@@QBE?AVQChar@2@XZ
?percent@QLocalePrivate@kso_qt@@QBE?AVQChar@2@XZ
?period@QEasingCurve@kso_qt@@QBENXZ
?permission@QFileInfo@kso_qt@@QBE_NV?$QFlags@W4Permission@QFileDevice@kso_qt@@@2@@Z
?permissions@QFile@kso_qt@@SA?AV?$QFlags@W4Permission@QFileDevice@kso_qt@@@2@ABVQString@2@@Z
?permissions@QFile@kso_qt@@UBE?AV?$QFlags@W4Permission@QFileDevice@kso_qt@@@2@XZ
?permissions@QFileDevice@kso_qt@@UBE?AV?$QFlags@W4Permission@QFileDevice@kso_qt@@@2@XZ
?permissions@QFileInfo@kso_qt@@QBE?AV?$QFlags@W4Permission@QFileDevice@kso_qt@@@2@XZ
?permissions@QFileSystemMetaData@kso_qt@@QBE?AV?$QFlags@W4Permission@QFileDevice@kso_qt@@@2@XZ
?persistentIndexList@QAbstractItemModel@kso_qt@@IBE?AV?$QList@VQModelIndex@kso_qt@@@2@XZ
?pid@QProcess@kso_qt@@QBEPAU_PROCESS_INFORMATION@@XZ
?pipeClosed@QWindowsPipeReader@kso_qt@@QAEXXZ
?placeMetaCall@QMetaCallEvent@kso_qt@@UAEXPAVQObject@2@@Z
?platformPluginArguments@QLibraryInfo@kso_qt@@SA?AVQStringList@2@ABVQString@2@@Z
?platformSelectors@QFileSelectorPrivate@kso_qt@@SA?AVQStringList@2@XZ
?plus@QLocalePrivate@kso_qt@@QBE?AVQChar@2@XZ
?pmText@QLocale@kso_qt@@QBE?AVQString@2@XZ
?pointAt@QLineF@kso_qt@@QBE?AVQPointF@2@N@Z
?polished@QChildEvent@kso_qt@@QBE_NXZ
?pop_back@?$QList@VQItemSelectionRange@kso_qt@@@kso_qt@@QAEXXZ
?pop_back@?$QVector@VQPoint@kso_qt@@@kso_qt@@QAEXXZ
?pop_back@?$QVector@VQPointF@kso_qt@@@kso_qt@@QAEXXZ
?pop_back@?$QVector@VQXmlStreamAttribute@kso_qt@@@kso_qt@@QAEXXZ
?pop_back@QCborArray@kso_qt@@QAEXXZ
?pop_back@QJsonArray@kso_qt@@QAEXXZ
?pop_front@?$QList@VQItemSelectionRange@kso_qt@@@kso_qt@@QAEXXZ
?pop_front@?$QVector@VQPoint@kso_qt@@@kso_qt@@QAEXXZ
?pop_front@?$QVector@VQPointF@kso_qt@@@kso_qt@@QAEXXZ
?pop_front@?$QVector@VQXmlStreamAttribute@kso_qt@@@kso_qt@@QAEXXZ
?pop_front@QCborArray@kso_qt@@QAEXXZ
?pop_front@QJsonArray@kso_qt@@QAEXXZ
?port@QUrl@kso_qt@@QBEHH@Z
?pos@QAbstractFileEngine@kso_qt@@UBE_JXZ
?pos@QBuffer@kso_qt@@UBE_JXZ
?pos@QFSFileEngine@kso_qt@@UBE_JXZ
?pos@QFileDevice@kso_qt@@UBE_JXZ
?pos@QIODevice@kso_qt@@UBE_JXZ
?pos@QNonContiguousByteDevice@kso_qt@@UBE_JXZ
?pos@QRegExp@kso_qt@@QAEHH@Z
?pos@QRegExp@kso_qt@@QBEHH@Z
?pos@QTextStream@kso_qt@@QBE_JXZ
?posFdFh@QFSFileEnginePrivate@kso_qt@@QBE_JXZ
?position@QStringRef@kso_qt@@QBEHXZ
?position@QTextBoundaryFinder@kso_qt@@QBEHXZ
?position@QXmlStreamStringRef@kso_qt@@QBEHXZ
?positionalArguments@QCommandLineParser@kso_qt@@QBE?AVQStringList@2@XZ
?positiveSign@QLocale@kso_qt@@QBE?AVQChar@2@XZ
?postActivateSocketNotifiers@QEventDispatcherWin32Private@kso_qt@@QAEXXZ
?postDelayedEvent@QStateMachine@kso_qt@@QAEHPAVQEvent@2@H@Z
?postEvent@QCoreApplication@kso_qt@@SAXPAVQObject@2@PAVQEvent@2@H@Z
?postEvent@QStateMachine@kso_qt@@QAEXPAVQEvent@2@W4EventPriority@12@@Z
?postExternalEvent@QStateMachinePrivate@kso_qt@@QAEXPAVQEvent@2@@Z
?postInternalEvent@QStateMachinePrivate@kso_qt@@QAEXPAVQEvent@2@@Z
?potentialValue@QDateTimeParser@kso_qt@@ABE_NABVQString@2@HHHABVQDateTime@2@H@Z
?potentialValue@QDateTimeParser@kso_qt@@ABE_NABVQStringRef@2@HHHABVQDateTime@2@H@Z
?preferredAlignment@QMetaStringTable@kso_qt@@SAHXZ
?preferredSuffix@QMimeType@kso_qt@@QBE?AVQString@2@XZ
?prefix@QXmlStreamAttribute@kso_qt@@QBE?AVQStringRef@2@XZ
?prefix@QXmlStreamNamespaceDeclaration@kso_qt@@QBE?AVQStringRef@2@XZ
?prefix@QXmlStreamReader@kso_qt@@QBE?AVQStringRef@2@XZ
?preparse@QCborStreamReader@kso_qt@@AAEXXZ
?prepend@?$QList@VQItemSelectionRange@kso_qt@@@kso_qt@@QAEXABVQItemSelectionRange@2@@Z
?prepend@?$QVector@VQPoint@kso_qt@@@kso_qt@@QAEX$$QAVQPoint@2@@Z
?prepend@?$QVector@VQPoint@kso_qt@@@kso_qt@@QAEXABVQPoint@2@@Z
?prepend@?$QVector@VQPointF@kso_qt@@@kso_qt@@QAEX$$QAVQPointF@2@@Z
?prepend@?$QVector@VQPointF@kso_qt@@@kso_qt@@QAEXABVQPointF@2@@Z
?prepend@?$QVector@VQXmlStreamAttribute@kso_qt@@@kso_qt@@QAEX$$QAVQXmlStreamAttribute@2@@Z
?prepend@?$QVector@VQXmlStreamAttribute@kso_qt@@@kso_qt@@QAEXABVQXmlStreamAttribute@2@@Z
?prepend@QByteArray@kso_qt@@QAEAAV12@ABV12@@Z
?prepend@QByteArray@kso_qt@@QAEAAV12@D@Z
?prepend@QByteArray@kso_qt@@QAEAAV12@HD@Z
?prepend@QByteArray@kso_qt@@QAEAAV12@PBD@Z
?prepend@QByteArray@kso_qt@@QAEAAV12@PBDH@Z
?prepend@QCborArray@kso_qt@@QAEX$$QAVQCborValue@2@@Z
?prepend@QCborArray@kso_qt@@QAEXABVQCborValue@2@@Z
?prepend@QJsonArray@kso_qt@@QAEXABVQJsonValue@2@@Z
?prepend@QListData@kso_qt@@QAEPAPAXXZ
?prepend@QString@kso_qt@@QAEAAV12@ABV12@@Z
?prepend@QString@kso_qt@@QAEAAV12@ABVQByteArray@2@@Z
?prepend@QString@kso_qt@@QAEAAV12@ABVQStringRef@2@@Z
?prepend@QString@kso_qt@@QAEAAV12@PBD@Z
?prepend@QString@kso_qt@@QAEAAV12@PBVQChar@2@H@Z
?prepend@QString@kso_qt@@QAEAAV12@VQChar@2@@Z
?prepend@QString@kso_qt@@QAEAAV12@VQLatin1String@2@@Z
?prettyProductName@QSysInfo@kso_qt@@SA?AVQString@2@XZ
?previousNode@QHashData@kso_qt@@SAPAUNode@12@PAU312@@Z
?previousNode@QMapNodeBase@kso_qt@@QAEPAU12@XZ
?previousNode@QMapNodeBase@kso_qt@@QBEPBU12@XZ
?previousTransition@QTimeZone@kso_qt@@QBE?AUOffsetData@12@ABVQDateTime@2@@Z
?previousTransition@QTimeZonePrivate@kso_qt@@UBE?AUData@12@_J@Z
?previousTransition@QWinTimeZonePrivate@kso_qt@@UBE?AUData@QTimeZonePrivate@2@_J@Z
?priority@QThread@kso_qt@@QBE?AW4Priority@12@XZ
?process@QCommandLineParser@kso_qt@@QAEXABVQCoreApplication@2@@Z
?process@QCommandLineParser@kso_qt@@QAEXABVQStringList@2@@Z
?processChannelMode@QProcess@kso_qt@@QBE?AW4ProcessChannelMode@12@XZ
?processChild@QSettingsPrivate@kso_qt@@SAXVQStringRef@2@W4ChildSpec@12@AAVQStringList@2@@Z
?processCommandLineArguments@QCoreApplicationPrivate@kso_qt@@QAEXXZ
?processEnvironment@QProcess@kso_qt@@QBE?AVQProcessEnvironment@2@XZ
?processEvents@QCoreApplication@kso_qt@@SAXV?$QFlags@W4ProcessEventsFlag@QEventLoop@kso_qt@@@2@@Z
?processEvents@QCoreApplication@kso_qt@@SAXV?$QFlags@W4ProcessEventsFlag@QEventLoop@kso_qt@@@2@H@Z
?processEvents@QEventDispatcherWin32@kso_qt@@UAE_NV?$QFlags@W4ProcessEventsFlag@QEventLoop@kso_qt@@@2@@Z
?processEvents@QEventLoop@kso_qt@@QAEXV?$QFlags@W4ProcessEventsFlag@QEventLoop@kso_qt@@@2@H@Z
?processEvents@QEventLoop@kso_qt@@QAE_NV?$QFlags@W4ProcessEventsFlag@QEventLoop@kso_qt@@@2@@Z
?processEvents@QStateMachinePrivate@kso_qt@@QAEXW4EventProcessingMode@12@@Z
?processId@QProcess@kso_qt@@QBE_JXZ
?processNameByPid@QLockFilePrivate@kso_qt@@SA?AVQString@2@_J@Z
?processOpenModeFlags@kso_qt@@YA?AUProcessOpenModeResult@1@V?$QFlags@W4OpenModeFlag@QIODevice@kso_qt@@@1@@Z
?processedPendingEvents@QStateMachinePrivate@kso_qt@@UAEX_N@Z
?processingInstructionData@QXmlStreamReader@kso_qt@@QBE?AVQStringRef@2@XZ
?processingInstructionTarget@QXmlStreamReader@kso_qt@@QBE?AVQStringRef@2@XZ
?productType@QSysInfo@kso_qt@@SA?AVQString@2@XZ
?productVersion@QSysInfo@kso_qt@@SA?AVQString@2@XZ
?program@QProcess@kso_qt@@QBE?AVQString@2@XZ
?progressMaximum@QFutureInterfaceBase@kso_qt@@QBEHXZ
?progressMaximum@QFutureWatcherBase@kso_qt@@QBEHXZ
?progressMinimum@QFutureInterfaceBase@kso_qt@@QBEHXZ
?progressMinimum@QFutureWatcherBase@kso_qt@@QBEHXZ
?progressRangeChanged@QFutureWatcherBase@kso_qt@@QAEXHH@Z
?progressText@QFutureInterfaceBase@kso_qt@@QBE?AVQString@2@XZ
?progressText@QFutureWatcherBase@kso_qt@@QBE?AVQString@2@XZ
?progressTextChanged@QFutureWatcherBase@kso_qt@@QAEXABVQString@2@@Z
?progressValue@QFutureInterfaceBase@kso_qt@@QBEHXZ
?progressValue@QFutureWatcherBase@kso_qt@@QBEHXZ
?progressValueChanged@QFutureWatcherBase@kso_qt@@QAEXH@Z
?properties@QUnicodeTables@kso_qt@@YIPBUProperties@12@G@Z
?properties@QUnicodeTables@kso_qt@@YIPBUProperties@12@I@Z
?propertiesAssigned@QState@kso_qt@@QAEXUQPrivateSignal@12@@Z
?property@QMetaObject@kso_qt@@QBE?AVQMetaProperty@2@H@Z
?property@QMetaObjectBuilder@kso_qt@@QBE?AVQMetaPropertyBuilder@2@H@Z
?property@QObject@kso_qt@@QBE?AVQVariant@2@PBD@Z
?propertyCount@QMetaObject@kso_qt@@QBEHXZ
?propertyCount@QMetaObjectBuilder@kso_qt@@QBEHXZ
?propertyIndex@QMetaProperty@kso_qt@@QBEHXZ
?propertyName@QDynamicPropertyChangeEvent@kso_qt@@QBE?AVQByteArray@2@XZ
?propertyName@QPropertyAnimation@kso_qt@@QBE?AVQByteArray@2@XZ
?propertyOffset@QMetaObject@kso_qt@@QBEHXZ
?publicId@QXmlStreamEntityDeclaration@kso_qt@@QBE?AVQStringRef@2@XZ
?publicId@QXmlStreamNotationDeclaration@kso_qt@@QBE?AVQStringRef@2@XZ
?push_back@?$QList@VQItemSelectionRange@kso_qt@@@kso_qt@@QAEXABVQItemSelectionRange@2@@Z
?push_back@?$QVector@VQPoint@kso_qt@@@kso_qt@@QAEX$$QAVQPoint@2@@Z
?push_back@?$QVector@VQPoint@kso_qt@@@kso_qt@@QAEXABVQPoint@2@@Z
?push_back@?$QVector@VQPointF@kso_qt@@@kso_qt@@QAEX$$QAVQPointF@2@@Z
?push_back@?$QVector@VQPointF@kso_qt@@@kso_qt@@QAEXABVQPointF@2@@Z
?push_back@?$QVector@VQXmlStreamAttribute@kso_qt@@@kso_qt@@QAEX$$QAVQXmlStreamAttribute@2@@Z
?push_back@?$QVector@VQXmlStreamAttribute@kso_qt@@@kso_qt@@QAEXABVQXmlStreamAttribute@2@@Z
?push_back@QByteArray@kso_qt@@QAEXABV12@@Z
?push_back@QByteArray@kso_qt@@QAEXD@Z
?push_back@QByteArray@kso_qt@@QAEXPBD@Z
?push_back@QCborArray@kso_qt@@QAEXABVQCborValue@2@@Z
?push_back@QJsonArray@kso_qt@@QAEXABVQJsonValue@2@@Z
?push_back@QString@kso_qt@@QAEXABV12@@Z
?push_back@QString@kso_qt@@QAEXVQChar@2@@Z
?push_front@?$QList@VQItemSelectionRange@kso_qt@@@kso_qt@@QAEXABVQItemSelectionRange@2@@Z
?push_front@?$QVector@VQPoint@kso_qt@@@kso_qt@@QAEX$$QAVQPoint@2@@Z
?push_front@?$QVector@VQPoint@kso_qt@@@kso_qt@@QAEXABVQPoint@2@@Z
?push_front@?$QVector@VQPointF@kso_qt@@@kso_qt@@QAEX$$QAVQPointF@2@@Z
?push_front@?$QVector@VQPointF@kso_qt@@@kso_qt@@QAEXABVQPointF@2@@Z
?push_front@?$QVector@VQXmlStreamAttribute@kso_qt@@@kso_qt@@QAEX$$QAVQXmlStreamAttribute@2@@Z
?push_front@?$QVector@VQXmlStreamAttribute@kso_qt@@@kso_qt@@QAEXABVQXmlStreamAttribute@2@@Z
?push_front@QByteArray@kso_qt@@QAEXABV12@@Z
?push_front@QByteArray@kso_qt@@QAEXD@Z
?push_front@QByteArray@kso_qt@@QAEXPBD@Z
?push_front@QCborArray@kso_qt@@QAEXABVQCborValue@2@@Z
?push_front@QJsonArray@kso_qt@@QAEXABVQJsonValue@2@@Z
?push_front@QString@kso_qt@@QAEXABV12@@Z
?push_front@QString@kso_qt@@QAEXVQChar@2@@Z
?putByteArray@QDebug@kso_qt@@AAEXPBDIW4Latin1Content@12@@Z
?putChar@QIODevice@kso_qt@@QAE_ND@Z
?putCharHelper@QIODevicePrivate@kso_qt@@UAE_ND@Z
?putString@QDebug@kso_qt@@AAEXPBVQChar@2@I@Z
?putUcs4@QDebug@kso_qt@@AAEXI@Z
?qAddPostRoutine@kso_qt@@YAXP6AXXZ@Z
?qAddPreRoutine@kso_qt@@YAXP6AXXZ@Z
?qAppFileName@kso_qt@@YA?AVQString@1@XZ
?qAppName@kso_qt@@YA?AVQString@1@XZ
?qBadAlloc@kso_qt@@YAXXZ
?qCalculateBlockSize@kso_qt@@YAIIII@Z
?qCalculateGrowingBlockSize@kso_qt@@YA?AUCalculateGrowingBlockSizeResult@1@III@Z
?qChecksum@kso_qt@@YAGPBDI@Z
?qChecksum@kso_qt@@YAGPBDIW4ChecksumType@Qt@1@@Z
?qCleanupFuncinfo@kso_qt@@YA?AVQByteArray@1@V21@@Z
?qCompress@kso_qt@@YA?AVQByteArray@1@PBEHH@Z
?qDecodeDataUrl@kso_qt@@YA_NABVQUrl@1@AAVQString@1@AAVQByteArray@1@@Z
?qDeleteInEventHandler@kso_qt@@YAXPAVQObject@1@@Z
?qDetectCpuFeatures@kso_qt@@YAXXZ
?qEnvironmentVariable@kso_qt@@YA?AVQString@1@PBD@Z
?qEnvironmentVariable@kso_qt@@YA?AVQString@1@PBDABV21@@Z
?qEnvironmentVariableIntValue@kso_qt@@YAHPBDPA_N@Z
?qEnvironmentVariableIsEmpty@kso_qt@@YA_NPBD@Z
?qEnvironmentVariableIsSet@kso_qt@@YA_NPBD@Z
?qErrnoWarning@kso_qt@@YAXHPBDZZ
?qErrnoWarning@kso_qt@@YAXPBDZZ
?qFlagLocation@kso_qt@@YAPBDPBD@Z
?qFloatDistance@kso_qt@@YAIMM@Z
?qFloatDistance@kso_qt@@YA_KNN@Z
?qFloatFromFloat16@kso_qt@@YAXPAMPBVqfloat16@1@H@Z
?qFloatToFloat16@kso_qt@@YAXPAVqfloat16@1@PBMH@Z
?qFormatLogMessage@kso_qt@@YA?AVQString@1@W4QtMsgType@1@ABVQMessageLogContext@1@ABV21@@Z
?qFree@kso_qt@@YAXPAX@Z
?qFreeAligned@kso_qt@@YAXPAX@Z
?qGlobalPostedEventsCount@kso_qt@@YAIXZ
?qGlobalQHashSeed@kso_qt@@YAHXZ
?qHBApplySingleSubstitute@kso_qt@@YAIPAXI@Z
?qHBFreeFace@kso_qt@@YAXPAUHB_FaceRec_@@@Z
?qHBGSUBAddFeature@kso_qt@@YA?AW4HB_Error@@PAXII@Z
?qHBGSUBSelectScript@kso_qt@@YA?AW4HB_Error@@PAXIPAG@Z
?qHBLoadFace@kso_qt@@YAPAUHB_FaceRec_@@PAU2@@Z
?qHBNewFace@kso_qt@@YAPAUHB_FaceRec_@@PAXP6A?AW4HB_Error@@0IPAEPAI@Z@Z
?qHash@kso_qt@@YAIABVQBitArray@1@I@Z
?qHash@kso_qt@@YAIABVQByteArray@1@I@Z
?qHash@kso_qt@@YAIABVQCborArray@1@I@Z
?qHash@kso_qt@@YAIABVQCborMap@1@I@Z
?qHash@kso_qt@@YAIABVQCborValue@1@I@Z
?qHash@kso_qt@@YAIABVQDate@1@I@Z
?qHash@kso_qt@@YAIABVQDateTime@1@I@Z
?qHash@kso_qt@@YAIABVQJsonArray@1@I@Z
?qHash@kso_qt@@YAIABVQJsonObject@1@I@Z
?qHash@kso_qt@@YAIABVQJsonValue@1@I@Z
?qHash@kso_qt@@YAIABVQLocale@1@I@Z
?qHash@kso_qt@@YAIABVQMimeType@1@I@Z
?qHash@kso_qt@@YAIABVQRegExp@1@I@Z
?qHash@kso_qt@@YAIABVQRegularExpression@1@I@Z
?qHash@kso_qt@@YAIABVQString@1@I@Z
?qHash@kso_qt@@YAIABVQStringRef@1@I@Z
?qHash@kso_qt@@YAIABVQTime@1@I@Z
?qHash@kso_qt@@YAIABVQUrl@1@I@Z
?qHash@kso_qt@@YAIABVQUrlQuery@1@I@Z
?qHash@kso_qt@@YAIABVQUuid@1@I@Z
?qHash@kso_qt@@YAIABVQVersionNumber@1@I@Z
?qHash@kso_qt@@YAIMI@Z
?qHash@kso_qt@@YAINI@Z
?qHash@kso_qt@@YAIOI@Z
?qHash@kso_qt@@YAIVQLatin1String@1@I@Z
?qHash@kso_qt@@YAIVQStringView@1@I@Z
?qHashBits@kso_qt@@YAIPBXII@Z
?qInf@kso_qt@@YANXZ
?qInstallMessageHandler@kso_qt@@YAP6AXW4QtMsgType@1@ABVQMessageLogContext@1@ABVQString@1@@ZP6AX012@Z@Z
?qInstallMsgHandler@kso_qt@@YAP6AXW4QtMsgType@1@PBD@ZP6AX01@Z@Z
?qIsEffectiveTLD@kso_qt@@YA_NABVQStringRef@1@@Z
?qIsFinite@kso_qt@@YA_NM@Z
?qIsFinite@kso_qt@@YA_NN@Z
?qIsFinite@kso_qt@@YA_NVqfloat16@1@@Z
?qIsInf@kso_qt@@YA_NM@Z
?qIsInf@kso_qt@@YA_NN@Z
?qIsInf@kso_qt@@YA_NVqfloat16@1@@Z
?qIsNaN@kso_qt@@YA_NM@Z
?qIsNaN@kso_qt@@YA_NN@Z
?qIsNaN@kso_qt@@YA_NVqfloat16@1@@Z
?qMalloc@kso_qt@@YAPAXI@Z
?qMallocAligned@kso_qt@@YAPAXII@Z
?qMemCopy@kso_qt@@YAPAXPAXPBXI@Z
?qMemSet@kso_qt@@YAPAXPAXHI@Z
?qMetaObjectWidgetsHelper@kso_qt@@3PBUQMetaObject@1@B
?qMetaTypeGuiHelper@kso_qt@@3PBVQMetaTypeInterface@1@B
?qMetaTypeWidgetsHelper@kso_qt@@3PBVQMetaTypeInterface@1@B
?qModuleDirPath@kso_qt@@YA?AVQString@1@XZ
?qQNaN@kso_qt@@YANXZ
?qRandomCpu@kso_qt@@YAHPAXH@Z
?qRealloc@kso_qt@@YAPAXPAXI@Z
?qReallocAligned@kso_qt@@YAPAXPAXIII@Z
?qRegisterResourceData@kso_qt@@YA_NHPBE00@Z
?qRegisterStaticPluginFunction@kso_qt@@YAXUQStaticPlugin@1@@Z
?qRemovePostRoutine@kso_qt@@YAXP6AXXZ@Z
?qSNaN@kso_qt@@YANXZ
?qSetGlobalQHashSeed@kso_qt@@YAXH@Z
?qSetMessagePattern@kso_qt@@YAXABVQString@1@@Z
?qShapeItem@kso_qt@@YAEPAUHB_ShaperItem_@@@Z
?qSharedBuild@kso_qt@@YA_NXZ
?qSleep@QTestPrivate@kso_qt@@YAXH@Z
?qTerminate@kso_qt@@YAXXZ
?qTopLevelDomain@kso_qt@@YA?AVQString@1@ABV21@@Z
?qUncompress@kso_qt@@YA?AVQByteArray@1@PBEH@Z
?qUnregisterResourceData@kso_qt@@YA_NHPBE00@Z
?qVersion@kso_qt@@YAPBDXZ
?qWait@QTest@kso_qt@@YAXH@Z
?qWinAppCmdShow@kso_qt@@YAHXZ
?qWinAppInst@kso_qt@@YAPAUHINSTANCE__@@XZ
?qWinAppPrevInst@kso_qt@@YAPAUHINSTANCE__@@XZ
?q_func@QAbstractEventDispatcherPrivate@kso_qt@@AAEPAVQAbstractEventDispatcher@2@XZ
?q_func@QAbstractEventDispatcherPrivate@kso_qt@@ABEPBVQAbstractEventDispatcher@2@XZ
?q_func@QAbstractItemModelPrivate@kso_qt@@AAEPAVQAbstractItemModel@2@XZ
?q_func@QAbstractItemModelPrivate@kso_qt@@ABEPBVQAbstractItemModel@2@XZ
?q_func@QAbstractProxyModelPrivate@kso_qt@@AAEPAVQAbstractProxyModel@2@XZ
?q_func@QAbstractProxyModelPrivate@kso_qt@@ABEPBVQAbstractProxyModel@2@XZ
?q_func@QAbstractTransitionPrivate@kso_qt@@AAEPAVQAbstractTransition@2@XZ
?q_func@QAbstractTransitionPrivate@kso_qt@@ABEPBVQAbstractTransition@2@XZ
?q_func@QCoreApplicationPrivate@kso_qt@@AAEPAVQCoreApplication@2@XZ
?q_func@QCoreApplicationPrivate@kso_qt@@ABEPBVQCoreApplication@2@XZ
?q_func@QEventDispatcherWin32Private@kso_qt@@AAEPAVQEventDispatcherWin32@2@XZ
?q_func@QEventDispatcherWin32Private@kso_qt@@ABEPBVQEventDispatcherWin32@2@XZ
?q_func@QEventTransitionPrivate@kso_qt@@AAEPAVQEventTransition@2@XZ
?q_func@QEventTransitionPrivate@kso_qt@@ABEPBVQEventTransition@2@XZ
?q_func@QFSFileEnginePrivate@kso_qt@@AAEPAVQFSFileEngine@2@XZ
?q_func@QFSFileEnginePrivate@kso_qt@@ABEPBVQFSFileEngine@2@XZ
?q_func@QFileSelectorPrivate@kso_qt@@AAEPAVQFileSelector@2@XZ
?q_func@QFileSelectorPrivate@kso_qt@@ABEPBVQFileSelector@2@XZ
?q_func@QFinalStatePrivate@kso_qt@@AAEPAVQFinalState@2@XZ
?q_func@QFinalStatePrivate@kso_qt@@ABEPBVQFinalState@2@XZ
?q_func@QIODevicePrivate@kso_qt@@AAEPAVQIODevice@2@XZ
?q_func@QIODevicePrivate@kso_qt@@ABEPBVQIODevice@2@XZ
?q_func@QObjectPrivate@kso_qt@@AAEPAVQObject@2@XZ
?q_func@QObjectPrivate@kso_qt@@ABEPBVQObject@2@XZ
?q_func@QSettingsPrivate@kso_qt@@AAEPAVQSettings@2@XZ
?q_func@QSettingsPrivate@kso_qt@@ABEPBVQSettings@2@XZ
?q_func@QSharedMemoryPrivate@kso_qt@@AAEPAVQSharedMemory@2@XZ
?q_func@QSharedMemoryPrivate@kso_qt@@ABEPBVQSharedMemory@2@XZ
?q_func@QStateMachinePrivate@kso_qt@@AAEPAVQStateMachine@2@XZ
?q_func@QStateMachinePrivate@kso_qt@@ABEPBVQStateMachine@2@XZ
?q_func@QStatePrivate@kso_qt@@AAEPAVQState@2@XZ
?q_func@QStatePrivate@kso_qt@@ABEPBVQState@2@XZ
?q_func@QThreadPoolPrivate@kso_qt@@AAEPAVQThreadPool@2@XZ
?q_func@QThreadPoolPrivate@kso_qt@@ABEPBVQThreadPool@2@XZ
?qcoreStateMachineHandler@kso_qt@@YAPBUHandler@QStateMachinePrivate@1@XZ
?qcoreVariantHandler@kso_qt@@YAPBUHandler@QVariant@1@XZ
?qdtoa@kso_qt@@YA?AVQString@1@NPAH0@Z
?qgetenv@kso_qt@@YA?AVQByteArray@1@PBD@Z
?qmime_secondsBetweenChecks@kso_qt@@3HA
?qmljsDebugArgumentsString@QCoreApplicationPrivate@kso_qt@@QAE?AVQString@2@XZ
?qputenv@kso_qt@@YA_NPBDABVQByteArray@1@@Z
?qrand@kso_qt@@YAHXZ
?qsnprintf@kso_qt@@YAHPADIPBDZZ
?qsrand@kso_qt@@YAXI@Z
?qstrcmp@kso_qt@@YAHABVQByteArray@1@0@Z
?qstrcmp@kso_qt@@YAHABVQByteArray@1@PBD@Z
?qstrcmp@kso_qt@@YAHPBD0@Z
?qstrcpy@kso_qt@@YAPADPADPBD@Z
?qstrdup@kso_qt@@YAPADPBD@Z
?qstricmp@kso_qt@@YAHPBD0@Z
?qstrncpy@kso_qt@@YAPADPADPBDI@Z
?qstrnicmp@kso_qt@@YAHPBD0I@Z
?qstrnicmp@kso_qt@@YAHPBDH0H@Z
?qstrntod@kso_qt@@YANPBDHPAPBDPA_N@Z
?qstrtod@kso_qt@@YANPBDPAPBDPA_N@Z
?qtHookData@kso_qt@@3PAIA
?qtTrId@kso_qt@@YA?AVQString@1@PBDH@Z
?qt_QMetaEnum_debugOperator@kso_qt@@YA?AVQDebug@1@AAV21@HPBUQMetaObject@1@PBD@Z
?qt_QMetaEnum_flagDebugOperator@kso_qt@@YA?AVQDebug@1@AAV21@_KPBUQMetaObject@1@PBD@Z
?qt_QMetaEnum_flagDebugOperator@kso_qt@@YAXAAVQDebug@1@IH@Z
?qt_applicationName_noFallback@kso_qt@@YA?AVQString@1@XZ
?qt_assert@kso_qt@@YAXPBD0H@Z
?qt_assert_x@kso_qt@@YAXPBD00H@Z
?qt_call_post_routines@kso_qt@@YAXXZ
?qt_cbor_simpletype_id@kso_qt@@YAPBDW4QCborSimpleType@1@@Z
?qt_cbor_tag_id@kso_qt@@YAPBDW4QCborTag@1@@Z
?qt_check_pointer@kso_qt@@YAXPBDH@Z
?qt_check_std3rules@kso_qt@@YA_NPBVQChar@1@H@Z
?qt_cpu_features@kso_qt@@3PAV?$QBasicAtomicInteger@_K@1@A
?qt_error_string@kso_qt@@YA?AVQString@1@H@Z
?qt_hash@kso_qt@@YAIVQStringView@1@I@Z
?qt_initcharattributes_default_algorithm_only@kso_qt@@3HA
?qt_int_sqrt@kso_qt@@YAII@Z
?qt_localeFromLCID@kso_qt@@YA?AVQLocale@1@K@Z
?qt_message_output@kso_qt@@YAXW4QtMsgType@1@ABVQMessageLogContext@1@ABVQString@1@@Z
?qt_metacall@QAbstractAnimation@kso_qt@@UAEHW4Call@QMetaObject@2@HPAPAX@Z
?qt_metacall@QAbstractAnimationTimer@kso_qt@@UAEHW4Call@QMetaObject@2@HPAPAX@Z
?qt_metacall@QAbstractEventDispatcher@kso_qt@@UAEHW4Call@QMetaObject@2@HPAPAX@Z
?qt_metacall@QAbstractItemModel@kso_qt@@UAEHW4Call@QMetaObject@2@HPAPAX@Z
?qt_metacall@QAbstractListModel@kso_qt@@UAEHW4Call@QMetaObject@2@HPAPAX@Z
?qt_metacall@QAbstractProxyModel@kso_qt@@UAEHW4Call@QMetaObject@2@HPAPAX@Z
?qt_metacall@QAbstractState@kso_qt@@UAEHW4Call@QMetaObject@2@HPAPAX@Z
?qt_metacall@QAbstractTableModel@kso_qt@@UAEHW4Call@QMetaObject@2@HPAPAX@Z
?qt_metacall@QAbstractTransition@kso_qt@@UAEHW4Call@QMetaObject@2@HPAPAX@Z
?qt_metacall@QAnimationDriver@kso_qt@@UAEHW4Call@QMetaObject@2@HPAPAX@Z
?qt_metacall@QAnimationGroup@kso_qt@@UAEHW4Call@QMetaObject@2@HPAPAX@Z
?qt_metacall@QBuffer@kso_qt@@UAEHW4Call@QMetaObject@2@HPAPAX@Z
?qt_metacall@QCoreApplication@kso_qt@@UAEHW4Call@QMetaObject@2@HPAPAX@Z
?qt_metacall@QEventDispatcherWin32@kso_qt@@UAEHW4Call@QMetaObject@2@HPAPAX@Z
?qt_metacall@QEventLoop@kso_qt@@UAEHW4Call@QMetaObject@2@HPAPAX@Z
?qt_metacall@QEventTransition@kso_qt@@UAEHW4Call@QMetaObject@2@HPAPAX@Z
?qt_metacall@QFactoryLoader@kso_qt@@UAEHW4Call@QMetaObject@2@HPAPAX@Z
?qt_metacall@QFile@kso_qt@@UAEHW4Call@QMetaObject@2@HPAPAX@Z
?qt_metacall@QFileDevice@kso_qt@@UAEHW4Call@QMetaObject@2@HPAPAX@Z
?qt_metacall@QFileSelector@kso_qt@@UAEHW4Call@QMetaObject@2@HPAPAX@Z
?qt_metacall@QFileSystemWatcher@kso_qt@@UAEHW4Call@QMetaObject@2@HPAPAX@Z
?qt_metacall@QFinalState@kso_qt@@UAEHW4Call@QMetaObject@2@HPAPAX@Z
?qt_metacall@QFutureWatcherBase@kso_qt@@UAEHW4Call@QMetaObject@2@HPAPAX@Z
?qt_metacall@QHistoryState@kso_qt@@UAEHW4Call@QMetaObject@2@HPAPAX@Z
?qt_metacall@QIODevice@kso_qt@@UAEHW4Call@QMetaObject@2@HPAPAX@Z
?qt_metacall@QIdentityProxyModel@kso_qt@@UAEHW4Call@QMetaObject@2@HPAPAX@Z
?qt_metacall@QItemSelectionModel@kso_qt@@UAEHW4Call@QMetaObject@2@HPAPAX@Z
?qt_metacall@QLibrary@kso_qt@@UAEHW4Call@QMetaObject@2@HPAPAX@Z
?qt_metacall@QMimeData@kso_qt@@UAEHW4Call@QMetaObject@2@HPAPAX@Z
?qt_metacall@QNonContiguousByteDevice@kso_qt@@UAEHW4Call@QMetaObject@2@HPAPAX@Z
?qt_metacall@QObject@kso_qt@@UAEHW4Call@QMetaObject@2@HPAPAX@Z
?qt_metacall@QObjectCleanupHandler@kso_qt@@UAEHW4Call@QMetaObject@2@HPAPAX@Z
?qt_metacall@QParallelAnimationGroup@kso_qt@@UAEHW4Call@QMetaObject@2@HPAPAX@Z
?qt_metacall@QPauseAnimation@kso_qt@@UAEHW4Call@QMetaObject@2@HPAPAX@Z
?qt_metacall@QPluginLoader@kso_qt@@UAEHW4Call@QMetaObject@2@HPAPAX@Z
?qt_metacall@QProcess@kso_qt@@UAEHW4Call@QMetaObject@2@HPAPAX@Z
?qt_metacall@QPropertyAnimation@kso_qt@@UAEHW4Call@QMetaObject@2@HPAPAX@Z
?qt_metacall@QSaveFile@kso_qt@@UAEHW4Call@QMetaObject@2@HPAPAX@Z
?qt_metacall@QSequentialAnimationGroup@kso_qt@@UAEHW4Call@QMetaObject@2@HPAPAX@Z
?qt_metacall@QSettings@kso_qt@@UAEHW4Call@QMetaObject@2@HPAPAX@Z
?qt_metacall@QSharedMemory@kso_qt@@UAEHW4Call@QMetaObject@2@HPAPAX@Z
?qt_metacall@QSignalMapper@kso_qt@@UAEHW4Call@QMetaObject@2@HPAPAX@Z
?qt_metacall@QSignalTransition@kso_qt@@UAEHW4Call@QMetaObject@2@HPAPAX@Z
?qt_metacall@QSocketNotifier@kso_qt@@UAEHW4Call@QMetaObject@2@HPAPAX@Z
?qt_metacall@QSortFilterProxyModel@kso_qt@@UAEHW4Call@QMetaObject@2@HPAPAX@Z
?qt_metacall@QState@kso_qt@@UAEHW4Call@QMetaObject@2@HPAPAX@Z
?qt_metacall@QStateMachine@kso_qt@@UAEHW4Call@QMetaObject@2@HPAPAX@Z
?qt_metacall@QStringListModel@kso_qt@@UAEHW4Call@QMetaObject@2@HPAPAX@Z
?qt_metacall@QTemporaryFile@kso_qt@@UAEHW4Call@QMetaObject@2@HPAPAX@Z
?qt_metacall@QThread@kso_qt@@UAEHW4Call@QMetaObject@2@HPAPAX@Z
?qt_metacall@QThreadPool@kso_qt@@UAEHW4Call@QMetaObject@2@HPAPAX@Z
?qt_metacall@QTimeLine@kso_qt@@UAEHW4Call@QMetaObject@2@HPAPAX@Z
?qt_metacall@QTimer@kso_qt@@UAEHW4Call@QMetaObject@2@HPAPAX@Z
?qt_metacall@QTranslator@kso_qt@@UAEHW4Call@QMetaObject@2@HPAPAX@Z
?qt_metacall@QUnifiedTimer@kso_qt@@UAEHW4Call@QMetaObject@2@HPAPAX@Z
?qt_metacall@QVariantAnimation@kso_qt@@UAEHW4Call@QMetaObject@2@HPAPAX@Z
?qt_metacall@QWinEventNotifier@kso_qt@@UAEHW4Call@QMetaObject@2@HPAPAX@Z
?qt_metacall@QWindowsPipeReader@kso_qt@@UAEHW4Call@QMetaObject@2@HPAPAX@Z
?qt_metacall@QWindowsPipeWriter@kso_qt@@UAEHW4Call@QMetaObject@2@HPAPAX@Z
?qt_metacast@QAbstractAnimation@kso_qt@@UAEPAXPBD@Z
?qt_metacast@QAbstractAnimationTimer@kso_qt@@UAEPAXPBD@Z
?qt_metacast@QAbstractEventDispatcher@kso_qt@@UAEPAXPBD@Z
?qt_metacast@QAbstractItemModel@kso_qt@@UAEPAXPBD@Z
?qt_metacast@QAbstractListModel@kso_qt@@UAEPAXPBD@Z
?qt_metacast@QAbstractProxyModel@kso_qt@@UAEPAXPBD@Z
?qt_metacast@QAbstractState@kso_qt@@UAEPAXPBD@Z
?qt_metacast@QAbstractTableModel@kso_qt@@UAEPAXPBD@Z
?qt_metacast@QAbstractTransition@kso_qt@@UAEPAXPBD@Z
?qt_metacast@QAnimationDriver@kso_qt@@UAEPAXPBD@Z
?qt_metacast@QAnimationGroup@kso_qt@@UAEPAXPBD@Z
?qt_metacast@QBuffer@kso_qt@@UAEPAXPBD@Z
?qt_metacast@QCoreApplication@kso_qt@@UAEPAXPBD@Z
?qt_metacast@QEventDispatcherWin32@kso_qt@@UAEPAXPBD@Z
?qt_metacast@QEventLoop@kso_qt@@UAEPAXPBD@Z
?qt_metacast@QEventTransition@kso_qt@@UAEPAXPBD@Z
?qt_metacast@QFactoryLoader@kso_qt@@UAEPAXPBD@Z
?qt_metacast@QFile@kso_qt@@UAEPAXPBD@Z
?qt_metacast@QFileDevice@kso_qt@@UAEPAXPBD@Z
?qt_metacast@QFileSelector@kso_qt@@UAEPAXPBD@Z
?qt_metacast@QFileSystemWatcher@kso_qt@@UAEPAXPBD@Z
?qt_metacast@QFinalState@kso_qt@@UAEPAXPBD@Z
?qt_metacast@QFutureWatcherBase@kso_qt@@UAEPAXPBD@Z
?qt_metacast@QHistoryState@kso_qt@@UAEPAXPBD@Z
?qt_metacast@QIODevice@kso_qt@@UAEPAXPBD@Z
?qt_metacast@QIdentityProxyModel@kso_qt@@UAEPAXPBD@Z
?qt_metacast@QItemSelectionModel@kso_qt@@UAEPAXPBD@Z
?qt_metacast@QLibrary@kso_qt@@UAEPAXPBD@Z
?qt_metacast@QMimeData@kso_qt@@UAEPAXPBD@Z
?qt_metacast@QNonContiguousByteDevice@kso_qt@@UAEPAXPBD@Z
?qt_metacast@QObject@kso_qt@@UAEPAXPBD@Z
?qt_metacast@QObjectCleanupHandler@kso_qt@@UAEPAXPBD@Z
?qt_metacast@QParallelAnimationGroup@kso_qt@@UAEPAXPBD@Z
?qt_metacast@QPauseAnimation@kso_qt@@UAEPAXPBD@Z
?qt_metacast@QPluginLoader@kso_qt@@UAEPAXPBD@Z
?qt_metacast@QProcess@kso_qt@@UAEPAXPBD@Z
?qt_metacast@QPropertyAnimation@kso_qt@@UAEPAXPBD@Z
?qt_metacast@QSaveFile@kso_qt@@UAEPAXPBD@Z
?qt_metacast@QSequentialAnimationGroup@kso_qt@@UAEPAXPBD@Z
?qt_metacast@QSettings@kso_qt@@UAEPAXPBD@Z
?qt_metacast@QSharedMemory@kso_qt@@UAEPAXPBD@Z
?qt_metacast@QSignalMapper@kso_qt@@UAEPAXPBD@Z
?qt_metacast@QSignalTransition@kso_qt@@UAEPAXPBD@Z
?qt_metacast@QSocketNotifier@kso_qt@@UAEPAXPBD@Z
?qt_metacast@QSortFilterProxyModel@kso_qt@@UAEPAXPBD@Z
?qt_metacast@QState@kso_qt@@UAEPAXPBD@Z
?qt_metacast@QStateMachine@kso_qt@@UAEPAXPBD@Z
?qt_metacast@QStringListModel@kso_qt@@UAEPAXPBD@Z
?qt_metacast@QTemporaryFile@kso_qt@@UAEPAXPBD@Z
?qt_metacast@QThread@kso_qt@@UAEPAXPBD@Z
?qt_metacast@QThreadPool@kso_qt@@UAEPAXPBD@Z
?qt_metacast@QTimeLine@kso_qt@@UAEPAXPBD@Z
?qt_metacast@QTimer@kso_qt@@UAEPAXPBD@Z
?qt_metacast@QTranslator@kso_qt@@UAEPAXPBD@Z
?qt_metacast@QUnifiedTimer@kso_qt@@UAEPAXPBD@Z
?qt_metacast@QVariantAnimation@kso_qt@@UAEPAXPBD@Z
?qt_metacast@QWinEventNotifier@kso_qt@@UAEPAXPBD@Z
?qt_metacast@QWindowsPipeReader@kso_qt@@UAEPAXPBD@Z
?qt_metacast@QWindowsPipeWriter@kso_qt@@UAEPAXPBD@Z
?qt_nameprep@kso_qt@@YA_NPAVQString@1@H@Z
?qt_normalizePathSegments@kso_qt@@YA?AVQString@1@ABV21@V?$QFlags@W4PathNormalization@QDirPrivate@kso_qt@@@1@PA_N@Z
?qt_ntfs_permission_lookup@kso_qt@@3HA
?qt_punycodeDecoder@kso_qt@@YA?AVQString@1@ABV21@@Z
?qt_punycodeEncoder@kso_qt@@YAXPBVQChar@1@HPAVQString@1@@Z
?qt_qFindChild_helper@kso_qt@@YAPAVQObject@1@PBV21@ABVQString@1@ABUQMetaObject@1@V?$QFlags@W4FindChildOption@Qt@kso_qt@@@1@@Z
?qt_qFindChildren_helper@kso_qt@@YAXPBVQObject@1@ABVQRegExp@1@ABUQMetaObject@1@PAV?$QList@PAX@1@V?$QFlags@W4FindChildOption@Qt@kso_qt@@@1@@Z
?qt_qFindChildren_helper@kso_qt@@YAXPBVQObject@1@ABVQRegularExpression@1@ABUQMetaObject@1@PAV?$QList@PAX@1@V?$QFlags@W4FindChildOption@Qt@kso_qt@@@1@@Z
?qt_qFindChildren_helper@kso_qt@@YAXPBVQObject@1@ABVQString@1@ABUQMetaObject@1@PAV?$QList@PAX@1@V?$QFlags@W4FindChildOption@Qt@kso_qt@@@1@@Z
?qt_randomdevice_control@kso_qt@@3V?$QBasicAtomicInteger@I@1@A
?qt_regexp_toCanonical@kso_qt@@YA?AVQString@1@ABV21@W4PatternSyntax@QRegExp@1@@Z
?qt_register_signal_spy_callbacks@kso_qt@@YAXABUQSignalSpyCallbackSet@1@@Z
?qt_signal_spy_callback_set@kso_qt@@3UQSignalSpyCallbackSet@1@A
?qt_sine_table@kso_qt@@3QBNB
?qt_static_metacall@QAbstractAnimation@kso_qt@@CAXPAVQObject@2@W4Call@QMetaObject@2@HPAPAX@Z
?qt_static_metacall@QAbstractAnimationTimer@kso_qt@@CAXPAVQObject@2@W4Call@QMetaObject@2@HPAPAX@Z
?qt_static_metacall@QAbstractEventDispatcher@kso_qt@@CAXPAVQObject@2@W4Call@QMetaObject@2@HPAPAX@Z
?qt_static_metacall@QAbstractItemModel@kso_qt@@CAXPAVQObject@2@W4Call@QMetaObject@2@HPAPAX@Z
?qt_static_metacall@QAbstractListModel@kso_qt@@CAXPAVQObject@2@W4Call@QMetaObject@2@HPAPAX@Z
?qt_static_metacall@QAbstractProxyModel@kso_qt@@CAXPAVQObject@2@W4Call@QMetaObject@2@HPAPAX@Z
?qt_static_metacall@QAbstractState@kso_qt@@CAXPAVQObject@2@W4Call@QMetaObject@2@HPAPAX@Z
?qt_static_metacall@QAbstractTableModel@kso_qt@@CAXPAVQObject@2@W4Call@QMetaObject@2@HPAPAX@Z
?qt_static_metacall@QAbstractTransition@kso_qt@@CAXPAVQObject@2@W4Call@QMetaObject@2@HPAPAX@Z
?qt_static_metacall@QAnimationDriver@kso_qt@@CAXPAVQObject@2@W4Call@QMetaObject@2@HPAPAX@Z
?qt_static_metacall@QAnimationGroup@kso_qt@@CAXPAVQObject@2@W4Call@QMetaObject@2@HPAPAX@Z
?qt_static_metacall@QBuffer@kso_qt@@CAXPAVQObject@2@W4Call@QMetaObject@2@HPAPAX@Z
?qt_static_metacall@QCoreApplication@kso_qt@@CAXPAVQObject@2@W4Call@QMetaObject@2@HPAPAX@Z
?qt_static_metacall@QEventDispatcherWin32@kso_qt@@CAXPAVQObject@2@W4Call@QMetaObject@2@HPAPAX@Z
?qt_static_metacall@QEventLoop@kso_qt@@CAXPAVQObject@2@W4Call@QMetaObject@2@HPAPAX@Z
?qt_static_metacall@QEventTransition@kso_qt@@CAXPAVQObject@2@W4Call@QMetaObject@2@HPAPAX@Z
?qt_static_metacall@QFactoryLoader@kso_qt@@CAXPAVQObject@2@W4Call@QMetaObject@2@HPAPAX@Z
?qt_static_metacall@QFile@kso_qt@@CAXPAVQObject@2@W4Call@QMetaObject@2@HPAPAX@Z
?qt_static_metacall@QFileDevice@kso_qt@@CAXPAVQObject@2@W4Call@QMetaObject@2@HPAPAX@Z
?qt_static_metacall@QFileSelector@kso_qt@@CAXPAVQObject@2@W4Call@QMetaObject@2@HPAPAX@Z
?qt_static_metacall@QFileSystemWatcher@kso_qt@@CAXPAVQObject@2@W4Call@QMetaObject@2@HPAPAX@Z
?qt_static_metacall@QFinalState@kso_qt@@CAXPAVQObject@2@W4Call@QMetaObject@2@HPAPAX@Z
?qt_static_metacall@QFutureWatcherBase@kso_qt@@CAXPAVQObject@2@W4Call@QMetaObject@2@HPAPAX@Z
?qt_static_metacall@QHistoryState@kso_qt@@CAXPAVQObject@2@W4Call@QMetaObject@2@HPAPAX@Z
?qt_static_metacall@QIODevice@kso_qt@@CAXPAVQObject@2@W4Call@QMetaObject@2@HPAPAX@Z
?qt_static_metacall@QIdentityProxyModel@kso_qt@@CAXPAVQObject@2@W4Call@QMetaObject@2@HPAPAX@Z
?qt_static_metacall@QItemSelectionModel@kso_qt@@CAXPAVQObject@2@W4Call@QMetaObject@2@HPAPAX@Z
?qt_static_metacall@QLibrary@kso_qt@@CAXPAVQObject@2@W4Call@QMetaObject@2@HPAPAX@Z
?qt_static_metacall@QMimeData@kso_qt@@CAXPAVQObject@2@W4Call@QMetaObject@2@HPAPAX@Z
?qt_static_metacall@QMimeType@kso_qt@@CAXPAVQObject@2@W4Call@QMetaObject@2@HPAPAX@Z
?qt_static_metacall@QNonContiguousByteDevice@kso_qt@@CAXPAVQObject@2@W4Call@QMetaObject@2@HPAPAX@Z
?qt_static_metacall@QObject@kso_qt@@CAXPAV12@W4Call@QMetaObject@2@HPAPAX@Z
?qt_static_metacall@QObjectCleanupHandler@kso_qt@@CAXPAVQObject@2@W4Call@QMetaObject@2@HPAPAX@Z
?qt_static_metacall@QParallelAnimationGroup@kso_qt@@CAXPAVQObject@2@W4Call@QMetaObject@2@HPAPAX@Z
?qt_static_metacall@QPauseAnimation@kso_qt@@CAXPAVQObject@2@W4Call@QMetaObject@2@HPAPAX@Z
?qt_static_metacall@QPluginLoader@kso_qt@@CAXPAVQObject@2@W4Call@QMetaObject@2@HPAPAX@Z
?qt_static_metacall@QProcess@kso_qt@@CAXPAVQObject@2@W4Call@QMetaObject@2@HPAPAX@Z
?qt_static_metacall@QPropertyAnimation@kso_qt@@CAXPAVQObject@2@W4Call@QMetaObject@2@HPAPAX@Z
?qt_static_metacall@QSaveFile@kso_qt@@CAXPAVQObject@2@W4Call@QMetaObject@2@HPAPAX@Z
?qt_static_metacall@QSequentialAnimationGroup@kso_qt@@CAXPAVQObject@2@W4Call@QMetaObject@2@HPAPAX@Z
?qt_static_metacall@QSettings@kso_qt@@CAXPAVQObject@2@W4Call@QMetaObject@2@HPAPAX@Z
?qt_static_metacall@QSharedMemory@kso_qt@@CAXPAVQObject@2@W4Call@QMetaObject@2@HPAPAX@Z
?qt_static_metacall@QSignalMapper@kso_qt@@CAXPAVQObject@2@W4Call@QMetaObject@2@HPAPAX@Z
?qt_static_metacall@QSignalTransition@kso_qt@@CAXPAVQObject@2@W4Call@QMetaObject@2@HPAPAX@Z
?qt_static_metacall@QSocketNotifier@kso_qt@@CAXPAVQObject@2@W4Call@QMetaObject@2@HPAPAX@Z
?qt_static_metacall@QSortFilterProxyModel@kso_qt@@CAXPAVQObject@2@W4Call@QMetaObject@2@HPAPAX@Z
?qt_static_metacall@QState@kso_qt@@CAXPAVQObject@2@W4Call@QMetaObject@2@HPAPAX@Z
?qt_static_metacall@QStateMachine@kso_qt@@CAXPAVQObject@2@W4Call@QMetaObject@2@HPAPAX@Z
?qt_static_metacall@QStringListModel@kso_qt@@CAXPAVQObject@2@W4Call@QMetaObject@2@HPAPAX@Z
?qt_static_metacall@QTemporaryFile@kso_qt@@CAXPAVQObject@2@W4Call@QMetaObject@2@HPAPAX@Z
?qt_static_metacall@QThread@kso_qt@@CAXPAVQObject@2@W4Call@QMetaObject@2@HPAPAX@Z
?qt_static_metacall@QThreadPool@kso_qt@@CAXPAVQObject@2@W4Call@QMetaObject@2@HPAPAX@Z
?qt_static_metacall@QTimeLine@kso_qt@@CAXPAVQObject@2@W4Call@QMetaObject@2@HPAPAX@Z
?qt_static_metacall@QTimer@kso_qt@@CAXPAVQObject@2@W4Call@QMetaObject@2@HPAPAX@Z
?qt_static_metacall@QTranslator@kso_qt@@CAXPAVQObject@2@W4Call@QMetaObject@2@HPAPAX@Z
?qt_static_metacall@QUnifiedTimer@kso_qt@@CAXPAVQObject@2@W4Call@QMetaObject@2@HPAPAX@Z
?qt_static_metacall@QVariantAnimation@kso_qt@@CAXPAVQObject@2@W4Call@QMetaObject@2@HPAPAX@Z
?qt_static_metacall@QWinEventNotifier@kso_qt@@CAXPAVQObject@2@W4Call@QMetaObject@2@HPAPAX@Z
?qt_static_metacall@QWindowsPipeReader@kso_qt@@CAXPAVQObject@2@W4Call@QMetaObject@2@HPAPAX@Z
?qt_static_metacall@QWindowsPipeWriter@kso_qt@@CAXPAVQObject@2@W4Call@QMetaObject@2@HPAPAX@Z
?qt_subtract_from_timeout@kso_qt@@YAHHH@Z
?qt_urlRecode@kso_qt@@YAHAAVQString@1@PBVQChar@1@1V?$QFlags@W4ComponentFormattingOption@QUrl@kso_qt@@@1@PBG@Z
?qt_urlRecodeByteArray@kso_qt@@YA?AVQString@1@ABVQByteArray@1@@Z
?qualifiedName@QXmlStreamAttribute@kso_qt@@QBE?AVQStringRef@2@XZ
?qualifiedName@QXmlStreamReader@kso_qt@@QBE?AVQStringRef@2@XZ
?query@QSystemLocale@kso_qt@@UBE?AVQVariant@2@W4QueryType@12@V32@@Z
?query@QUrl@kso_qt@@QBE?AVQString@2@V?$QFlags@W4ComponentFormattingOption@QUrl@kso_qt@@@2@@Z
?query@QUrlQuery@kso_qt@@QBE?AVQString@2@V?$QFlags@W4ComponentFormattingOption@QUrl@kso_qt@@@2@@Z
?queryItemValue@QUrl@kso_qt@@QBE?AVQString@2@ABV32@@Z
?queryItemValue@QUrlQuery@kso_qt@@QBE?AVQString@2@ABV32@V?$QFlags@W4ComponentFormattingOption@QUrl@kso_qt@@@2@@Z
?queryItems@QUrl@kso_qt@@QBE?AV?$QList@U?$QPair@VQString@kso_qt@@V12@@kso_qt@@@2@XZ
?queryItems@QUrlQuery@kso_qt@@QBE?AV?$QList@U?$QPair@VQString@kso_qt@@V12@@kso_qt@@@2@V?$QFlags@W4ComponentFormattingOption@QUrl@kso_qt@@@2@@Z
?queryPairDelimiter@QUrlQuery@kso_qt@@QBE?AVQChar@2@XZ
?queryState@QFutureInterfaceBase@kso_qt@@QBE_NW4State@12@@Z
?queryValueDelimiter@QUrlQuery@kso_qt@@QBE?AVQChar@2@XZ
?quit@QCoreApplication@kso_qt@@SAXXZ
?quit@QEventLoop@kso_qt@@QAEXXZ
?quit@QThread@kso_qt@@QAEXXZ
?qunsetenv@kso_qt@@YA_NPBD@Z
?quote@QDebug@kso_qt@@QAEAAV12@XZ
?quoteString@QLocale@kso_qt@@QBE?AVQString@2@ABV32@W4QuotationStyle@12@@Z
?quoteString@QLocale@kso_qt@@QBE?AVQString@2@ABVQStringRef@2@W4QuotationStyle@12@@Z
?qustrchr@QtPrivate@kso_qt@@YAPBGVQStringView@2@G@Z
?qustrlen@QtPrivate@kso_qt@@YAHPBG@Z
?qvsnprintf@kso_qt@@YAHPADIPBD0@Z
?raise@QException@kso_qt@@UBEXXZ
?raise@QUnhandledException@kso_qt@@UBEXXZ
?raiseError@QXmlStreamReader@kso_qt@@QAEXABVQString@2@@Z
?rangeContains@QXmlUtils@kso_qt@@CA_NPBVQXmlCharRange@2@0VQChar@2@@Z
?rawData@QJsonDocument@kso_qt@@QBEPBDPAH@Z
?rawName@QLocalePrivate@kso_qt@@QBE?AVQByteArray@2@D@Z
?rawRemainingTimeNSecs@QDeadlineTimer@kso_qt@@ABE_JXZ
?rbegin@?$QList@VQItemSelectionRange@kso_qt@@@kso_qt@@QAE?AV?$reverse_iterator@Viterator@?$QList@VQItemSelectionRange@kso_qt@@@kso_qt@@@std@@XZ
?rbegin@?$QList@VQItemSelectionRange@kso_qt@@@kso_qt@@QBE?AV?$reverse_iterator@Vconst_iterator@?$QList@VQItemSelectionRange@kso_qt@@@kso_qt@@@std@@XZ
?rbegin@?$QVector@VQPoint@kso_qt@@@kso_qt@@QAE?AV?$reverse_iterator@PAVQPoint@kso_qt@@@std@@XZ
?rbegin@?$QVector@VQPoint@kso_qt@@@kso_qt@@QAE?AV?$reverse_iterator@Viterator@?$QTypedArrayData@VQPoint@kso_qt@@@kso_qt@@@std@@XZ
?rbegin@?$QVector@VQPoint@kso_qt@@@kso_qt@@QBE?AV?$reverse_iterator@PBVQPoint@kso_qt@@@std@@XZ
?rbegin@?$QVector@VQPoint@kso_qt@@@kso_qt@@QBE?AV?$reverse_iterator@Vconst_iterator@?$QTypedArrayData@VQPoint@kso_qt@@@kso_qt@@@std@@XZ
?rbegin@?$QVector@VQPointF@kso_qt@@@kso_qt@@QAE?AV?$reverse_iterator@PAVQPointF@kso_qt@@@std@@XZ
?rbegin@?$QVector@VQPointF@kso_qt@@@kso_qt@@QAE?AV?$reverse_iterator@Viterator@?$QTypedArrayData@VQPointF@kso_qt@@@kso_qt@@@std@@XZ
?rbegin@?$QVector@VQPointF@kso_qt@@@kso_qt@@QBE?AV?$reverse_iterator@PBVQPointF@kso_qt@@@std@@XZ
?rbegin@?$QVector@VQPointF@kso_qt@@@kso_qt@@QBE?AV?$reverse_iterator@Vconst_iterator@?$QTypedArrayData@VQPointF@kso_qt@@@kso_qt@@@std@@XZ
?rbegin@?$QVector@VQXmlStreamAttribute@kso_qt@@@kso_qt@@QAE?AV?$reverse_iterator@PAVQXmlStreamAttribute@kso_qt@@@std@@XZ
?rbegin@?$QVector@VQXmlStreamAttribute@kso_qt@@@kso_qt@@QBE?AV?$reverse_iterator@PBVQXmlStreamAttribute@kso_qt@@@std@@XZ
?rbegin@QByteArray@kso_qt@@QAE?AV?$reverse_iterator@PAD@std@@XZ
?rbegin@QByteArray@kso_qt@@QBE?AV?$reverse_iterator@PBD@std@@XZ
?rbegin@QString@kso_qt@@QAE?AV?$reverse_iterator@PAVQChar@kso_qt@@@std@@XZ
?rbegin@QString@kso_qt@@QBE?AV?$reverse_iterator@PBVQChar@kso_qt@@@std@@XZ
?rbegin@QStringRef@kso_qt@@QBE?AV?$reverse_iterator@PBVQChar@kso_qt@@@std@@XZ
?read@QAbstractFileEngine@kso_qt@@UAE_JPAD_J@Z
?read@QFSFileEngine@kso_qt@@UAE_JPAD_J@Z
?read@QIODevice@kso_qt@@QAE?AVQByteArray@2@_J@Z
?read@QIODevice@kso_qt@@QAE_JPAD_J@Z
?read@QIODevicePrivate@kso_qt@@QAE_JPAD_J_N@Z
?read@QMetaProperty@kso_qt@@QBE?AVQVariant@2@PBVQObject@2@@Z
?read@QRingBuffer@kso_qt@@QAE?AVQByteArray@2@XZ
?read@QRingBuffer@kso_qt@@QAE_JPAD_J@Z
?read@QTextStream@kso_qt@@QAE?AVQString@2@_J@Z
?read@QWindowsPipeReader@kso_qt@@QAE_JPAD_J@Z
?readAll@QIODevice@kso_qt@@QAE?AVQByteArray@2@XZ
?readAll@QTextStream@kso_qt@@QAE?AVQString@2@XZ
?readAllStandardError@QProcess@kso_qt@@QAE?AVQByteArray@2@XZ
?readAllStandardOutput@QProcess@kso_qt@@QAE?AVQByteArray@2@XZ
?readBlock@QDataStream@kso_qt@@AAEHPADH@Z
?readByteArray@QCborStreamReader@kso_qt@@QAE?AU?$StringResult@VQByteArray@kso_qt@@@12@XZ
?readBytes@QDataStream@kso_qt@@QAEAAV12@AAPADAAI@Z
?readChannel@QProcess@kso_qt@@QBE?AW4ProcessChannel@12@XZ
?readChannelCount@QIODevice@kso_qt@@QBEHXZ
?readChannelFinished@QIODevice@kso_qt@@QAEXXZ
?readChannelMode@QProcess@kso_qt@@QBE?AW4ProcessChannelMode@12@XZ
?readData@QBuffer@kso_qt@@MAE_JPAD_J@Z
?readData@QFileDevice@kso_qt@@MAE_JPAD_J@Z
?readData@QProcess@kso_qt@@MAE_JPAD_J@Z
?readElementText@QXmlStreamReader@kso_qt@@QAE?AVQString@2@W4ReadElementTextBehaviour@12@@Z
?readFdFh@QFSFileEnginePrivate@kso_qt@@QAE_JPAD_J@Z
?readFileCompleted@QWindowsPipeReader@kso_qt@@CGXKKPAU_OVERLAPPED@@@Z
?readLine@QAbstractFileEngine@kso_qt@@UAE_JPAD_J@Z
?readLine@QFSFileEngine@kso_qt@@UAE_JPAD_J@Z
?readLine@QIODevice@kso_qt@@QAE?AVQByteArray@2@_J@Z
?readLine@QIODevice@kso_qt@@QAE_JPAD_J@Z
?readLine@QRingBuffer@kso_qt@@QAE_JPAD_J@Z
?readLine@QTextStream@kso_qt@@QAE?AVQString@2@_J@Z
?readLineData@QFileDevice@kso_qt@@MAE_JPAD_J@Z
?readLineData@QIODevice@kso_qt@@MAE_JPAD_J@Z
?readLineFdFh@QFSFileEnginePrivate@kso_qt@@QAE_JPAD_J@Z
?readLineInto@QTextStream@kso_qt@@QAE_NPAVQString@2@_J@Z
?readLink@QFile@kso_qt@@QBE?AVQString@2@XZ
?readLink@QFile@kso_qt@@SA?AVQString@2@ABV32@@Z
?readLink@QFileInfo@kso_qt@@QBE?AVQString@2@XZ
?readNext@QXmlStreamReader@kso_qt@@QAE?AW4TokenType@12@XZ
?readNextStartElement@QXmlStreamReader@kso_qt@@QAE_NXZ
?readOnGadget@QMetaProperty@kso_qt@@QBE?AVQVariant@2@PBX@Z
?readPointerAtPosition@QRingBuffer@kso_qt@@QBEPBD_JAA_J@Z
?readProgress@QNonContiguousByteDevice@kso_qt@@QAEX_J0@Z
?readRawData@QDataStream@kso_qt@@QAEHPADH@Z
?readString@QCborStreamReader@kso_qt@@QAE?AU?$StringResult@VQString@kso_qt@@@12@XZ
?readStringChunk@QCborStreamReader@kso_qt@@QAE?AU?$StringResult@H@12@PADH@Z
?readWriteLock@QReadLocker@kso_qt@@QBEPAVQReadWriteLock@2@XZ
?readWriteLock@QWriteLocker@kso_qt@@QBEPAVQReadWriteLock@2@XZ
?readyRead@QIODevice@kso_qt@@QAEXXZ
?readyRead@QNonContiguousByteDevice@kso_qt@@QAEXXZ
?readyRead@QWindowsPipeReader@kso_qt@@QAEXXZ
?readyReadStandardError@QProcess@kso_qt@@QAEXUQPrivateSignal@12@@Z
?readyReadStandardOutput@QProcess@kso_qt@@QAEXUQPrivateSignal@12@@Z
?realNumberNotation@QTextStream@kso_qt@@QBE?AW4RealNumberNotation@12@XZ
?realNumberPrecision@QTextStream@kso_qt@@QBEHXZ
?realloc@QListData@kso_qt@@QAEXH@Z
?reallocData@?$QVector@VQPoint@kso_qt@@@kso_qt@@AAEXH@Z
?reallocData@?$QVector@VQPoint@kso_qt@@@kso_qt@@AAEXHHV?$QFlags@W4AllocationOption@QArrayData@kso_qt@@@2@@Z
?reallocData@?$QVector@VQPointF@kso_qt@@@kso_qt@@AAEXH@Z
?reallocData@?$QVector@VQPointF@kso_qt@@@kso_qt@@AAEXHHV?$QFlags@W4AllocationOption@QArrayData@kso_qt@@@2@@Z
?reallocData@?$QVector@VQXmlStreamAttribute@kso_qt@@@kso_qt@@AAEXH@Z
?reallocData@?$QVector@VQXmlStreamAttribute@kso_qt@@@kso_qt@@AAEXHHV?$QFlags@W4AllocationOption@QArrayData@kso_qt@@@2@@Z
?reallocData@QByteArray@kso_qt@@AAEXIV?$QFlags@W4AllocationOption@QArrayData@kso_qt@@@2@@Z
?reallocData@QString@kso_qt@@AAEXI_N@Z
?realloc_grow@QListData@kso_qt@@QAEXH@Z
?reallocateAligned@QArrayData@kso_qt@@SAPAU12@PAU12@IIIV?$QFlags@W4AllocationOption@QArrayData@kso_qt@@@2@@Z
?reallocateUnaligned@QArrayData@kso_qt@@SAPAU12@PAU12@IIV?$QFlags@W4AllocationOption@QArrayData@kso_qt@@@2@@Z
?rebalance@QMapDataBase@kso_qt@@QAEXPAUQMapNodeBase@2@@Z
?recalcMostLeftNode@QMapDataBase@kso_qt@@QAEXXZ
?receiverList@QObjectPrivate@kso_qt@@QBE?AV?$QList@PAVQObject@kso_qt@@@2@PBD@Z
?receivers@QAbstractDeclarativeData@kso_qt@@2P6AHPAV12@PBVQObject@2@H@ZA
?receivers@QObject@kso_qt@@IBEHPBD@Z
?ref@QCoreApplicationPrivate@kso_qt@@QAEXXZ
?refT@QFutureInterfaceBase@kso_qt@@IBE_NXZ
?refresh@QDir@kso_qt@@QBEXXZ
?refresh@QFileInfo@kso_qt@@QAEXXZ
?refresh@QStorageInfo@kso_qt@@QAEXXZ
?refreshAll@QFactoryLoader@kso_qt@@SAXXZ
?registerCallback@QInternal@kso_qt@@SA_NW4Callback@12@P6A_NPAPAX@Z@Z
?registerCategory@QLoggingRegistry@kso_qt@@QAEXPAVQLoggingCategory@2@W4QtMsgType@2@@Z
?registerComparatorFunction@QMetaType@kso_qt@@CA_NPBUAbstractComparatorFunction@QtPrivate@2@H@Z
?registerConverterFunction@QMetaType@kso_qt@@SA_NPBUAbstractConverterFunction@QtPrivate@2@HH@Z
?registerDebugStreamOperatorFunction@QMetaType@kso_qt@@CA_NPBUAbstractDebugStreamFunction@QtPrivate@2@H@Z
?registerEventNotifier@QEventDispatcherWin32@kso_qt@@UAE_NPAVQWinEventNotifier@2@@Z
?registerEventTransition@QStateMachinePrivate@kso_qt@@QAEXPAVQEventTransition@2@@Z
?registerEventType@QEvent@kso_qt@@SAHH@Z
?registerFormat@QSettings@kso_qt@@SA?AW4Format@12@ABVQString@2@P6A_NAAVQIODevice@2@AAV?$QMap@VQString@kso_qt@@VQVariant@2@@2@@ZP6A_N1ABV62@@ZW4CaseSensitivity@Qt@2@@Z
?registerHandler@QVariantPrivate@kso_qt@@YAXHPBUHandler@QVariant@2@@Z
?registerInterpolator@QVariantAnimation@kso_qt@@CAXP6A?AVQVariant@2@PBX0N@ZH@Z
?registerMultiThreadedSignalTransitions@QStateMachinePrivate@kso_qt@@QAEXXZ
?registerNormalizedType@QMetaType@kso_qt@@SAHABVQByteArray@2@P6AXHPAX@ZP6APAXH1PBX@ZHV?$QFlags@W4TypeFlag@QMetaType@kso_qt@@@2@PBUQMetaObject@2@@Z
?registerNormalizedType@QMetaType@kso_qt@@SAHABVQByteArray@2@P6AXPAX@ZP6APAX1PBX@ZHV?$QFlags@W4TypeFlag@QMetaType@kso_qt@@@2@PBUQMetaObject@2@@Z
?registerNormalizedType@QMetaType@kso_qt@@SAHABVQByteArray@2@P6AXPAX@ZP6APAXPBX@Z2P6APAX13@ZHV?$QFlags@W4TypeFlag@QMetaType@kso_qt@@@2@PBUQMetaObject@2@@Z
?registerNormalizedTypedef@QMetaType@kso_qt@@SAHABVQByteArray@2@H@Z
?registerProfilerCallback@QUnifiedTimer@kso_qt@@QAEXP6AX_J@Z@Z
?registerPropertyType@QMetaProperty@kso_qt@@ABEHXZ
?registerResource@QResource@kso_qt@@SA_NABVQString@2@0@Z
?registerResource@QResource@kso_qt@@SA_NPBEABVQString@2@@Z
?registerRestorable@QStateMachinePrivate@kso_qt@@QAEXPAVQAbstractState@2@PAVQObject@2@ABVQByteArray@2@ABVQVariant@2@@Z
?registerSignalTransition@QStateMachinePrivate@kso_qt@@QAEXPAVQSignalTransition@2@@Z
?registerSocketNotifier@QEventDispatcherWin32@kso_qt@@UAEXPAVQSocketNotifier@2@@Z
?registerStreamOperators@QMetaType@kso_qt@@SAXHP6AXAAVQDataStream@2@PBX@ZP6AX0PAX@Z@Z
?registerStreamOperators@QMetaType@kso_qt@@SAXPBDP6AXAAVQDataStream@2@PBX@ZP6AX1PAX@Z@Z
?registerTimer@QAbstractEventDispatcher@kso_qt@@QAEHHPAVQObject@2@@Z
?registerTimer@QAbstractEventDispatcher@kso_qt@@QAEHHW4TimerType@Qt@2@PAVQObject@2@@Z
?registerTimer@QAbstractEventDispatcher@kso_qt@@QAEXHHPAVQObject@2@@Z
?registerTimer@QEventDispatcherWin32@kso_qt@@UAEXHHW4TimerType@Qt@2@PAVQObject@2@@Z
?registerTimer@QEventDispatcherWin32Private@kso_qt@@QAEXPAUWinTimerInfo@2@@Z
?registerTransition@QStateMachinePrivate@kso_qt@@QAEXPAVQAbstractTransition@2@@Z
?registerTransitions@QStateMachinePrivate@kso_qt@@QAEXPAVQAbstractState@2@@Z
?registerType@QMetaType@kso_qt@@SAHPBDP6AXHPAX@ZP6APAXH1PBX@ZHV?$QFlags@W4TypeFlag@QMetaType@kso_qt@@@2@PBUQMetaObject@2@@Z
?registerType@QMetaType@kso_qt@@SAHPBDP6AXPAX@ZP6APAXPBX@Z2P6APAX13@ZHV?$QFlags@W4TypeFlag@QMetaType@kso_qt@@@2@PBUQMetaObject@2@@Z
?registerType@QMetaType@kso_qt@@SAHPBDP6AXPAX@ZP6APAXPBX@Z@Z
?registerTypedef@QMetaType@kso_qt@@SAHPBDH@Z
?registerUserData@QObject@kso_qt@@SAIXZ
?registeredTimers@QEventDispatcherWin32@kso_qt@@UBE?AV?$QList@UTimerInfo@QAbstractEventDispatcher@kso_qt@@@2@PAVQObject@2@@Z
?regularExpression@QRegularExpressionMatch@kso_qt@@QBE?AVQRegularExpression@2@XZ
?regularExpression@QRegularExpressionMatchIterator@kso_qt@@QBE?AVQRegularExpression@2@XZ
?rehash@QHashData@kso_qt@@QAEXH@Z
?relatedMetaObject@QMetaObjectBuilder@kso_qt@@QBEPBUQMetaObject@2@H@Z
?relatedMetaObjectCount@QMetaObjectBuilder@kso_qt@@QBEHXZ
?relativeFilePath@QDir@kso_qt@@QBE?AVQString@2@ABV32@@Z
?release@QSemaphore@kso_qt@@QAEXH@Z
?release@QSystemSemaphore@kso_qt@@QAE_NH@Z
?releaseThread@QThreadPool@kso_qt@@QAEXXZ
?releaseTimerId@QAbstractEventDispatcherPrivate@kso_qt@@SAXH@Z
?relock@QMutexLocker@kso_qt@@QAEXXZ
?relock@QReadLocker@kso_qt@@QAEXXZ
?relock@QWriteLocker@kso_qt@@QAEXXZ
?remainingTime@QDeadlineTimer@kso_qt@@QBE_JXZ
?remainingTime@QEventDispatcherWin32@kso_qt@@UAEHH@Z
?remainingTime@QTimer@kso_qt@@QBEHXZ
?remainingTimeAsDuration@QDeadlineTimer@kso_qt@@QBE?AV?$duration@_JU?$ratio@$00$0DLJKMKAA@@std@@@chrono@std@@XZ
?remainingTimeAsDuration@QTimer@kso_qt@@QBE?AV?$duration@_JU?$ratio@$00$0DOI@@std@@@chrono@std@@XZ
?remainingTimeNSecs@QDeadlineTimer@kso_qt@@QBE_JXZ
?remove@?$QVector@VQPoint@kso_qt@@@kso_qt@@QAEXH@Z
?remove@?$QVector@VQPoint@kso_qt@@@kso_qt@@QAEXHH@Z
?remove@?$QVector@VQPointF@kso_qt@@@kso_qt@@QAEXH@Z
?remove@?$QVector@VQPointF@kso_qt@@@kso_qt@@QAEXHH@Z
?remove@?$QVector@VQXmlStreamAttribute@kso_qt@@@kso_qt@@QAEXH@Z
?remove@?$QVector@VQXmlStreamAttribute@kso_qt@@@kso_qt@@QAEXHH@Z
?remove@QAbstractFileEngine@kso_qt@@UAE_NXZ
?remove@QByteArray@kso_qt@@QAEAAV12@HH@Z
?remove@QCborMap@kso_qt@@QAEXABVQCborValue@2@@Z
?remove@QCborMap@kso_qt@@QAEXABVQString@2@@Z
?remove@QCborMap@kso_qt@@QAEXVQLatin1String@2@@Z
?remove@QCborMap@kso_qt@@QAEX_J@Z
?remove@QDir@kso_qt@@QAE_NABVQString@2@@Z
?remove@QFSFileEngine@kso_qt@@UAE_NXZ
?remove@QFile@kso_qt@@QAE_NXZ
?remove@QFile@kso_qt@@SA_NABVQString@2@@Z
?remove@QJsonObject@kso_qt@@QAEXABVQString@2@@Z
?remove@QListData@kso_qt@@QAEXH@Z
?remove@QListData@kso_qt@@QAEXHH@Z
?remove@QObjectCleanupHandler@kso_qt@@QAEXPAVQObject@2@@Z
?remove@QProcessEnvironment@kso_qt@@QAEXABVQString@2@@Z
?remove@QSettings@kso_qt@@QAEXABVQString@2@@Z
?remove@QString@kso_qt@@QAEAAV12@ABV12@W4CaseSensitivity@Qt@2@@Z
?remove@QString@kso_qt@@QAEAAV12@ABVQRegExp@2@@Z
?remove@QString@kso_qt@@QAEAAV12@ABVQRegularExpression@2@@Z
?remove@QString@kso_qt@@QAEAAV12@HH@Z
?remove@QString@kso_qt@@QAEAAV12@VQChar@2@W4CaseSensitivity@Qt@2@@Z
?remove@QString@kso_qt@@QAEAAV12@VQLatin1String@2@W4CaseSensitivity@Qt@2@@Z
?remove@QTemporaryDir@kso_qt@@QAE_NXZ
?removeAll@?$QList@VQItemSelectionRange@kso_qt@@@kso_qt@@QAEHABVQItemSelectionRange@2@@Z
?removeAll@?$QVector@VQPoint@kso_qt@@@kso_qt@@QAEHABVQPoint@2@@Z
?removeAll@?$QVector@VQPointF@kso_qt@@@kso_qt@@QAEHABVQPointF@2@@Z
?removeAll@?$QVector@VQXmlStreamAttribute@kso_qt@@@kso_qt@@QAEHABVQXmlStreamAttribute@2@@Z
?removeAllEncodedQueryItems@QUrl@kso_qt@@QAEXABVQByteArray@2@@Z
?removeAllQueryItems@QUrl@kso_qt@@QAEXABVQString@2@@Z
?removeAllQueryItems@QUrlQuery@kso_qt@@QAEXABVQString@2@@Z
?removeAnimation@QAbstractTransition@kso_qt@@QAEXPAVQAbstractAnimation@2@@Z
?removeAnimation@QAnimationGroup@kso_qt@@QAEXPAVQAbstractAnimation@2@@Z
?removeAt@?$QList@VQItemSelectionRange@kso_qt@@@kso_qt@@QAEXH@Z
?removeAt@?$QVector@VQPoint@kso_qt@@@kso_qt@@QAEXH@Z
?removeAt@?$QVector@VQPointF@kso_qt@@@kso_qt@@QAEXH@Z
?removeAt@?$QVector@VQXmlStreamAttribute@kso_qt@@@kso_qt@@QAEXH@Z
?removeAt@QCborArray@kso_qt@@QAEXH@Z
?removeAt@QJsonArray@kso_qt@@QAEXH@Z
?removeClassInfo@QMetaObjectBuilder@kso_qt@@QAEXH@Z
?removeColumn@QAbstractItemModel@kso_qt@@QAE_NHABVQModelIndex@2@@Z
?removeColumns@QAbstractItemModel@kso_qt@@UAE_NHHABVQModelIndex@2@@Z
?removeColumns@QIdentityProxyModel@kso_qt@@UAE_NHHABVQModelIndex@2@@Z
?removeColumns@QSortFilterProxyModel@kso_qt@@UAE_NHHABVQModelIndex@2@@Z
?removeConflictingTransitions@QStateMachinePrivate@kso_qt@@QAEXAAV?$QList@PAVQAbstractTransition@kso_qt@@@2@PAUCalculationCache@2@@Z
?removeConstructor@QMetaObjectBuilder@kso_qt@@QAEXH@Z
?removeDefaultAnimation@QStateMachine@kso_qt@@QAEXPAVQAbstractAnimation@2@@Z
?removeEncodedQueryItem@QUrl@kso_qt@@QAEXABVQByteArray@2@@Z
?removeEnumerator@QMetaObjectBuilder@kso_qt@@QAEXH@Z
?removeEventFilter@QObject@kso_qt@@QAEXPAV12@@Z
?removeFirst@?$QList@VQItemSelectionRange@kso_qt@@@kso_qt@@QAEXXZ
?removeFirst@?$QVector@VQPoint@kso_qt@@@kso_qt@@QAEXXZ
?removeFirst@?$QVector@VQPointF@kso_qt@@@kso_qt@@QAEXXZ
?removeFirst@?$QVector@VQXmlStreamAttribute@kso_qt@@@kso_qt@@QAEXXZ
?removeFirst@QCborArray@kso_qt@@QAEXXZ
?removeFirst@QJsonArray@kso_qt@@QAEXXZ
?removeFormat@QMimeData@kso_qt@@QAEXABVQString@2@@Z
?removeKey@QMetaEnumBuilder@kso_qt@@QAEXH@Z
?removeLast@?$QList@VQItemSelectionRange@kso_qt@@@kso_qt@@QAEXXZ
?removeLast@?$QVector@VQPoint@kso_qt@@@kso_qt@@QAEXXZ
?removeLast@?$QVector@VQPointF@kso_qt@@@kso_qt@@QAEXXZ
?removeLast@?$QVector@VQXmlStreamAttribute@kso_qt@@@kso_qt@@QAEXXZ
?removeLast@QCborArray@kso_qt@@QAEXXZ
?removeLast@QJsonArray@kso_qt@@QAEXXZ
?removeLibraryPath@QCoreApplication@kso_qt@@SAXABVQString@2@@Z
?removeMappings@QSignalMapper@kso_qt@@QAEXPAVQObject@2@@Z
?removeMethod@QMetaObjectBuilder@kso_qt@@QAEXH@Z
?removeNativeEventFilter@QAbstractEventDispatcher@kso_qt@@QAEXPAVQAbstractNativeEventFilter@2@@Z
?removeNativeEventFilter@QCoreApplication@kso_qt@@QAEXPAVQAbstractNativeEventFilter@2@@Z
?removeNotifySignal@QMetaPropertyBuilder@kso_qt@@QAEXXZ
?removeOne@?$QList@VQItemSelectionRange@kso_qt@@@kso_qt@@QAE_NABVQItemSelectionRange@2@@Z
?removeOne@?$QVector@VQPoint@kso_qt@@@kso_qt@@QAE_NABVQPoint@2@@Z
?removeOne@?$QVector@VQPointF@kso_qt@@@kso_qt@@QAE_NABVQPointF@2@@Z
?removeOne@?$QVector@VQXmlStreamAttribute@kso_qt@@@kso_qt@@QAE_NABVQXmlStreamAttribute@2@@Z
?removePath@QFileSystemWatcher@kso_qt@@QAE_NABVQString@2@@Z
?removePaths@QFileSystemWatcher@kso_qt@@QAE?AVQStringList@2@ABV32@@Z
?removePersistentIndexData@QAbstractItemModelPrivate@kso_qt@@QAEXPAVQPersistentModelIndexData@2@@Z
?removePostedEvent@QCoreApplicationPrivate@kso_qt@@SAXPAVQEvent@2@@Z
?removePostedEvents@QCoreApplication@kso_qt@@SAXPAVQObject@2@H@Z
?removePostedTimerEvent@QCoreApplicationPrivate@kso_qt@@SAXPAVQObject@2@H@Z
?removeProperty@QMetaObjectBuilder@kso_qt@@QAEXH@Z
?removeQueryItem@QUrl@kso_qt@@QAEXABVQString@2@@Z
?removeQueryItem@QUrlQuery@kso_qt@@QAEXABVQString@2@@Z
?removeRecursively@QDir@kso_qt@@QAE_NXZ
?removeRelatedMetaObject@QMetaObjectBuilder@kso_qt@@QAEXH@Z
?removeRow@QAbstractItemModel@kso_qt@@QAE_NHABVQModelIndex@2@@Z
?removeRows@QAbstractItemModel@kso_qt@@UAE_NHHABVQModelIndex@2@@Z
?removeRows@QIdentityProxyModel@kso_qt@@UAE_NHHABVQModelIndex@2@@Z
?removeRows@QSortFilterProxyModel@kso_qt@@UAE_NHHABVQModelIndex@2@@Z
?removeRows@QStringListModel@kso_qt@@UAE_NHHABVQModelIndex@2@@Z
?removeStaleLockFile@QLockFile@kso_qt@@QAE_NXZ
?removeState@QStateMachine@kso_qt@@QAEXPAVQAbstractState@2@@Z
?removeTransition@QState@kso_qt@@QAEXPAVQAbstractTransition@2@@Z
?removeTranslator@QCoreApplication@kso_qt@@SA_NPAVQTranslator@2@@Z
?removed@QChildEvent@kso_qt@@QBE_NXZ
?rename@QAbstractFileEngine@kso_qt@@UAE_NABVQString@2@@Z
?rename@QDir@kso_qt@@QAE_NABVQString@2@0@Z
?rename@QFSFileEngine@kso_qt@@UAE_NABVQString@2@@Z
?rename@QFile@kso_qt@@QAE_NABVQString@2@@Z
?rename@QFile@kso_qt@@SA_NABVQString@2@0@Z
?rename@QTemporaryFile@kso_qt@@QAE_NABVQString@2@@Z
?renameOverwrite@QAbstractFileEngine@kso_qt@@UAE_NABVQString@2@@Z
?renameOverwrite@QFSFileEngine@kso_qt@@UAE_NABVQString@2@@Z
?rend@?$QList@VQItemSelectionRange@kso_qt@@@kso_qt@@QAE?AV?$reverse_iterator@Viterator@?$QList@VQItemSelectionRange@kso_qt@@@kso_qt@@@std@@XZ
?rend@?$QList@VQItemSelectionRange@kso_qt@@@kso_qt@@QBE?AV?$reverse_iterator@Vconst_iterator@?$QList@VQItemSelectionRange@kso_qt@@@kso_qt@@@std@@XZ
?rend@?$QVector@VQPoint@kso_qt@@@kso_qt@@QAE?AV?$reverse_iterator@PAVQPoint@kso_qt@@@std@@XZ
?rend@?$QVector@VQPoint@kso_qt@@@kso_qt@@QAE?AV?$reverse_iterator@Viterator@?$QTypedArrayData@VQPoint@kso_qt@@@kso_qt@@@std@@XZ
?rend@?$QVector@VQPoint@kso_qt@@@kso_qt@@QBE?AV?$reverse_iterator@PBVQPoint@kso_qt@@@std@@XZ
?rend@?$QVector@VQPoint@kso_qt@@@kso_qt@@QBE?AV?$reverse_iterator@Vconst_iterator@?$QTypedArrayData@VQPoint@kso_qt@@@kso_qt@@@std@@XZ
?rend@?$QVector@VQPointF@kso_qt@@@kso_qt@@QAE?AV?$reverse_iterator@PAVQPointF@kso_qt@@@std@@XZ
?rend@?$QVector@VQPointF@kso_qt@@@kso_qt@@QAE?AV?$reverse_iterator@Viterator@?$QTypedArrayData@VQPointF@kso_qt@@@kso_qt@@@std@@XZ
?rend@?$QVector@VQPointF@kso_qt@@@kso_qt@@QBE?AV?$reverse_iterator@PBVQPointF@kso_qt@@@std@@XZ
?rend@?$QVector@VQPointF@kso_qt@@@kso_qt@@QBE?AV?$reverse_iterator@Vconst_iterator@?$QTypedArrayData@VQPointF@kso_qt@@@kso_qt@@@std@@XZ
?rend@?$QVector@VQXmlStreamAttribute@kso_qt@@@kso_qt@@QAE?AV?$reverse_iterator@PAVQXmlStreamAttribute@kso_qt@@@std@@XZ
?rend@?$QVector@VQXmlStreamAttribute@kso_qt@@@kso_qt@@QBE?AV?$reverse_iterator@PBVQXmlStreamAttribute@kso_qt@@@std@@XZ
?rend@QByteArray@kso_qt@@QAE?AV?$reverse_iterator@PAD@std@@XZ
?rend@QByteArray@kso_qt@@QBE?AV?$reverse_iterator@PBD@std@@XZ
?rend@QString@kso_qt@@QAE?AV?$reverse_iterator@PAVQChar@kso_qt@@@std@@XZ
?rend@QString@kso_qt@@QBE?AV?$reverse_iterator@PBVQChar@kso_qt@@@std@@XZ
?rend@QStringRef@kso_qt@@QBE?AV?$reverse_iterator@PBVQChar@kso_qt@@@std@@XZ
?reparse@QCborStreamReader@kso_qt@@QAEXXZ
?repeated@QByteArray@kso_qt@@QBE?AV12@H@Z
?repeated@QString@kso_qt@@QBE?AV12@H@Z
?replace@?$QList@VQItemSelectionRange@kso_qt@@@kso_qt@@QAEXHABVQItemSelectionRange@2@@Z
?replace@?$QVector@VQPoint@kso_qt@@@kso_qt@@QAEXHABVQPoint@2@@Z
?replace@?$QVector@VQPointF@kso_qt@@@kso_qt@@QAEXHABVQPointF@2@@Z
?replace@?$QVector@VQXmlStreamAttribute@kso_qt@@@kso_qt@@QAEXHABVQXmlStreamAttribute@2@@Z
?replace@QByteArray@kso_qt@@QAEAAV12@ABV12@0@Z
?replace@QByteArray@kso_qt@@QAEAAV12@ABV12@PBD@Z
?replace@QByteArray@kso_qt@@QAEAAV12@ABVQString@2@ABV12@@Z
?replace@QByteArray@kso_qt@@QAEAAV12@ABVQString@2@PBD@Z
?replace@QByteArray@kso_qt@@QAEAAV12@DABV12@@Z
?replace@QByteArray@kso_qt@@QAEAAV12@DABVQString@2@@Z
?replace@QByteArray@kso_qt@@QAEAAV12@DD@Z
?replace@QByteArray@kso_qt@@QAEAAV12@DPBD@Z
?replace@QByteArray@kso_qt@@QAEAAV12@HHABV12@@Z
?replace@QByteArray@kso_qt@@QAEAAV12@HHPBD@Z
?replace@QByteArray@kso_qt@@QAEAAV12@HHPBDH@Z
?replace@QByteArray@kso_qt@@QAEAAV12@PBD0@Z
?replace@QByteArray@kso_qt@@QAEAAV12@PBDABV12@@Z
?replace@QByteArray@kso_qt@@QAEAAV12@PBDH0H@Z
?replace@QJsonArray@kso_qt@@QAEXHABVQJsonValue@2@@Z
?replace@QString@kso_qt@@QAEAAV12@ABV12@0W4CaseSensitivity@Qt@2@@Z
?replace@QString@kso_qt@@QAEAAV12@ABV12@VQLatin1String@2@W4CaseSensitivity@Qt@2@@Z
?replace@QString@kso_qt@@QAEAAV12@ABVQRegExp@2@ABV12@@Z
?replace@QString@kso_qt@@QAEAAV12@ABVQRegularExpression@2@ABV12@@Z
?replace@QString@kso_qt@@QAEAAV12@HHABV12@@Z
?replace@QString@kso_qt@@QAEAAV12@HHPBVQChar@2@H@Z
?replace@QString@kso_qt@@QAEAAV12@HHVQChar@2@@Z
?replace@QString@kso_qt@@QAEAAV12@PBVQChar@2@H0HW4CaseSensitivity@Qt@2@@Z
?replace@QString@kso_qt@@QAEAAV12@VQChar@2@0W4CaseSensitivity@Qt@2@@Z
?replace@QString@kso_qt@@QAEAAV12@VQChar@2@ABV12@W4CaseSensitivity@Qt@2@@Z
?replace@QString@kso_qt@@QAEAAV12@VQChar@2@VQLatin1String@2@W4CaseSensitivity@Qt@2@@Z
?replace@QString@kso_qt@@QAEAAV12@VQLatin1String@2@0W4CaseSensitivity@Qt@2@@Z
?replace@QString@kso_qt@@QAEAAV12@VQLatin1String@2@ABV12@W4CaseSensitivity@Qt@2@@Z
?replace_helper@QString@kso_qt@@AAEXPAIHHPBVQChar@2@H@Z
?reportCanceled@QFutureInterfaceBase@kso_qt@@QAEXXZ
?reportException@QFutureInterfaceBase@kso_qt@@QAEXABVQException@2@@Z
?reportFinished@QFutureInterfaceBase@kso_qt@@QAEXXZ
?reportResultsReady@QFutureInterfaceBase@kso_qt@@QAEXHH@Z
?reportStarted@QFutureInterfaceBase@kso_qt@@QAEXXZ
?requestInterruption@QThread@kso_qt@@QAEXXZ
?requestUpdate@QSettingsPrivate@kso_qt@@QAEXXZ
?requiresSurrogates@QChar@kso_qt@@SA_NI@Z
?reserve@?$QList@VQItemSelectionRange@kso_qt@@@kso_qt@@QAEXH@Z
?reserve@?$QVector@VQPoint@kso_qt@@@kso_qt@@QAEXH@Z
?reserve@?$QVector@VQPointF@kso_qt@@@kso_qt@@QAEXH@Z
?reserve@?$QVector@VQXmlStreamAttribute@kso_qt@@@kso_qt@@QAEXH@Z
?reserve@QByteArray@kso_qt@@QAEXH@Z
?reserve@QRingBuffer@kso_qt@@QAEPAD_J@Z
?reserve@QString@kso_qt@@QAEXH@Z
?reserveFront@QRingBuffer@kso_qt@@QAEPAD_J@Z
?reserveThread@QThreadPool@kso_qt@@QAEXXZ
?reset@QAbstractItemModel@kso_qt@@IAEXXZ
?reset@QCborStreamReader@kso_qt@@QAEXXZ
?reset@QCryptographicHash@kso_qt@@QAEXXZ
?reset@QIODevice@kso_qt@@UAE_NXZ
?reset@QItemSelectionModel@kso_qt@@UAEXXZ
?reset@QMessageAuthenticationCode@kso_qt@@QAEXXZ
?reset@QMetaProperty@kso_qt@@QBE_NPAVQObject@2@@Z
?reset@QTextStream@kso_qt@@QAEXXZ
?reset@QThreadPoolPrivate@kso_qt@@QAEXXZ
?reset@kso_qt@@YAAAVQTextStream@1@AAV21@@Z
?resetCurrentSender@QObjectPrivate@kso_qt@@SAXPAVQObject@2@PAUSender@12@1@Z
?resetFormat@QDebug@kso_qt@@QAEAAV12@XZ
?resetInternalData@QAbstractItemModel@kso_qt@@IAEXXZ
?resetInternalData@QAbstractProxyModel@kso_qt@@IAEXXZ
?resetOnGadget@QMetaProperty@kso_qt@@QBE_NPAX@Z
?resetStatus@QDataStream@kso_qt@@QAEXXZ
?resetStatus@QTextStream@kso_qt@@QAEXXZ
?resize@?$QVector@VQPoint@kso_qt@@@kso_qt@@QAEXH@Z
?resize@?$QVector@VQPointF@kso_qt@@@kso_qt@@QAEXH@Z
?resize@?$QVector@VQXmlStreamAttribute@kso_qt@@@kso_qt@@QAEXH@Z
?resize@QBitArray@kso_qt@@QAEXH@Z
?resize@QByteArray@kso_qt@@QAEXH@Z
?resize@QFile@kso_qt@@SA_NABVQString@2@_J@Z
?resize@QFile@kso_qt@@UAE_N_J@Z
?resize@QFileDevice@kso_qt@@UAE_N_J@Z
?resize@QString@kso_qt@@QAEXH@Z
?resize@QString@kso_qt@@QAEXHVQChar@2@@Z
?resolve@QLibrary@kso_qt@@QAEP6AXXZPBD@Z
?resolve@QLibrary@kso_qt@@SAP6AXXZABVQString@2@0PBD@Z
?resolve@QLibrary@kso_qt@@SAP6AXXZABVQString@2@HPBD@Z
?resolve@QLibrary@kso_qt@@SAP6AXXZABVQString@2@PBD@Z
?resolveEntity@QXmlStreamEntityResolver@kso_qt@@UAE?AVQString@2@ABV32@0@Z
?resolveUndeclaredEntity@QXmlStreamEntityResolver@kso_qt@@UAE?AVQString@2@ABV32@@Z
?resolved@QUrl@kso_qt@@QBE?AV12@ABV12@@Z
?restart@QElapsedTimer@kso_qt@@QAE_JXZ
?restart@QTime@kso_qt@@QAEHXZ
?restart@QUnifiedTimer@kso_qt@@QAEXXZ
?restorablesToPropertyList@QStateMachinePrivate@kso_qt@@QBE?AV?$QVector@UQPropertyAssignment@kso_qt@@@2@ABV?$QHash@VRestorableId@QStateMachinePrivate@kso_qt@@VQVariant@3@@2@@Z
?result@QCryptographicHash@kso_qt@@QBE?AVQByteArray@2@XZ
?result@QMessageAuthenticationCode@kso_qt@@QBE?AVQByteArray@2@XZ
?resultAt@ResultStoreBase@QtPrivate@kso_qt@@QBE?AVResultIteratorBase@23@H@Z
?resultCount@QFutureInterfaceBase@kso_qt@@QBEHXZ
?resultIndex@ResultIteratorBase@QtPrivate@kso_qt@@QBEHXZ
?resultReadyAt@QFutureWatcherBase@kso_qt@@QAEXH@Z
?resultStoreBase@QFutureInterfaceBase@kso_qt@@QAEAAVResultStoreBase@QtPrivate@2@XZ
?resultStoreBase@QFutureInterfaceBase@kso_qt@@QBEABVResultStoreBase@QtPrivate@2@XZ
?resultsReadyAt@QFutureWatcherBase@kso_qt@@QAEXHH@Z
?resume@QAbstractAnimation@kso_qt@@QAEXXZ
?resume@QFutureWatcherBase@kso_qt@@QAEXXZ
?resume@QTimeLine@kso_qt@@QAEXXZ
?resumeAnimationTimer@QUnifiedTimer@kso_qt@@SAXPAVQAbstractAnimationTimer@2@@Z
?resumed@QFutureWatcherBase@kso_qt@@QAEXXZ
?retrieveData@QMimeData@kso_qt@@MBE?AVQVariant@2@ABVQString@2@W4Type@32@@Z
?returnType@QMetaMethod@kso_qt@@QBEHXZ
?returnType@QMetaMethodBuilder@kso_qt@@QBE?AVQByteArray@2@XZ
?revert@QAbstractItemModel@kso_qt@@UAEXXZ
?revert@QAbstractProxyModel@kso_qt@@UAEXXZ
?revision@QMetaMethod@kso_qt@@QBEHXZ
?revision@QMetaMethodBuilder@kso_qt@@QBEHXZ
?revision@QMetaProperty@kso_qt@@QBEHXZ
?revision@QMetaPropertyBuilder@kso_qt@@QBEHXZ
?rheight@QSize@kso_qt@@QAEAAHXZ
?rheight@QSizeF@kso_qt@@QAEAANXZ
?right@QByteArray@kso_qt@@QBE?AV12@H@Z
?right@QItemSelectionRange@kso_qt@@QBEHXZ
?right@QRect@kso_qt@@QBEHXZ
?right@QRectF@kso_qt@@QBENXZ
?right@QString@kso_qt@@QBE?AV12@H@Z
?right@QStringRef@kso_qt@@QBE?AV12@H@Z
?right@kso_qt@@YAAAVQTextStream@1@AAV21@@Z
?rightJustified@QByteArray@kso_qt@@QBE?AV12@HD_N@Z
?rightJustified@QString@kso_qt@@QBE?AV12@HVQChar@2@_N@Z
?rightRef@QString@kso_qt@@QBE?AVQStringRef@2@H@Z
?rmdir@QAbstractFileEngine@kso_qt@@UBE_NABVQString@2@_N@Z
?rmdir@QDir@kso_qt@@QBE_NABVQString@2@@Z
?rmdir@QFSFileEngine@kso_qt@@UBE_NABVQString@2@_N@Z
?rmpath@QDir@kso_qt@@QBE_NABVQString@2@@Z
?roleNames@QAbstractItemModel@kso_qt@@UBE?AV?$QHash@HVQByteArray@kso_qt@@@2@XZ
?rollbackTransaction@QDataStream@kso_qt@@QAEXXZ
?rollbackTransaction@QIODevice@kso_qt@@QAEXXZ
?root@QDir@kso_qt@@SA?AV12@XZ
?root@QStorageInfo@kso_qt@@SA?AV12@XZ
?rootPath@QDir@kso_qt@@SA?AVQString@2@XZ
?rootPath@QFSFileEngine@kso_qt@@SA?AVQString@2@XZ
?rootPath@QStorageInfo@kso_qt@@QBE?AVQString@2@XZ
?rootState@QStateMachinePrivate@kso_qt@@QBEPAVQState@2@XZ
?rotateLeft@QMapDataBase@kso_qt@@QAEXPAUQMapNodeBase@2@@Z
?rotateRight@QMapDataBase@kso_qt@@QAEXPAUQMapNodeBase@2@@Z
?row@QChar@kso_qt@@QBEEXZ
?row@QCharRef@kso_qt@@QBEEXZ
?row@QModelIndex@kso_qt@@QBEHXZ
?row@QPersistentModelIndex@kso_qt@@QBEHXZ
?rowCount@QIdentityProxyModel@kso_qt@@UBEHABVQModelIndex@2@@Z
?rowCount@QSortFilterProxyModel@kso_qt@@UBEHABVQModelIndex@2@@Z
?rowCount@QStringListModel@kso_qt@@UBEHABVQModelIndex@2@@Z
?rowIntersectsSelection@QItemSelectionModel@kso_qt@@QBE_NHABVQModelIndex@2@@Z
?rowsAboutToBeInserted@QAbstractItemModel@kso_qt@@QAEXABVQModelIndex@2@HHUQPrivateSignal@12@@Z
?rowsAboutToBeInserted@QAbstractItemModelPrivate@kso_qt@@QAEXABVQModelIndex@2@HH@Z
?rowsAboutToBeMoved@QAbstractItemModel@kso_qt@@QAEXABVQModelIndex@2@HH0HUQPrivateSignal@12@@Z
?rowsAboutToBeRemoved@QAbstractItemModel@kso_qt@@QAEXABVQModelIndex@2@HHUQPrivateSignal@12@@Z
?rowsAboutToBeRemoved@QAbstractItemModelPrivate@kso_qt@@QAEXABVQModelIndex@2@HH@Z
?rowsInserted@QAbstractItemModel@kso_qt@@QAEXABVQModelIndex@2@HHUQPrivateSignal@12@@Z
?rowsInserted@QAbstractItemModelPrivate@kso_qt@@QAEXABVQModelIndex@2@HH@Z
?rowsMoved@QAbstractItemModel@kso_qt@@QAEXABVQModelIndex@2@HH0HUQPrivateSignal@12@@Z
?rowsRemoved@QAbstractItemModel@kso_qt@@QAEXABVQModelIndex@2@HHUQPrivateSignal@12@@Z
?rowsRemoved@QAbstractItemModelPrivate@kso_qt@@QAEXABVQModelIndex@2@HH@Z
?ruleToData@QWinTimeZonePrivate@kso_qt@@ABE?AUData@QTimeZonePrivate@2@ABUQWinTransitionRule@12@_JW4TimeType@QTimeZone@2@_N@Z
?rules@QLoggingSettingsParser@kso_qt@@QBE?AV?$QVector@VQLoggingRule@kso_qt@@@2@XZ
?run@QThread@kso_qt@@MAEXXZ
?runningAnimationCount@QUnifiedTimer@kso_qt@@QAEHXZ
?runningChanged@QStateMachine@kso_qt@@QAEX_N@Z
?rwidth@QSize@kso_qt@@QAEAAHXZ
?rwidth@QSizeF@kso_qt@@QAEAANXZ
?rx@QPoint@kso_qt@@QAEAAHXZ
?rx@QPointF@kso_qt@@QAEAANXZ
?ry@QPoint@kso_qt@@QAEAAHXZ
?ry@QPointF@kso_qt@@QAEAANXZ
?save@QMetaType@kso_qt@@SA_NAAVQDataStream@2@HPBX@Z
?save@QVariant@kso_qt@@QBEXAAVQDataStream@2@@Z
?savedValueForRestorable@QStateMachinePrivate@kso_qt@@QBE?AVQVariant@2@ABV?$QList@PAVQAbstractState@kso_qt@@@2@PAVQObject@2@ABVQByteArray@2@@Z
?scale@QSize@kso_qt@@QAEXABV12@W4AspectRatioMode@Qt@2@@Z
?scale@QSize@kso_qt@@QAEXHHW4AspectRatioMode@Qt@2@@Z
?scale@QSizeF@kso_qt@@QAEXABV12@W4AspectRatioMode@Qt@2@@Z
?scale@QSizeF@kso_qt@@QAEXNNW4AspectRatioMode@Qt@2@@Z
?scaled@QSize@kso_qt@@QBE?AV12@ABV12@W4AspectRatioMode@Qt@2@@Z
?scaled@QSize@kso_qt@@QBE?AV12@HHW4AspectRatioMode@Qt@2@@Z
?scaled@QSizeF@kso_qt@@QBE?AV12@ABV12@W4AspectRatioMode@Qt@2@@Z
?scaled@QSizeF@kso_qt@@QBE?AV12@NNW4AspectRatioMode@Qt@2@@Z
?scanString@QDateTimeParser@kso_qt@@ABE?AUStateNode@12@ABVQDateTime@2@_NPAVQString@2@@Z
?scheme@QUrl@kso_qt@@QBE?AVQString@2@XZ
?scientific@kso_qt@@YAAAVQTextStream@1@AAV21@@Z
?scope@QMetaEnum@kso_qt@@QBEPBDXZ
?scope@QSettings@kso_qt@@QBE?AW4Scope@12@XZ
?script@QChar@kso_qt@@QBE?AW4Script@12@XZ
?script@QChar@kso_qt@@SI?AW4Script@12@I@Z
?script@QCharRef@kso_qt@@QBE?AW4Script@QChar@2@XZ
?script@QLocale@kso_qt@@QBE?AW4Script@12@XZ
?scriptCode@QLocalePrivate@kso_qt@@QBE?AVQLatin1String@2@XZ
?scriptToCode@QLocalePrivate@kso_qt@@SA?AVQLatin1String@2@W4Script@QLocale@2@@Z
?scriptToString@QLocale@kso_qt@@SA?AVQString@2@W4Script@12@@Z
?searchPaths@QDir@kso_qt@@SA?AVQStringList@2@ABVQString@2@@Z
?searchPaths@QResource@kso_qt@@SA?AVQStringList@2@XZ
?second@QTime@kso_qt@@QBEHXZ
?secsTo@QDateTime@kso_qt@@QBE_JABV12@@Z
?secsTo@QElapsedTimer@kso_qt@@QBE_JABV12@@Z
?secsTo@QTime@kso_qt@@QBEHABV12@@Z
?section@QString@kso_qt@@QBE?AV12@ABV12@HHV?$QFlags@W4SectionFlag@QString@kso_qt@@@2@@Z
?section@QString@kso_qt@@QBE?AV12@ABVQRegExp@2@HHV?$QFlags@W4SectionFlag@QString@kso_qt@@@2@@Z
?section@QString@kso_qt@@QBE?AV12@ABVQRegularExpression@2@HHV?$QFlags@W4SectionFlag@QString@kso_qt@@@2@@Z
?section@QString@kso_qt@@QBE?AV12@VQChar@2@HHV?$QFlags@W4SectionFlag@QString@kso_qt@@@2@@Z
?sectionMaxSize@QDateTimeParser@kso_qt@@ABEHW4Section@12@H@Z
?sectionMaxSize@QDateTimeParser@kso_qt@@IBEHH@Z
?sectionNode@QDateTimeParser@kso_qt@@IBEABUSectionNode@12@H@Z
?sectionPos@QDateTimeParser@kso_qt@@IBEHABUSectionNode@12@@Z
?sectionPos@QDateTimeParser@kso_qt@@IBEHH@Z
?sectionSize@QDateTimeParser@kso_qt@@IBEHH@Z
?sectionText@QDateTimeParser@kso_qt@@ABE?AVQString@2@ABV32@HH@Z
?sectionText@QDateTimeParser@kso_qt@@IBE?AVQString@2@H@Z
?sectionType@QDateTimeParser@kso_qt@@IBE?AW4Section@12@H@Z
?securelySeeded@QRandomGenerator64@kso_qt@@SA?AV12@XZ
?seek@QAbstractFileEngine@kso_qt@@UAE_N_J@Z
?seek@QBuffer@kso_qt@@UAE_N_J@Z
?seek@QFSFileEngine@kso_qt@@UAE_N_J@Z
?seek@QFileDevice@kso_qt@@UAE_N_J@Z
?seek@QIODevice@kso_qt@@UAE_N_J@Z
?seek@QTextStream@kso_qt@@QAE_N_J@Z
?seekBuffer@QIODevicePrivate@kso_qt@@QAEX_J@Z
?seekFdFh@QFSFileEnginePrivate@kso_qt@@QAE_N_J@Z
?segmentCount@QOperatingSystemVersion@kso_qt@@QBEHXZ
?segments@QVersionNumber@kso_qt@@QBE?AV?$QVector@H@2@XZ
?select@QFileSelector@kso_qt@@QBE?AVQString@2@ABV32@@Z
?select@QFileSelector@kso_qt@@QBE?AVQUrl@2@ABV32@@Z
?select@QFileSelectorPrivate@kso_qt@@QBE?AVQString@2@ABV32@@Z
?select@QItemSelection@kso_qt@@QAEXABVQModelIndex@2@0@Z
?select@QItemSelectionModel@kso_qt@@UAEXABVQItemSelection@2@V?$QFlags@W4SelectionFlag@QItemSelectionModel@kso_qt@@@2@@Z
?select@QItemSelectionModel@kso_qt@@UAEXABVQModelIndex@2@V?$QFlags@W4SelectionFlag@QItemSelectionModel@kso_qt@@@2@@Z
?selectAnimations@QStateMachinePrivate@kso_qt@@QBE?AV?$QList@PAVQAbstractAnimation@kso_qt@@@2@ABV?$QList@PAVQAbstractTransition@kso_qt@@@2@@Z
?selectTransitions@QStateMachinePrivate@kso_qt@@QAE?AV?$QList@PAVQAbstractTransition@kso_qt@@@2@PAVQEvent@2@PAUCalculationCache@2@@Z
?selectedColumns@QItemSelectionModel@kso_qt@@QBE?AV?$QList@VQModelIndex@kso_qt@@@2@H@Z
?selectedIndexes@QItemSelectionModel@kso_qt@@QBE?AV?$QList@VQModelIndex@kso_qt@@@2@XZ
?selectedRows@QItemSelectionModel@kso_qt@@QBE?AV?$QList@VQModelIndex@kso_qt@@@2@H@Z
?selection@QItemSelectionModel@kso_qt@@QBE?BVQItemSelection@2@XZ
?selectionChanged@QItemSelectionModel@kso_qt@@QAEXABVQItemSelection@2@0@Z
?selectionHelper@QFileSelectorPrivate@kso_qt@@SA?AVQString@2@ABV32@0ABVQStringList@2@ABVQChar@2@@Z
?self@QCoreApplication@kso_qt@@0PAV12@A
?sendEvent@QCoreApplication@kso_qt@@SA_NPAVQObject@2@PAVQEvent@2@@Z
?sendPostedEvents@QCoreApplication@kso_qt@@SAXPAVQObject@2@H@Z
?sendPostedEvents@QCoreApplicationPrivate@kso_qt@@SAXPAVQObject@2@HPAVQThreadData@2@@Z
?sendPostedEvents@QEventDispatcherWin32@kso_qt@@MAEXXZ
?sendSpontaneousEvent@QCoreApplication@kso_qt@@CA_NPAVQObject@2@PAVQEvent@2@@Z
?sendThroughApplicationEventFilters@QCoreApplicationPrivate@kso_qt@@QAE_NPAVQObject@2@PAVQEvent@2@@Z
?sendThroughObjectEventFilters@QCoreApplicationPrivate@kso_qt@@SA_NPAVQObject@2@PAVQEvent@2@@Z
?sendTimerEvent@QEventDispatcherWin32Private@kso_qt@@QAEXH@Z
?sender@QMetaCallEvent@kso_qt@@QBEPBVQObject@2@XZ
?sender@QObject@kso_qt@@IBEPAV12@XZ
?sender@SignalEvent@QStateMachine@kso_qt@@QBEPAVQObject@3@XZ
?senderList@QObjectPrivate@kso_qt@@QBE?AV?$QList@PAVQObject@kso_qt@@@2@XZ
?senderObject@QSignalTransition@kso_qt@@QBEPAVQObject@2@XZ
?senderObjectChanged@QSignalTransition@kso_qt@@QAEXUQPrivateSignal@12@@Z
?senderSignalIndex@QObject@kso_qt@@IBEHXZ
?sentenceBreakClass@QUnicodeTables@kso_qt@@YI?AW4SentenceBreakClass@12@I@Z
?separator@QDir@kso_qt@@SA?AVQChar@2@XZ
?serialize@QMetaObjectBuilder@kso_qt@@QBEXAAVQDataStream@2@@Z
?serialize@QTimeZonePrivate@kso_qt@@UBEXAAVQDataStream@2@@Z
?serialize@QUtcTimeZonePrivate@kso_qt@@UBEXAAVQDataStream@2@@Z
?set@QThreadStorageData@kso_qt@@QAEPAPAXPAX@Z
?setAccepted@QEvent@kso_qt@@QAEX_N@Z
?setAccess@QMetaMethodBuilder@kso_qt@@QAEXW4Access@QMetaMethod@2@@Z
?setAmplitude@QEasingCurve@kso_qt@@QAEXN@Z
?setAngle@QLineF@kso_qt@@QAEXN@Z
?setAnimated@QStateMachine@kso_qt@@QAEX_N@Z
?setApiRules@QLoggingRegistry@kso_qt@@QAEXABVQString@2@@Z
?setApplicationDescription@QCommandLineParser@kso_qt@@QAEXABVQString@2@@Z
?setApplicationFilePath@QCoreApplicationPrivate@kso_qt@@SAXABVQString@2@@Z
?setApplicationName@QCoreApplication@kso_qt@@SAXABVQString@2@@Z
?setApplicationVersion@QCoreApplication@kso_qt@@SAXABVQString@2@@Z
?setArguments@QProcess@kso_qt@@QAEXABVQStringList@2@@Z
?setArray@QJsonDocument@kso_qt@@QAEXABVQJsonArray@2@@Z
?setArrayIndex@QSettings@kso_qt@@QAEXH@Z
?setAtomicSyncRequired@QSettings@kso_qt@@QAEX_N@Z
?setAttribute@QCoreApplication@kso_qt@@SAXW4ApplicationAttribute@Qt@2@_N@Z
?setAttributes@QMetaMethodBuilder@kso_qt@@QAEXH@Z
?setAuthority@QUrl@kso_qt@@QAEXABVQString@2@W4ParsingMode@12@@Z
?setAutoDelete@QRunnable@kso_qt@@QAEX_N@Z
?setAutoDetectUnicode@QTextStream@kso_qt@@QAEX_N@Z
?setAutoFormatting@QXmlStreamWriter@kso_qt@@QAEX_N@Z
?setAutoFormattingIndent@QXmlStreamWriter@kso_qt@@QAEXH@Z
?setAutoInsertSpaces@QDebug@kso_qt@@QAEX_N@Z
?setAutoRemove@QTemporaryDir@kso_qt@@QAEX_N@Z
?setAutoRemove@QTemporaryFile@kso_qt@@QAEX_N@Z
?setBit@QBitArray@kso_qt@@QAEXH@Z
?setBit@QBitArray@kso_qt@@QAEXH_N@Z
?setBottom@QRect@kso_qt@@QAEXH@Z
?setBottom@QRectF@kso_qt@@QAEXN@Z
?setBottomLeft@QRect@kso_qt@@QAEXABVQPoint@2@@Z
?setBottomLeft@QRectF@kso_qt@@QAEXABVQPointF@2@@Z
?setBottomRight@QRect@kso_qt@@QAEXABVQPoint@2@@Z
?setBottomRight@QRectF@kso_qt@@QAEXABVQPointF@2@@Z
?setBuffer@QBuffer@kso_qt@@QAEXPAVQByteArray@2@@Z
?setByteOrder@QDataStream@kso_qt@@QAEXW4ByteOrder@12@@Z
?setCaching@QFileInfo@kso_qt@@QAEX_N@Z
?setCaseSensitivity@QCollator@kso_qt@@QAEXW4CaseSensitivity@Qt@2@@Z
?setCaseSensitivity@QRegExp@kso_qt@@QAEXW4CaseSensitivity@Qt@2@@Z
?setCaseSensitivity@QStringMatcher@kso_qt@@QAEXW4CaseSensitivity@Qt@2@@Z
?setCell@QChar@kso_qt@@QAEXE@Z
?setCell@QCharRef@kso_qt@@QAEXE@Z
?setChildMode@QState@kso_qt@@QAEXW4ChildMode@12@@Z
?setClassName@QMetaObjectBuilder@kso_qt@@QAEXABVQByteArray@2@@Z
?setCodec@QTextStream@kso_qt@@QAEXPAVQTextCodec@2@@Z
?setCodec@QTextStream@kso_qt@@QAEXPBD@Z
?setCodec@QXmlStreamWriter@kso_qt@@QAEXPAVQTextCodec@2@@Z
?setCodec@QXmlStreamWriter@kso_qt@@QAEXPBD@Z
?setCodecForLocale@QTextCodec@kso_qt@@SAXPAV12@@Z
?setColor@QMapNodeBase@kso_qt@@QAEXW4Color@12@@Z
?setColorData@QMimeData@kso_qt@@QAEXABVQVariant@2@@Z
?setConsistentTiming@QUnifiedTimer@kso_qt@@QAEX_N@Z
?setConstant@QMetaPropertyBuilder@kso_qt@@QAEX_N@Z
?setContent@QLoggingSettingsParser@kso_qt@@QAEXAAVQTextStream@2@@Z
?setContent@QLoggingSettingsParser@kso_qt@@QAEXABVQString@2@@Z
?setCoords@QRect@kso_qt@@QAEXHHHH@Z
?setCoords@QRectF@kso_qt@@QAEXNNNN@Z
?setCreateProcessArgumentsModifier@QProcess@kso_qt@@QAEXV?$function@$$A6AXPAUCreateProcessArguments@QProcess@kso_qt@@@Z@std@@@Z
?setCurrent@QDir@kso_qt@@SA_NABVQString@2@@Z
?setCurrentIndex@QItemSelectionModel@kso_qt@@UAEXABVQModelIndex@2@V?$QFlags@W4SelectionFlag@QItemSelectionModel@kso_qt@@@2@@Z
?setCurrentPath@QFSFileEngine@kso_qt@@SA_NABVQString@2@@Z
?setCurrentReadChannel@QIODevice@kso_qt@@QAEXH@Z
?setCurrentReadChannel@QIODevicePrivate@kso_qt@@QAEXH@Z
?setCurrentSender@QObjectPrivate@kso_qt@@SAPAUSender@12@PAVQObject@2@PAU312@@Z
?setCurrentTime@QAbstractAnimation@kso_qt@@QAEXH@Z
?setCurrentTime@QTimeLine@kso_qt@@QAEXH@Z
?setCurrentWriteChannel@QIODevice@kso_qt@@QAEXH@Z
?setCurrentWriteChannel@QIODevicePrivate@kso_qt@@QAEXH@Z
?setCurveShape@QTimeLine@kso_qt@@QAEXW4CurveShape@12@@Z
?setCustomType@QEasingCurve@kso_qt@@QAEXP6ANN@Z@Z
?setData@QAbstractItemModel@kso_qt@@UAE_NABVQModelIndex@2@ABVQVariant@2@H@Z
?setData@QAbstractProxyModel@kso_qt@@UAE_NABVQModelIndex@2@ABVQVariant@2@H@Z
?setData@QBuffer@kso_qt@@QAEXABVQByteArray@2@@Z
?setData@QBuffer@kso_qt@@QAEXPBDH@Z
?setData@QMimeData@kso_qt@@QAEXABVQString@2@ABVQByteArray@2@@Z
?setData@QSortFilterProxyModel@kso_qt@@UAE_NABVQModelIndex@2@ABVQVariant@2@H@Z
?setData@QStringListModel@kso_qt@@UAE_NABVQModelIndex@2@ABVQVariant@2@H@Z
?setDate@QDate@kso_qt@@QAE_NHHH@Z
?setDate@QDateTime@kso_qt@@QAEXABVQDate@2@@Z
?setDeadline@QDeadlineTimer@kso_qt@@QAEX_JW4TimerType@Qt@2@@Z
?setDecodingFunction@QFile@kso_qt@@SAXP6A?AVQString@2@ABVQByteArray@2@@Z@Z
?setDefault@QLocale@kso_qt@@SAXABV12@@Z
?setDefaultFormat@QSettings@kso_qt@@SAXW4Format@12@@Z
?setDefaultLocale@QDateTimeParser@kso_qt@@QAEXABVQLocale@2@@Z
?setDefaultState@QHistoryState@kso_qt@@QAEXPAVQAbstractState@2@@Z
?setDefaultTransition@QHistoryState@kso_qt@@QAEXPAVQAbstractTransition@2@@Z
?setDefaultValue@QCommandLineOption@kso_qt@@QAEXABVQString@2@@Z
?setDefaultValues@QCommandLineOption@kso_qt@@QAEXABVQStringList@2@@Z
?setDescription@QCommandLineOption@kso_qt@@QAEXABVQString@2@@Z
?setDesignable@QMetaPropertyBuilder@kso_qt@@QAEX_N@Z
?setDevice@QCborStreamReader@kso_qt@@QAEXPAVQIODevice@2@@Z
?setDevice@QCborStreamWriter@kso_qt@@QAEXPAVQIODevice@2@@Z
?setDevice@QDataStream@kso_qt@@QAEXPAVQIODevice@2@@Z
?setDevice@QTextStream@kso_qt@@QAEXPAVQIODevice@2@@Z
?setDevice@QXmlStreamReader@kso_qt@@QAEXPAVQIODevice@2@@Z
?setDevice@QXmlStreamWriter@kso_qt@@QAEXPAVQIODevice@2@@Z
?setDigit@QDateTimeParser@kso_qt@@IBE_NAAVQDateTime@2@HH@Z
?setDirectWriteFallback@QSaveFile@kso_qt@@QAEX_N@Z
?setDirection@QAbstractAnimation@kso_qt@@QAEXW4Direction@12@@Z
?setDirection@QTimeLine@kso_qt@@QAEXW4Direction@12@@Z
?setDuration@QPauseAnimation@kso_qt@@QAEXH@Z
?setDuration@QTimeLine@kso_qt@@QAEXH@Z
?setDuration@QVariantAnimation@kso_qt@@QAEXH@Z
?setDynamicSortFilter@QSortFilterProxyModel@kso_qt@@QAEX_N@Z
?setEasingCurve@QTimeLine@kso_qt@@QAEXABVQEasingCurve@2@@Z
?setEasingCurve@QVariantAnimation@kso_qt@@QAEXABVQEasingCurve@2@@Z
?setEditable@QMetaPropertyBuilder@kso_qt@@QAEX_N@Z
?setEnabled@QLoggingCategory@kso_qt@@QAEXW4QtMsgType@2@_N@Z
?setEnabled@QSocketNotifier@kso_qt@@QAEX_N@Z
?setEnabled@QWinEventNotifier@kso_qt@@QAEX_N@Z
?setEncodedFragment@QUrl@kso_qt@@QAEXABVQByteArray@2@@Z
?setEncodedHost@QUrl@kso_qt@@QAEXABVQByteArray@2@@Z
?setEncodedPassword@QUrl@kso_qt@@QAEXABVQByteArray@2@@Z
?setEncodedPath@QUrl@kso_qt@@QAEXABVQByteArray@2@@Z
?setEncodedQuery@QUrl@kso_qt@@QAEXABVQByteArray@2@@Z
?setEncodedQueryItems@QUrl@kso_qt@@QAEXABV?$QList@U?$QPair@VQByteArray@kso_qt@@V12@@kso_qt@@@2@@Z
?setEncodedUrl@QUrl@kso_qt@@QAEXABVQByteArray@2@W4ParsingMode@12@@Z
?setEncodedUserName@QUrl@kso_qt@@QAEXABVQByteArray@2@@Z
?setEncodingFunction@QFile@kso_qt@@SAXP6A?AVQByteArray@2@ABVQString@2@@Z@Z
?setEndFrame@QTimeLine@kso_qt@@QAEXH@Z
?setEndValue@QVariantAnimation@kso_qt@@QAEXABVQVariant@2@@Z
?setEntityResolver@QXmlStreamReader@kso_qt@@QAEXPAVQXmlStreamEntityResolver@2@@Z
?setEnumName@QMetaEnumBuilder@kso_qt@@QAEXABVQByteArray@2@@Z
?setEnumOrFlag@QMetaPropertyBuilder@kso_qt@@QAEX_N@Z
?setEnvironment@QProcess@kso_qt@@QAEXABVQStringList@2@@Z
?setError@QAbstractFileEngine@kso_qt@@IAEXW4FileError@QFileDevice@2@ABVQString@2@@Z
?setError@QStateMachinePrivate@kso_qt@@QAEXW4Error@QStateMachine@2@PAVQAbstractState@2@@Z
?setErrorState@QState@kso_qt@@QAEXPAVQAbstractState@2@@Z
?setErrorString@QIODevice@kso_qt@@IAEXABVQString@2@@Z
?setErrorString@QSharedMemoryPrivate@kso_qt@@QAEXVQLatin1String@2@@Z
?setEventDispatcher@QCoreApplication@kso_qt@@SAXPAVQAbstractEventDispatcher@2@@Z
?setEventDispatcher@QThread@kso_qt@@QAEXPAVQAbstractEventDispatcher@2@@Z
?setEventSource@QEventTransition@kso_qt@@QAEXPAVQObject@2@@Z
?setEventSpontaneous@QCoreApplicationPrivate@kso_qt@@SAXPAVQEvent@2@_N@Z
?setEventType@QEventTransition@kso_qt@@QAEXW4Type@QEvent@2@@Z
?setException@ExceptionStore@QtPrivate@kso_qt@@QAEXABVQException@3@@Z
?setExpectedResultCount@QFutureInterfaceBase@kso_qt@@QAEXH@Z
?setExpiryTimeout@QThreadPool@kso_qt@@QAEXH@Z
?setExtraSelectors@QFileSelector@kso_qt@@QAEXABVQStringList@2@@Z
?setFallbacksEnabled@QSettings@kso_qt@@QAEX_N@Z
?setFieldAlignment@QTextStream@kso_qt@@QAEXW4FieldAlignment@12@@Z
?setFieldWidth@QTextStream@kso_qt@@QAEXH@Z
?setFile@QFileInfo@kso_qt@@QAEXABVQDir@2@ABVQString@2@@Z
?setFile@QFileInfo@kso_qt@@QAEXABVQFile@2@@Z
?setFile@QFileInfo@kso_qt@@QAEXABVQString@2@@Z
?setFileName@QAbstractFileEngine@kso_qt@@UAEXABVQString@2@@Z
?setFileName@QFSFileEngine@kso_qt@@UAEXABVQString@2@@Z
?setFileName@QFile@kso_qt@@QAEXABVQString@2@@Z
?setFileName@QLibrary@kso_qt@@QAEXABVQString@2@@Z
?setFileName@QPluginLoader@kso_qt@@QAEXABVQString@2@@Z
?setFileName@QResource@kso_qt@@QAEXABVQString@2@@Z
?setFileName@QSaveFile@kso_qt@@QAEXABVQString@2@@Z
?setFileNameAndVersion@QLibrary@kso_qt@@QAEXABVQString@2@0@Z
?setFileNameAndVersion@QLibrary@kso_qt@@QAEXABVQString@2@H@Z
?setFileTemplate@QTemporaryFile@kso_qt@@QAEXABVQString@2@@Z
?setFileTime@QAbstractFileEngine@kso_qt@@UAE_NABVQDateTime@2@W4FileTime@12@@Z
?setFileTime@QFSFileEngine@kso_qt@@UAE_NABVQDateTime@2@W4FileTime@QAbstractFileEngine@2@@Z
?setFileTime@QFileDevice@kso_qt@@QAE_NABVQDateTime@2@W4FileTime@12@@Z
?setFilter@QDir@kso_qt@@QAEXV?$QFlags@W4Filter@QDir@kso_qt@@@2@@Z
?setFilterCaseSensitivity@QSortFilterProxyModel@kso_qt@@QAEXW4CaseSensitivity@Qt@2@@Z
?setFilterFixedString@QSortFilterProxyModel@kso_qt@@QAEXABVQString@2@@Z
?setFilterKeyColumn@QSortFilterProxyModel@kso_qt@@QAEXH@Z
?setFilterMode@QFutureInterfaceBase@kso_qt@@QAEX_N@Z
?setFilterMode@ResultStoreBase@QtPrivate@kso_qt@@QAEX_N@Z
?setFilterRegExp@QSortFilterProxyModel@kso_qt@@QAEXABVQRegExp@2@@Z
?setFilterRegExp@QSortFilterProxyModel@kso_qt@@QAEXABVQString@2@@Z
?setFilterRegularExpression@QSortFilterProxyModel@kso_qt@@QAEXABVQRegularExpression@2@@Z
?setFilterRegularExpression@QSortFilterProxyModel@kso_qt@@QAEXABVQString@2@@Z
?setFilterRole@QSortFilterProxyModel@kso_qt@@QAEXH@Z
?setFilterRules@QLoggingCategory@kso_qt@@SAXABVQString@2@@Z
?setFilterWildcard@QSortFilterProxyModel@kso_qt@@QAEXABVQString@2@@Z
?setFinal@QMetaPropertyBuilder@kso_qt@@QAEX_N@Z
?setFlags@QCommandLineOption@kso_qt@@QAEXV?$QFlags@W4Flag@QCommandLineOption@kso_qt@@@2@@Z
?setFlags@QMetaObjectBuilder@kso_qt@@QAEXV?$QFlags@W4MetaObjectFlag@QMetaObjectBuilder@kso_qt@@@2@@Z
?setFloatingPointPrecision@QDataStream@kso_qt@@QAEXW4FloatingPointPrecision@12@@Z
?setFragment@QUrl@kso_qt@@QAEXABVQString@2@W4ParsingMode@12@@Z
?setFrameRange@QTimeLine@kso_qt@@QAEXHH@Z
?setGenerateByteOrderMark@QTextStream@kso_qt@@QAEX_N@Z
?setGlobalRestorePolicy@QStateMachine@kso_qt@@QAEXW4RestorePolicy@QState@2@@Z
?setHMS@QTime@kso_qt@@QAE_NHHHH@Z
?setHandle@QWinEventNotifier@kso_qt@@QAEXPAX@Z
?setHandle@QWindowsPipeReader@kso_qt@@QAEXPAX@Z
?setHeaderData@QAbstractItemModel@kso_qt@@UAE_NHW4Orientation@Qt@2@ABVQVariant@2@H@Z
?setHeaderData@QAbstractProxyModel@kso_qt@@UAE_NHW4Orientation@Qt@2@ABVQVariant@2@H@Z
?setHeaderData@QSortFilterProxyModel@kso_qt@@UAE_NHW4Orientation@Qt@2@ABVQVariant@2@H@Z
?setHeight@QRect@kso_qt@@QAEXH@Z
?setHeight@QRectF@kso_qt@@QAEXN@Z
?setHeight@QSize@kso_qt@@QAEXH@Z
?setHeight@QSizeF@kso_qt@@QAEXN@Z
?setHidden@QCommandLineOption@kso_qt@@QAEX_N@Z
?setHistoryType@QHistoryState@kso_qt@@QAEXW4HistoryType@12@@Z
?setHost@QUrl@kso_qt@@QAEXABVQString@2@W4ParsingMode@12@@Z
?setHtml@QMimeData@kso_qt@@QAEXABVQString@2@@Z
?setIdnWhitelist@QUrl@kso_qt@@SAXABVQStringList@2@@Z
?setIgnorePunctuation@QCollator@kso_qt@@QAEX_N@Z
?setImageData@QMimeData@kso_qt@@QAEXABVQVariant@2@@Z
?setImplicitRulesSection@QLoggingSettingsParser@kso_qt@@QAEX_N@Z
?setIniCodec@QSettings@kso_qt@@QAEXPAVQTextCodec@2@@Z
?setIniCodec@QSettings@kso_qt@@QAEXPBD@Z
?setInitialState@QState@kso_qt@@QAEXPAVQAbstractState@2@@Z
?setInputChannelMode@QProcess@kso_qt@@QAEXW4InputChannelMode@12@@Z
?setIntegerBase@QTextStream@kso_qt@@QAEXH@Z
?setInterval@QTimer@kso_qt@@QAEXH@Z
?setInterval@QTimer@kso_qt@@QAEXV?$duration@_JU?$ratio@$00$0DOI@@std@@@chrono@std@@@Z
?setIsFlag@QMetaEnumBuilder@kso_qt@@QAEX_N@Z
?setIsScoped@QMetaEnumBuilder@kso_qt@@QAEX_N@Z
?setItemData@QAbstractItemModel@kso_qt@@UAE_NABVQModelIndex@2@ABV?$QMap@HVQVariant@kso_qt@@@2@@Z
?setItemData@QAbstractProxyModel@kso_qt@@UAE_NABVQModelIndex@2@ABV?$QMap@HVQVariant@kso_qt@@@2@@Z
?setKey@QMessageAuthenticationCode@kso_qt@@QAEXABVQByteArray@2@@Z
?setKey@QSharedMemory@kso_qt@@QAEXABVQString@2@@Z
?setKey@QSystemSemaphore@kso_qt@@QAEXABVQString@2@HW4AccessMode@12@@Z
?setKeyInputSourceID@QLocale@kso_qt@@QAEXABVQString@2@@Z
?setKeyInputSourceID@QLocalePrivate@kso_qt@@QAEXABVQString@2@@Z
?setKeyValueAt@QVariantAnimation@kso_qt@@QAEXNABVQVariant@2@@Z
?setKeyValues@QVariantAnimation@kso_qt@@QAEXABV?$QVector@U?$QPair@NVQVariant@kso_qt@@@kso_qt@@@2@@Z
?setLeft@QRect@kso_qt@@QAEXH@Z
?setLeft@QRectF@kso_qt@@QAEXN@Z
?setLength@QLineF@kso_qt@@QAEXN@Z
?setLibraryPaths@QCoreApplication@kso_qt@@SAXABVQStringList@2@@Z
?setLine@QLine@kso_qt@@QAEXHHHH@Z
?setLine@QLineF@kso_qt@@QAEXNNNN@Z
?setLoadHints@QLibrary@kso_qt@@QAEXV?$QFlags@W4LoadHint@QLibrary@kso_qt@@@2@@Z
?setLoadHints@QPluginLoader@kso_qt@@QAEXV?$QFlags@W4LoadHint@QLibrary@kso_qt@@@2@@Z
?setLocale@QCollator@kso_qt@@QAEXABVQLocale@2@@Z
?setLocale@QResource@kso_qt@@QAEXABVQLocale@2@@Z
?setLocale@QTextStream@kso_qt@@QAEXABVQLocale@2@@Z
?setLoopCount@QAbstractAnimation@kso_qt@@QAEXH@Z
?setLoopCount@QTimeLine@kso_qt@@QAEXH@Z
?setMSecsSinceEpoch@QDateTime@kso_qt@@QAEX_J@Z
?setMapping@QSignalMapper@kso_qt@@QAEXPAVQObject@2@0@Z
?setMapping@QSignalMapper@kso_qt@@QAEXPAVQObject@2@ABVQString@2@@Z
?setMapping@QSignalMapper@kso_qt@@QAEXPAVQObject@2@H@Z
?setMapping@QSignalMapper@kso_qt@@QAEXPAVQObject@2@PAVQWidget@2@@Z
?setMaxReadBufferSize@QWindowsPipeReader@kso_qt@@QAEX_J@Z
?setMaxThreadCount@QThreadPool@kso_qt@@QAEXH@Z
?setMinimal@QRegExp@kso_qt@@QAEX_N@Z
?setModel@QItemSelectionModel@kso_qt@@QAEXPAVQAbstractItemModel@2@@Z
?setNameFilters@QDir@kso_qt@@QAEXABVQStringList@2@@Z
?setNamespaceProcessing@QXmlStreamReader@kso_qt@@QAEX_N@Z
?setNativeArguments@QProcess@kso_qt@@QAEXABVQString@2@@Z
?setNativeKey@QSharedMemory@kso_qt@@QAEXABVQString@2@@Z
?setNotifySignal@QMetaPropertyBuilder@kso_qt@@QAEXABVQMetaMethodBuilder@2@@Z
?setNum@QByteArray@kso_qt@@QAEAAV12@FH@Z
?setNum@QByteArray@kso_qt@@QAEAAV12@GH@Z
?setNum@QByteArray@kso_qt@@QAEAAV12@HH@Z
?setNum@QByteArray@kso_qt@@QAEAAV12@IH@Z
?setNum@QByteArray@kso_qt@@QAEAAV12@MDH@Z
?setNum@QByteArray@kso_qt@@QAEAAV12@NDH@Z
?setNum@QByteArray@kso_qt@@QAEAAV12@_JH@Z
?setNum@QByteArray@kso_qt@@QAEAAV12@_KH@Z
?setNum@QString@kso_qt@@QAEAAV12@FH@Z
?setNum@QString@kso_qt@@QAEAAV12@GH@Z
?setNum@QString@kso_qt@@QAEAAV12@HH@Z
?setNum@QString@kso_qt@@QAEAAV12@IH@Z
?setNum@QString@kso_qt@@QAEAAV12@JH@Z
?setNum@QString@kso_qt@@QAEAAV12@KH@Z
?setNum@QString@kso_qt@@QAEAAV12@MDH@Z
?setNum@QString@kso_qt@@QAEAAV12@NDH@Z
?setNum@QString@kso_qt@@QAEAAV12@_JH@Z
?setNum@QString@kso_qt@@QAEAAV12@_KH@Z
?setNumberFlags@QTextStream@kso_qt@@QAEXV?$QFlags@W4NumberFlag@QTextStream@kso_qt@@@2@@Z
?setNumberOptions@QLocale@kso_qt@@QAEXV?$QFlags@W4NumberOption@QLocale@kso_qt@@@2@@Z
?setNumericMode@QCollator@kso_qt@@QAEX_N@Z
?setObject@QJsonDocument@kso_qt@@QAEXABVQJsonObject@2@@Z
?setObjectName@QObject@kso_qt@@QAEXABVQString@2@@Z
?setOffsetFromUtc@QDateTime@kso_qt@@QAEXH@Z
?setOpenMode@QIODevice@kso_qt@@IAEXV?$QFlags@W4OpenModeFlag@QIODevice@kso_qt@@@2@@Z
?setOptionsAfterPositionalArgumentsMode@QCommandLineParser@kso_qt@@QAEXW4OptionsAfterPositionalArgumentsMode@12@@Z
?setOrganizationDomain@QCoreApplication@kso_qt@@SAXABVQString@2@@Z
?setOrganizationName@QCoreApplication@kso_qt@@SAXABVQString@2@@Z
?setOvershoot@QEasingCurve@kso_qt@@QAEXN@Z
?setP1@QLine@kso_qt@@QAEXABVQPoint@2@@Z
?setP1@QLineF@kso_qt@@QAEXABVQPointF@2@@Z
?setP2@QLine@kso_qt@@QAEXABVQPoint@2@@Z
?setP2@QLineF@kso_qt@@QAEXABVQPointF@2@@Z
?setPadChar@QTextStream@kso_qt@@QAEXVQChar@2@@Z
?setParameterNames@QMetaMethodBuilder@kso_qt@@QAEXABV?$QList@VQByteArray@kso_qt@@@2@@Z
?setParent@QMapNodeBase@kso_qt@@QAEXPAU12@@Z
?setParent@QObject@kso_qt@@QAEXPAV12@@Z
?setParent_helper@QObjectPrivate@kso_qt@@QAEXPAVQObject@2@@Z
?setPassword@QUrl@kso_qt@@QAEXABVQString@2@W4ParsingMode@12@@Z
?setPath@QAbstractFileEngineIterator@kso_qt@@AAEXABVQString@2@@Z
?setPath@QDir@kso_qt@@QAEXABVQString@2@@Z
?setPath@QSettings@kso_qt@@SAXW4Format@12@W4Scope@12@ABVQString@2@@Z
?setPath@QStorageInfo@kso_qt@@QAEXABVQString@2@@Z
?setPath@QUrl@kso_qt@@QAEXABVQString@2@W4ParsingMode@12@@Z
?setPattern@QByteArrayMatcher@kso_qt@@QAEXABVQByteArray@2@@Z
?setPattern@QRegExp@kso_qt@@QAEXABVQString@2@@Z
?setPattern@QRegularExpression@kso_qt@@QAEXABVQString@2@@Z
?setPattern@QStringMatcher@kso_qt@@QAEXABVQString@2@@Z
?setPatternOptions@QRegularExpression@kso_qt@@QAEXV?$QFlags@W4PatternOption@QRegularExpression@kso_qt@@@2@@Z
?setPatternSyntax@QRegExp@kso_qt@@QAEXW4PatternSyntax@12@@Z
?setPaused@QAbstractAnimation@kso_qt@@QAEX_N@Z
?setPaused@QFutureInterfaceBase@kso_qt@@QAEX_N@Z
?setPaused@QFutureWatcherBase@kso_qt@@QAEX_N@Z
?setPaused@QTimeLine@kso_qt@@QAEX_N@Z
?setPendingResultsLimit@QFutureWatcherBase@kso_qt@@QAEXH@Z
?setPeriod@QEasingCurve@kso_qt@@QAEXN@Z
?setPermissions@QAbstractFileEngine@kso_qt@@UAE_NI@Z
?setPermissions@QFSFileEngine@kso_qt@@UAE_NI@Z
?setPermissions@QFile@kso_qt@@SA_NABVQString@2@V?$QFlags@W4Permission@QFileDevice@kso_qt@@@2@@Z
?setPermissions@QFile@kso_qt@@UAE_NV?$QFlags@W4Permission@QFileDevice@kso_qt@@@2@@Z
?setPermissions@QFileDevice@kso_qt@@UAE_NV?$QFlags@W4Permission@QFileDevice@kso_qt@@@2@@Z
?setPoints@QLine@kso_qt@@QAEXABVQPoint@2@0@Z
?setPoints@QLineF@kso_qt@@QAEXABVQPointF@2@0@Z
?setPort@QUrl@kso_qt@@QAEXH@Z
?setPosition@QTextBoundaryFinder@kso_qt@@QAEXH@Z
?setPreciseDeadline@QDeadlineTimer@kso_qt@@QAEX_J0W4TimerType@Qt@2@@Z
?setPreciseRemainingTime@QDeadlineTimer@kso_qt@@QAEX_J0W4TimerType@Qt@2@@Z
?setPriority@QThread@kso_qt@@QAEXW4Priority@12@@Z
?setProcessChannelMode@QProcess@kso_qt@@QAEXW4ProcessChannelMode@12@@Z
?setProcessEnvironment@QProcess@kso_qt@@QAEXABVQProcessEnvironment@2@@Z
?setProcessState@QProcess@kso_qt@@IAEXW4ProcessState@12@@Z
?setProgram@QProcess@kso_qt@@QAEXABVQString@2@@Z
?setProgressRange@QFutureInterfaceBase@kso_qt@@QAEXHH@Z
?setProgressValue@QFutureInterfaceBase@kso_qt@@QAEXH@Z
?setProgressValueAndText@QFutureInterfaceBase@kso_qt@@QAEXHABVQString@2@@Z
?setProperty@QObject@kso_qt@@QAE_NPBDABVQVariant@2@@Z
?setPropertyName@QPropertyAnimation@kso_qt@@QAEXABVQByteArray@2@@Z
?setQObjectShared@ExternalRefCountData@QtSharedPointer@kso_qt@@QAEXPBVQObject@3@_N@Z
?setQuery@QUrl@kso_qt@@QAEXABVQString@2@W4ParsingMode@12@@Z
?setQuery@QUrl@kso_qt@@QAEXABVQUrlQuery@2@@Z
?setQuery@QUrlQuery@kso_qt@@QAEXABVQString@2@@Z
?setQueryDelimiters@QUrlQuery@kso_qt@@QAEXVQChar@2@0@Z
?setQueryItems@QUrl@kso_qt@@QAEXABV?$QList@U?$QPair@VQString@kso_qt@@V12@@kso_qt@@@2@@Z
?setQueryItems@QUrlQuery@kso_qt@@QAEXABV?$QList@U?$QPair@VQString@kso_qt@@V12@@kso_qt@@@2@@Z
?setQuitLockEnabled@QCoreApplication@kso_qt@@SAX_N@Z
?setRawData@QByteArray@kso_qt@@QAEAAV12@PBDI@Z
?setRawData@QString@kso_qt@@QAEAAV12@PBVQChar@2@H@Z
?setReadChannel@QProcess@kso_qt@@QAEXW4ProcessChannel@12@@Z
?setReadChannelCount@QIODevicePrivate@kso_qt@@QAEXH@Z
?setReadChannelMode@QProcess@kso_qt@@QAEXW4ProcessChannelMode@12@@Z
?setReadable@QMetaPropertyBuilder@kso_qt@@QAEX_N@Z
?setRealNumberNotation@QTextStream@kso_qt@@QAEXW4RealNumberNotation@12@@Z
?setRealNumberPrecision@QTextStream@kso_qt@@QAEXH@Z
?setRect@QRect@kso_qt@@QAEXHHHH@Z
?setRect@QRectF@kso_qt@@QAEXNNNN@Z
?setRecursiveFilteringEnabled@QSortFilterProxyModel@kso_qt@@QAEX_N@Z
?setRemainingTime@QDeadlineTimer@kso_qt@@QAEX_JW4TimerType@Qt@2@@Z
?setResettable@QMetaPropertyBuilder@kso_qt@@QAEX_N@Z
?setReturnType@QMetaMethodBuilder@kso_qt@@QAEXABVQByteArray@2@@Z
?setRevision@QMetaMethodBuilder@kso_qt@@QAEXH@Z
?setRevision@QMetaPropertyBuilder@kso_qt@@QAEXH@Z
?setRight@QRect@kso_qt@@QAEXH@Z
?setRight@QRectF@kso_qt@@QAEXN@Z
?setRoleNames@QAbstractItemModel@kso_qt@@IAEXABV?$QHash@HVQByteArray@kso_qt@@@2@@Z
?setRow@QChar@kso_qt@@QAEXE@Z
?setRow@QCharRef@kso_qt@@QAEXE@Z
?setRunnable@QFutureInterfaceBase@kso_qt@@QAEXPAVQRunnable@2@@Z
?setRunning@QStateMachine@kso_qt@@QAEX_N@Z
?setScheme@QUrl@kso_qt@@QAEXABVQString@2@@Z
?setScriptable@QMetaPropertyBuilder@kso_qt@@QAEX_N@Z
?setSearchPaths@QDir@kso_qt@@SAXABVQString@2@ABVQStringList@2@@Z
?setSecsSinceEpoch@QDateTime@kso_qt@@QAEX_J@Z
?setSenderObject@QSignalTransition@kso_qt@@QAEXPBVQObject@2@@Z
?setSetuidAllowed@QCoreApplication@kso_qt@@SAX_N@Z
?setSharable@?$QList@VQItemSelectionRange@kso_qt@@@kso_qt@@QAEX_N@Z
?setSharable@?$QVector@VQPoint@kso_qt@@@kso_qt@@QAEX_N@Z
?setSharable@?$QVector@VQPointF@kso_qt@@@kso_qt@@QAEX_N@Z
?setSharable@?$QVector@VQXmlStreamAttribute@kso_qt@@@kso_qt@@QAEX_N@Z
?setSignal@QSignalTransition@kso_qt@@QAEXABVQByteArray@2@@Z
?setSingleDashWordOptionMode@QCommandLineParser@kso_qt@@QAEXW4SingleDashWordOptionMode@12@@Z
?setSingleShot@QTimer@kso_qt@@QAEX_N@Z
?setSize@QAbstractFileEngine@kso_qt@@UAE_N_J@Z
?setSize@QFSFileEngine@kso_qt@@UAE_N_J@Z
?setSize@QRect@kso_qt@@QAEXABVQSize@2@@Z
?setSize@QRectF@kso_qt@@QAEXABVQSizeF@2@@Z
?setSlowModeEnabled@QUnifiedTimer@kso_qt@@QAEX_N@Z
?setSlowdownFactor@QUnifiedTimer@kso_qt@@QAEXN@Z
?setSortCaseSensitivity@QSortFilterProxyModel@kso_qt@@QAEXW4CaseSensitivity@Qt@2@@Z
?setSortLocaleAware@QSortFilterProxyModel@kso_qt@@QAEX_N@Z
?setSortRole@QSortFilterProxyModel@kso_qt@@QAEXH@Z
?setSorting@QDir@kso_qt@@QAEXV?$QFlags@W4SortFlag@QDir@kso_qt@@@2@@Z
?setSourceModel@QAbstractProxyModel@kso_qt@@UAEXPAVQAbstractItemModel@2@@Z
?setSourceModel@QIdentityProxyModel@kso_qt@@UAEXPAVQAbstractItemModel@2@@Z
?setSourceModel@QSortFilterProxyModel@kso_qt@@UAEXPAVQAbstractItemModel@2@@Z
?setSpontaneous@QEvent@kso_qt@@AAEXXZ
?setStackSize@QThread@kso_qt@@QAEXI@Z
?setStackSize@QThreadPool@kso_qt@@QAEXI@Z
?setStaleLockTime@QLockFile@kso_qt@@QAEXH@Z
?setStandardErrorFile@QProcess@kso_qt@@QAEXABVQString@2@V?$QFlags@W4OpenModeFlag@QIODevice@kso_qt@@@2@@Z
?setStandardInputFile@QProcess@kso_qt@@QAEXABVQString@2@@Z
?setStandardOutputFile@QProcess@kso_qt@@QAEXABVQString@2@V?$QFlags@W4OpenModeFlag@QIODevice@kso_qt@@@2@@Z
?setStandardOutputProcess@QProcess@kso_qt@@QAEXPAV12@@Z
?setStartFrame@QTimeLine@kso_qt@@QAEXH@Z
?setStartTime@QAnimationDriver@kso_qt@@QAEX_J@Z
?setStartValue@QVariantAnimation@kso_qt@@QAEXABVQVariant@2@@Z
?setStaticMetacallFunction@QMetaObjectBuilder@kso_qt@@QAEXP6AXPAVQObject@2@W4Call@QMetaObject@2@HPAPAX@Z@Z
?setStatus@QDataStream@kso_qt@@QAEXW4Status@12@@Z
?setStatus@QSettingsPrivate@kso_qt@@QBEXW4Status@QSettings@2@@Z
?setStatus@QTextStream@kso_qt@@QAEXW4Status@12@@Z
?setStdCppSet@QMetaPropertyBuilder@kso_qt@@QAEX_N@Z
?setStored@QMetaPropertyBuilder@kso_qt@@QAEX_N@Z
?setString@QTextStream@kso_qt@@QAEXPAVQString@2@V?$QFlags@W4OpenModeFlag@QIODevice@kso_qt@@@2@@Z
?setStringList@QStringListModel@kso_qt@@QAEXABVQStringList@2@@Z
?setSuperClass@QMetaObjectBuilder@kso_qt@@QAEXPBUQMetaObject@2@@Z
?setSupportedDragActions@QAbstractItemModel@kso_qt@@QAEXV?$QFlags@W4DropAction@Qt@kso_qt@@@2@@Z
?setSystemIniPath@QSettings@kso_qt@@SAXABVQString@2@@Z
?setTag@QMetaMethodBuilder@kso_qt@@QAEXABVQByteArray@2@@Z
?setTargetObject@QPropertyAnimation@kso_qt@@QAEXPAVQObject@2@@Z
?setTargetState@QAbstractTransition@kso_qt@@QAEXPAVQAbstractState@2@@Z
?setTargetStates@QAbstractTransition@kso_qt@@QAEXABV?$QList@PAVQAbstractState@kso_qt@@@2@@Z
?setTerminationEnabled@QThread@kso_qt@@KAX_N@Z
?setTestModeEnabled@QStandardPaths@kso_qt@@SAX_N@Z
?setText@QMimeData@kso_qt@@QAEXABVQString@2@@Z
?setTextModeEnabled@QIODevice@kso_qt@@QAEX_N@Z
?setThreadData_helper@QObjectPrivate@kso_qt@@QAEXPAVQThreadData@2@0@Z
?setThreadPool@QFutureInterfaceBase@kso_qt@@QAEXPAVQThreadPool@2@@Z
?setThrottled@QFutureInterfaceBase@kso_qt@@QAEX_N@Z
?setTime@QDateTime@kso_qt@@QAEXABVQTime@2@@Z
?setTimeSpec@QDateTime@kso_qt@@QAEXW4TimeSpec@Qt@2@@Z
?setTimeZone@QDateTime@kso_qt@@QAEXABVQTimeZone@2@@Z
?setTime_t@QDateTime@kso_qt@@QAEXI@Z
?setTimerType@QDeadlineTimer@kso_qt@@QAEXW4TimerType@Qt@2@@Z
?setTimerType@QTimer@kso_qt@@QAEXW4TimerType@Qt@2@@Z
?setTimingInterval@QUnifiedTimer@kso_qt@@QAEXH@Z
?setTop@QRect@kso_qt@@QAEXH@Z
?setTop@QRectF@kso_qt@@QAEXN@Z
?setTopLeft@QRect@kso_qt@@QAEXABVQPoint@2@@Z
?setTopLeft@QRectF@kso_qt@@QAEXABVQPointF@2@@Z
?setTopRight@QRect@kso_qt@@QAEXABVQPoint@2@@Z
?setTopRight@QRectF@kso_qt@@QAEXABVQPointF@2@@Z
?setTransitionType@QAbstractTransition@kso_qt@@QAEXW4TransitionType@12@@Z
?setType@QEasingCurve@kso_qt@@QAEXW4Type@12@@Z
?setUnicode@QString@kso_qt@@QAEAAV12@PBVQChar@2@H@Z
?setUpdateInterval@QTimeLine@kso_qt@@QAEXH@Z
?setUrl@QUrl@kso_qt@@QAEXABVQString@2@W4ParsingMode@12@@Z
?setUrls@QMimeData@kso_qt@@QAEXABV?$QList@VQUrl@kso_qt@@@2@@Z
?setUser@QMetaPropertyBuilder@kso_qt@@QAEX_N@Z
?setUserData@QObject@kso_qt@@QAEXIPAVQObjectUserData@2@@Z
?setUserInfo@QUrl@kso_qt@@QAEXABVQString@2@W4ParsingMode@12@@Z
?setUserIniPath@QSettings@kso_qt@@SAXABVQString@2@@Z
?setUserName@QUrl@kso_qt@@QAEXABVQString@2@W4ParsingMode@12@@Z
?setUtcOffset@QDateTime@kso_qt@@QAEXH@Z
?setUtf16@QString@kso_qt@@QAEAAV12@PBGH@Z
?setValue@QSettings@kso_qt@@QAEXABVQString@2@ABVQVariant@2@@Z
?setValueAt@QJsonObject@kso_qt@@AAEXHABVQJsonValue@2@@Z
?setValueName@QCommandLineOption@kso_qt@@QAEXABVQString@2@@Z
?setVector@SegmentStorage@QVersionNumber@kso_qt@@AAEXHHHH@Z
?setVerbosity@QDebug@kso_qt@@QAEXH@Z
?setVersion@QDataStream@kso_qt@@QAEXH@Z
?setWidgetParent@QAbstractDeclarativeData@kso_qt@@2P6AXPAVQObject@2@0@ZA
?setWidth@QRect@kso_qt@@QAEXH@Z
?setWidth@QRectF@kso_qt@@QAEXN@Z
?setWidth@QSize@kso_qt@@QAEXH@Z
?setWidth@QSizeF@kso_qt@@QAEXN@Z
?setWorkingDirectory@QProcess@kso_qt@@QAEXABVQString@2@@Z
?setWritable@QMetaPropertyBuilder@kso_qt@@QAEX_N@Z
?setWriteChannelCount@QIODevicePrivate@kso_qt@@QAEXH@Z
?setX@QPoint@kso_qt@@QAEXH@Z
?setX@QPointF@kso_qt@@QAEXN@Z
?setX@QRect@kso_qt@@QAEXH@Z
?setX@QRectF@kso_qt@@QAEXN@Z
?setY@QPoint@kso_qt@@QAEXH@Z
?setY@QPointF@kso_qt@@QAEXN@Z
?setY@QRect@kso_qt@@QAEXH@Z
?setY@QRectF@kso_qt@@QAEXN@Z
?setYMD@QDate@kso_qt@@QAE_NHHH@Z
?setuidAllowed@QCoreApplicationPrivate@kso_qt@@2_NA
?setupChildProcess@QProcess@kso_qt@@MAEXXZ
?sharedNull@QArrayData@kso_qt@@SAPAU12@XZ
?sharedPointerFromVariant_internal@QtSharedPointer@kso_qt@@YA?AV?$QSharedPointer@VQObject@kso_qt@@@2@ABVQVariant@2@@Z
?shared_null@QArrayData@kso_qt@@2QBU12@B
?shared_null@QHashData@kso_qt@@2U12@B
?shared_null@QLinkedListData@kso_qt@@2U12@B
?shared_null@QListData@kso_qt@@2UData@12@B
?shared_null@QMapDataBase@kso_qt@@2U12@B
?shifttable@qfloat16@kso_qt@@0QBIB
?shortDayName@QDate@kso_qt@@SA?AVQString@2@HW4MonthNameType@12@@Z
?shortMonthName@QDate@kso_qt@@SA?AVQString@2@HW4MonthNameType@12@@Z
?shouldLogToStderr@QtPrivate@kso_qt@@YA_NXZ
?shouldQuit@QCoreApplicationPrivate@kso_qt@@UAE_NXZ
?showHelp@QCommandLineParser@kso_qt@@QAEXH@Z
?showVersion@QCommandLineParser@kso_qt@@QAEXXZ
?showbase@kso_qt@@YAAAVQTextStream@1@AAV21@@Z
?shrink_to_fit@?$QVector@VQPoint@kso_qt@@@kso_qt@@QAEXXZ
?shrink_to_fit@?$QVector@VQPointF@kso_qt@@@kso_qt@@QAEXXZ
?shrink_to_fit@?$QVector@VQXmlStreamAttribute@kso_qt@@@kso_qt@@QAEXXZ
?shrink_to_fit@QByteArray@kso_qt@@QAEXXZ
?shrink_to_fit@QString@kso_qt@@QAEXXZ
?sibling@QAbstractItemModel@kso_qt@@UBE?AVQModelIndex@2@HHABV32@@Z
?sibling@QAbstractListModel@kso_qt@@UBE?AVQModelIndex@2@HHABV32@@Z
?sibling@QAbstractProxyModel@kso_qt@@UBE?AVQModelIndex@2@HHABV32@@Z
?sibling@QAbstractTableModel@kso_qt@@UBE?AVQModelIndex@2@HHABV32@@Z
?sibling@QIdentityProxyModel@kso_qt@@UBE?AVQModelIndex@2@HHABV32@@Z
?sibling@QModelIndex@kso_qt@@QBE?AV12@HH@Z
?sibling@QPersistentModelIndex@kso_qt@@QBE?AVQModelIndex@2@HH@Z
?sibling@QSortFilterProxyModel@kso_qt@@UBE?AVQModelIndex@2@HHABV32@@Z
?sibling@QStringListModel@kso_qt@@UBE?AVQModelIndex@2@HHABV32@@Z
?siblingAtColumn@QModelIndex@kso_qt@@QBE?AV12@H@Z
?siblingAtRow@QModelIndex@kso_qt@@QBE?AV12@H@Z
?signal@QMetaObjectPrivate@kso_qt@@SA?AVQMetaMethod@2@PBUQMetaObject@2@H@Z
?signal@QSignalTransition@kso_qt@@QBE?AVQByteArray@2@XZ
?signalChanged@QSignalTransition@kso_qt@@QAEXUQPrivateSignal@12@@Z
?signalEmitted@QAbstractDeclarativeData@kso_qt@@2P6AXPAV12@PAVQObject@2@HPAPAX@ZA
?signalId@QMetaCallEvent@kso_qt@@QBEHXZ
?signalIndex@QMetaObjectPrivate@kso_qt@@SAHABVQMetaMethod@2@@Z
?signalIndex@QObjectPrivate@kso_qt@@QBEHPBDPAPBUQMetaObject@2@@Z
?signalIndex@SignalEvent@QStateMachine@kso_qt@@QBEHXZ
?signalOffset@QMetaObjectPrivate@kso_qt@@SAHPBUQMetaObject@2@@Z
?signalsBlocked@QObject@kso_qt@@QBE_NXZ
?signature@QMetaMethodBuilder@kso_qt@@QBE?AVQByteArray@2@XZ
?simplified@QByteArray@kso_qt@@QBE?AV12@XZ
?simplified@QByteArray@kso_qt@@QGBE?AV12@XZ
?simplified@QByteArray@kso_qt@@QHAE?AV12@XZ
?simplified@QString@kso_qt@@QBE?AV12@XZ
?simplified@QString@kso_qt@@QGBE?AV12@XZ
?simplified@QString@kso_qt@@QHAE?AV12@XZ
?simplified_helper@QByteArray@kso_qt@@CA?AV12@AAV12@@Z
?simplified_helper@QByteArray@kso_qt@@CA?AV12@ABV12@@Z
?simplified_helper@QString@kso_qt@@CA?AV12@AAV12@@Z
?simplified_helper@QString@kso_qt@@CA?AV12@ABV12@@Z
?singleShot@QTimer@kso_qt@@SAXHPBVQObject@2@PBD@Z
?singleShot@QTimer@kso_qt@@SAXHW4TimerType@Qt@2@PBVQObject@2@PBD@Z
?singleShot@QTimer@kso_qt@@SAXV?$duration@_JU?$ratio@$00$0DOI@@std@@@chrono@std@@PBVQObject@2@PBD@Z
?singleShot@QTimer@kso_qt@@SAXV?$duration@_JU?$ratio@$00$0DOI@@std@@@chrono@std@@W4TimerType@Qt@2@PBVQObject@2@PBD@Z
?singleShotImpl@QTimer@kso_qt@@CAXHW4TimerType@Qt@2@PBVQObject@2@PAVQSlotObjectBase@QtPrivate@2@@Z
?singleShotImpl@QTimer@kso_qt@@CAXV?$duration@_JU?$ratio@$00$0DOI@@std@@@chrono@std@@W4TimerType@Qt@2@PBVQObject@2@PAVQSlotObjectBase@QtPrivate@2@@Z
?size@?$QList@VQItemSelectionRange@kso_qt@@@kso_qt@@QBEHXZ
?size@?$QVector@VQPoint@kso_qt@@@kso_qt@@QBEHXZ
?size@?$QVector@VQPointF@kso_qt@@@kso_qt@@QBEHXZ
?size@?$QVector@VQXmlStreamAttribute@kso_qt@@@kso_qt@@QBEHXZ
?size@QAbstractFileEngine@kso_qt@@UBE_JXZ
?size@QAssociativeIterable@kso_qt@@QBEHXZ
?size@QBitArray@kso_qt@@QBEHXZ
?size@QBuffer@kso_qt@@UBE_JXZ
?size@QByteArray@kso_qt@@QBEHXZ
?size@QCborArray@kso_qt@@QBEHXZ
?size@QCborMap@kso_qt@@QBEHXZ
?size@QFSFileEngine@kso_qt@@UBE_JXZ
?size@QFile@kso_qt@@UBE_JXZ
?size@QFileDevice@kso_qt@@UBE_JXZ
?size@QFileInfo@kso_qt@@QBE_JXZ
?size@QFileSystemMetaData@kso_qt@@QBE_JXZ
?size@QIODevice@kso_qt@@UBE_JXZ
?size@QJsonArray@kso_qt@@QBEHXZ
?size@QJsonObject@kso_qt@@QBEHXZ
?size@QListData@kso_qt@@QBEHXZ
?size@QRect@kso_qt@@QBE?AVQSize@2@XZ
?size@QRectF@kso_qt@@QBE?AVQSizeF@2@XZ
?size@QResource@kso_qt@@QBE_JXZ
?size@QSequentialIterable@kso_qt@@QBEHXZ
?size@QSharedMemory@kso_qt@@QBEHXZ
?size@QString@kso_qt@@QBEHXZ
?size@QStringRef@kso_qt@@QBEHXZ
?size@QXmlStreamStringRef@kso_qt@@QBEHXZ
?sizeExtended@QMetaType@kso_qt@@ABEIXZ
?sizeOf@QMetaType@kso_qt@@QBEHXZ
?sizeOf@QMetaType@kso_qt@@SAHH@Z
?skip@QIODevice@kso_qt@@QAE_J_J@Z
?skip@QIODevicePrivate@kso_qt@@UAE_J_J@Z
?skipByReading@QIODevicePrivate@kso_qt@@QAE_J_J@Z
?skipCurrentElement@QXmlStreamReader@kso_qt@@QAEXXZ
?skipRawData@QDataStream@kso_qt@@QAEHH@Z
?skipToNextSection@QDateTimeParser@kso_qt@@IBE_NHABVQDateTime@2@ABVQString@2@@Z
?skipToNextSection@QDateTimeParser@kso_qt@@IBE_NHABVQDateTime@2@ABVQStringRef@2@@Z
?skipWhiteSpace@QTextStream@kso_qt@@QAEXXZ
?sleep@QThread@kso_qt@@SAXK@Z
?slotObject@QMetaCallEvent@kso_qt@@QBEPAVQSlotObjectBase@QtPrivate@2@XZ
?socket@QSocketNotifier@kso_qt@@QBEHXZ
?sort@QAbstractItemModel@kso_qt@@UAEXHW4SortOrder@Qt@2@@Z
?sort@QAbstractProxyModel@kso_qt@@UAEXHW4SortOrder@Qt@2@@Z
?sort@QSortFilterProxyModel@kso_qt@@UAEXHW4SortOrder@Qt@2@@Z
?sort@QStringListModel@kso_qt@@UAEXHW4SortOrder@Qt@2@@Z
?sortCaseSensitivity@QSortFilterProxyModel@kso_qt@@QBE?AW4CaseSensitivity@Qt@2@XZ
?sortColumn@QSortFilterProxyModel@kso_qt@@QBEHXZ
?sortKey@QCollator@kso_qt@@QBE?AVQCollatorSortKey@2@ABVQString@2@@Z
?sortOrder@QSortFilterProxyModel@kso_qt@@QBE?AW4SortOrder@Qt@2@XZ
?sortRole@QSortFilterProxyModel@kso_qt@@QBEHXZ
?sorting@QDir@kso_qt@@QBE?AV?$QFlags@W4SortFlag@QDir@kso_qt@@@2@XZ
?sourceModel@QAbstractProxyModel@kso_qt@@QBEPAVQAbstractItemModel@2@XZ
?sourceModelChanged@QAbstractProxyModel@kso_qt@@QAEXUQPrivateSignal@12@@Z
?sourceState@QAbstractTransition@kso_qt@@QBEPAVQState@2@XZ
?sourceState@QAbstractTransitionPrivate@kso_qt@@QBEPAVQState@2@XZ
?space@QDebug@kso_qt@@QAEAAV12@XZ
?span@QAbstractItemModel@kso_qt@@UBE?AVQSize@2@ABVQModelIndex@2@@Z
?span@QAbstractProxyModel@kso_qt@@UBE?AVQSize@2@ABVQModelIndex@2@@Z
?span@QSortFilterProxyModel@kso_qt@@UBE?AVQSize@2@ABVQModelIndex@2@@Z
?split@QByteArray@kso_qt@@QBE?AV?$QList@VQByteArray@kso_qt@@@2@D@Z
?split@QItemSelection@kso_qt@@SAXABVQItemSelectionRange@2@0PAV12@@Z
?split@QString@kso_qt@@QBE?AVQStringList@2@ABV12@W4SplitBehavior@12@W4CaseSensitivity@Qt@2@@Z
?split@QString@kso_qt@@QBE?AVQStringList@2@ABVQRegExp@2@W4SplitBehavior@12@@Z
?split@QString@kso_qt@@QBE?AVQStringList@2@ABVQRegularExpression@2@W4SplitBehavior@12@@Z
?split@QString@kso_qt@@QBE?AVQStringList@2@VQChar@2@W4SplitBehavior@12@W4CaseSensitivity@Qt@2@@Z
?split@QStringRef@kso_qt@@QBE?AV?$QVector@VQStringRef@kso_qt@@@2@ABVQString@2@W4SplitBehavior@42@W4CaseSensitivity@Qt@2@@Z
?split@QStringRef@kso_qt@@QBE?AV?$QVector@VQStringRef@kso_qt@@@2@VQChar@2@W4SplitBehavior@QString@2@W4CaseSensitivity@Qt@2@@Z
?splitArgs@QSettingsPrivate@kso_qt@@SA?AVQStringList@2@ABVQString@2@H@Z
?splitRef@QString@kso_qt@@QBE?AV?$QVector@VQStringRef@kso_qt@@@2@ABV12@W4SplitBehavior@12@W4CaseSensitivity@Qt@2@@Z
?splitRef@QString@kso_qt@@QBE?AV?$QVector@VQStringRef@kso_qt@@@2@ABVQRegExp@2@W4SplitBehavior@12@@Z
?splitRef@QString@kso_qt@@QBE?AV?$QVector@VQStringRef@kso_qt@@@2@ABVQRegularExpression@2@W4SplitBehavior@12@@Z
?splitRef@QString@kso_qt@@QBE?AV?$QVector@VQStringRef@kso_qt@@@2@VQChar@2@W4SplitBehavior@12@W4CaseSensitivity@Qt@2@@Z
?spontaneous@QEvent@kso_qt@@QBE_NXZ
?sprintf@QString@kso_qt@@QAAAAV12@PBDZZ
?squeeze@?$QVector@VQPoint@kso_qt@@@kso_qt@@QAEXXZ
?squeeze@?$QVector@VQPointF@kso_qt@@@kso_qt@@QAEXXZ
?squeeze@?$QVector@VQXmlStreamAttribute@kso_qt@@@kso_qt@@QAEXXZ
?squeeze@QByteArray@kso_qt@@QAEXXZ
?squeeze@QString@kso_qt@@QAEXXZ
?stackSize@QThread@kso_qt@@QBEIXZ
?stackSize@QThreadPool@kso_qt@@QBEIXZ
?staleLockTime@QLockFile@kso_qt@@QBEHXZ
?standaloneDayName@QLocale@kso_qt@@QBE?AVQString@2@HW4FormatType@12@@Z
?standaloneMonthName@QLocale@kso_qt@@QBE?AVQString@2@HW4FormatType@12@@Z
?standardLocations@QStandardPaths@kso_qt@@SA?AVQStringList@2@W4StandardLocation@12@@Z
?standardTimeOffset@QTimeZone@kso_qt@@QBEHABVQDateTime@2@@Z
?standardTimeOffset@QTimeZonePrivate@kso_qt@@UBEH_J@Z
?standardTimeOffset@QUtcTimeZonePrivate@kso_qt@@UBEH_J@Z
?standardTimeOffset@QWinTimeZonePrivate@kso_qt@@UBEH_J@Z
?start@QAbstractAnimation@kso_qt@@QAEXW4DeletionPolicy@12@@Z
?start@QAnimationDriver@kso_qt@@MAEXXZ
?start@QBasicTimer@kso_qt@@QAEXHPAVQObject@2@@Z
?start@QBasicTimer@kso_qt@@QAEXHW4TimerType@Qt@2@PAVQObject@2@@Z
?start@QElapsedTimer@kso_qt@@QAEXXZ
?start@QProcess@kso_qt@@QAEXABVQString@2@ABVQStringList@2@V?$QFlags@W4OpenModeFlag@QIODevice@kso_qt@@@2@@Z
?start@QProcess@kso_qt@@QAEXABVQString@2@V?$QFlags@W4OpenModeFlag@QIODevice@kso_qt@@@2@@Z
?start@QProcess@kso_qt@@QAEXV?$QFlags@W4OpenModeFlag@QIODevice@kso_qt@@@2@@Z
?start@QStateMachine@kso_qt@@QAEXXZ
?start@QThread@kso_qt@@QAEXW4Priority@12@@Z
?start@QThreadPool@kso_qt@@QAEXPAVQRunnable@2@H@Z
?start@QTime@kso_qt@@QAEXXZ
?start@QTimeLine@kso_qt@@QAEXXZ
?start@QTimer@kso_qt@@QAEXH@Z
?start@QTimer@kso_qt@@QAEXV?$duration@_JU?$ratio@$00$0DOI@@std@@@chrono@std@@@Z
?start@QTimer@kso_qt@@QAEXXZ
?startAnimationDriver@QUnifiedTimer@kso_qt@@QAEXXZ
?startAnimationTimer@QUnifiedTimer@kso_qt@@SAXPAVQAbstractAnimationTimer@2@@Z
?startArray@QCborStreamWriter@kso_qt@@QAEXXZ
?startArray@QCborStreamWriter@kso_qt@@QAEX_K@Z
?startAsyncRead@QWindowsPipeReader@kso_qt@@QAEXXZ
?startDetached@QProcess@kso_qt@@QAE_NPA_J@Z
?startDetached@QProcess@kso_qt@@SA_NABVQString@2@@Z
?startDetached@QProcess@kso_qt@@SA_NABVQString@2@ABVQStringList@2@0PA_J@Z
?startDetached@QProcess@kso_qt@@SA_NABVQString@2@ABVQStringList@2@@Z
?startFrame@QTimeLine@kso_qt@@QBEHXZ
?startMap@QCborStreamWriter@kso_qt@@QAEXXZ
?startMap@QCborStreamWriter@kso_qt@@QAEX_K@Z
?startThread@QThreadPoolPrivate@kso_qt@@QAEXPAVQRunnable@2@@Z
?startTime@QAnimationDriver@kso_qt@@QBE_JXZ
?startTimer@QObject@kso_qt@@QAEHHW4TimerType@Qt@2@@Z
?startTimer@QObject@kso_qt@@QAEHV?$duration@_JU?$ratio@$00$0DOI@@std@@@chrono@std@@W4TimerType@Qt@2@@Z
?startTimer@QTimer@kso_qt@@AAEHH@Z
?startTimers@QUnifiedTimer@kso_qt@@AAEXXZ
?startTransaction@QDataStream@kso_qt@@QAEXXZ
?startTransaction@QIODevice@kso_qt@@QAEXXZ
?startValue@QVariantAnimation@kso_qt@@QBE?AVQVariant@2@XZ
?started@QAnimationDriver@kso_qt@@QAEXXZ
?started@QFutureWatcherBase@kso_qt@@QAEXXZ
?started@QProcess@kso_qt@@QAEXUQPrivateSignal@12@@Z
?started@QStateMachine@kso_qt@@QAEXUQPrivateSignal@12@@Z
?started@QThread@kso_qt@@QAEXUQPrivateSignal@12@@Z
?startingUp@QAbstractEventDispatcher@kso_qt@@UAEXXZ
?startingUp@QCoreApplication@kso_qt@@SA_NXZ
?startingUp@QEventDispatcherWin32@kso_qt@@UAEXXZ
?startsWith@?$QList@VQItemSelectionRange@kso_qt@@@kso_qt@@QBE_NABVQItemSelectionRange@2@@Z
?startsWith@?$QVector@VQPoint@kso_qt@@@kso_qt@@QBE_NABVQPoint@2@@Z
?startsWith@?$QVector@VQPointF@kso_qt@@@kso_qt@@QBE_NABVQPointF@2@@Z
?startsWith@?$QVector@VQXmlStreamAttribute@kso_qt@@@kso_qt@@QBE_NABVQXmlStreamAttribute@2@@Z
?startsWith@QByteArray@kso_qt@@QBE_NABV12@@Z
?startsWith@QByteArray@kso_qt@@QBE_ND@Z
?startsWith@QByteArray@kso_qt@@QBE_NPBD@Z
?startsWith@QString@kso_qt@@QBE_NABV12@W4CaseSensitivity@Qt@2@@Z
?startsWith@QString@kso_qt@@QBE_NABVQStringRef@2@W4CaseSensitivity@Qt@2@@Z
?startsWith@QString@kso_qt@@QBE_NVQChar@2@W4CaseSensitivity@Qt@2@@Z
?startsWith@QString@kso_qt@@QBE_NVQLatin1String@2@W4CaseSensitivity@Qt@2@@Z
?startsWith@QString@kso_qt@@QBE_NVQStringView@2@W4CaseSensitivity@Qt@2@@Z
?startsWith@QStringRef@kso_qt@@QBE_NABV12@W4CaseSensitivity@Qt@2@@Z
?startsWith@QStringRef@kso_qt@@QBE_NABVQString@2@W4CaseSensitivity@Qt@2@@Z
?startsWith@QStringRef@kso_qt@@QBE_NVQChar@2@W4CaseSensitivity@Qt@2@@Z
?startsWith@QStringRef@kso_qt@@QBE_NVQLatin1String@2@W4CaseSensitivity@Qt@2@@Z
?startsWith@QStringRef@kso_qt@@QBE_NVQStringView@2@W4CaseSensitivity@Qt@2@@Z
?startsWith@QtPrivate@kso_qt@@YA_NVQLatin1String@2@0W4CaseSensitivity@Qt@2@@Z
?startsWith@QtPrivate@kso_qt@@YA_NVQLatin1String@2@VQStringView@2@W4CaseSensitivity@Qt@2@@Z
?startsWith@QtPrivate@kso_qt@@YA_NVQStringView@2@0W4CaseSensitivity@Qt@2@@Z
?startsWith@QtPrivate@kso_qt@@YA_NVQStringView@2@VQLatin1String@2@W4CaseSensitivity@Qt@2@@Z
?startsWithLocalTimeZone@QDateTimeParser@kso_qt@@CAHVQStringRef@2@@Z
?startupHook@QStateMachinePrivate@kso_qt@@UAEXXZ
?state@QAbstractAnimation@kso_qt@@QBE?AW4State@12@XZ
?state@QProcess@kso_qt@@QBE?AW4ProcessState@12@XZ
?state@QTimeLine@kso_qt@@QBE?AW4State@12@XZ
?stateChanged@QAbstractAnimation@kso_qt@@QAEXW4State@12@0@Z
?stateChanged@QProcess@kso_qt@@QAEXW4ProcessState@12@UQPrivateSignal@12@@Z
?stateChanged@QTimeLine@kso_qt@@QAEXW4State@12@UQPrivateSignal@12@@Z
?stateEntryLessThan@QStateMachinePrivate@kso_qt@@SA_NPAVQAbstractState@2@0@Z
?stateExitLessThan@QStateMachinePrivate@kso_qt@@SA_NPAVQAbstractState@2@0@Z
?stateForWaitCondition@QReadWriteLock@kso_qt@@ABE?AW4StateForWaitCondition@12@XZ
?stateName@QDateTimeParser@kso_qt@@IBE?AVQString@2@W4State@12@@Z
?staticEmptyModel@QAbstractItemModelPrivate@kso_qt@@SAPAVQAbstractItemModel@2@XZ
?staticInstances@QPluginLoader@kso_qt@@SA?AV?$QList@PAVQObject@kso_qt@@@2@XZ
?staticMetaObject@QAbstractAnimation@kso_qt@@2UQMetaObject@2@B
?staticMetaObject@QAbstractAnimationTimer@kso_qt@@2UQMetaObject@2@B
?staticMetaObject@QAbstractEventDispatcher@kso_qt@@2UQMetaObject@2@B
?staticMetaObject@QAbstractItemModel@kso_qt@@2UQMetaObject@2@B
?staticMetaObject@QAbstractListModel@kso_qt@@2UQMetaObject@2@B
?staticMetaObject@QAbstractProxyModel@kso_qt@@2UQMetaObject@2@B
?staticMetaObject@QAbstractState@kso_qt@@2UQMetaObject@2@B
?staticMetaObject@QAbstractTableModel@kso_qt@@2UQMetaObject@2@B
?staticMetaObject@QAbstractTransition@kso_qt@@2UQMetaObject@2@B
?staticMetaObject@QAnimationDriver@kso_qt@@2UQMetaObject@2@B
?staticMetaObject@QAnimationGroup@kso_qt@@2UQMetaObject@2@B
?staticMetaObject@QBuffer@kso_qt@@2UQMetaObject@2@B
?staticMetaObject@QCborError@kso_qt@@2UQMetaObject@2@B
?staticMetaObject@QCborStreamReader@kso_qt@@2UQMetaObject@2@B
?staticMetaObject@QCborValue@kso_qt@@2UQMetaObject@2@B
?staticMetaObject@QCoreApplication@kso_qt@@2UQMetaObject@2@B
?staticMetaObject@QCryptographicHash@kso_qt@@2UQMetaObject@2@B
?staticMetaObject@QEasingCurve@kso_qt@@2UQMetaObject@2@B
?staticMetaObject@QEvent@kso_qt@@2UQMetaObject@2@B
?staticMetaObject@QEventDispatcherWin32@kso_qt@@2UQMetaObject@2@B
?staticMetaObject@QEventLoop@kso_qt@@2UQMetaObject@2@B
?staticMetaObject@QEventTransition@kso_qt@@2UQMetaObject@2@B
?staticMetaObject@QFactoryLoader@kso_qt@@2UQMetaObject@2@B
?staticMetaObject@QFile@kso_qt@@2UQMetaObject@2@B
?staticMetaObject@QFileDevice@kso_qt@@2UQMetaObject@2@B
?staticMetaObject@QFileSelector@kso_qt@@2UQMetaObject@2@B
?staticMetaObject@QFileSystemWatcher@kso_qt@@2UQMetaObject@2@B
?staticMetaObject@QFinalState@kso_qt@@2UQMetaObject@2@B
?staticMetaObject@QFutureWatcherBase@kso_qt@@2UQMetaObject@2@B
?staticMetaObject@QHistoryState@kso_qt@@2UQMetaObject@2@B
?staticMetaObject@QIODevice@kso_qt@@2UQMetaObject@2@B
?staticMetaObject@QIdentityProxyModel@kso_qt@@2UQMetaObject@2@B
?staticMetaObject@QItemSelectionModel@kso_qt@@2UQMetaObject@2@B
?staticMetaObject@QLibrary@kso_qt@@2UQMetaObject@2@B
?staticMetaObject@QLocale@kso_qt@@2UQMetaObject@2@B
?staticMetaObject@QMimeData@kso_qt@@2UQMetaObject@2@B
?staticMetaObject@QMimeType@kso_qt@@2UQMetaObject@2@B
?staticMetaObject@QNonContiguousByteDevice@kso_qt@@2UQMetaObject@2@B
?staticMetaObject@QObject@kso_qt@@2UQMetaObject@2@B
?staticMetaObject@QObjectCleanupHandler@kso_qt@@2UQMetaObject@2@B
?staticMetaObject@QParallelAnimationGroup@kso_qt@@2UQMetaObject@2@B
?staticMetaObject@QPauseAnimation@kso_qt@@2UQMetaObject@2@B
?staticMetaObject@QPluginLoader@kso_qt@@2UQMetaObject@2@B
?staticMetaObject@QProcess@kso_qt@@2UQMetaObject@2@B
?staticMetaObject@QPropertyAnimation@kso_qt@@2UQMetaObject@2@B
?staticMetaObject@QSaveFile@kso_qt@@2UQMetaObject@2@B
?staticMetaObject@QSequentialAnimationGroup@kso_qt@@2UQMetaObject@2@B
?staticMetaObject@QSettings@kso_qt@@2UQMetaObject@2@B
?staticMetaObject@QSharedMemory@kso_qt@@2UQMetaObject@2@B
?staticMetaObject@QSignalMapper@kso_qt@@2UQMetaObject@2@B
?staticMetaObject@QSignalTransition@kso_qt@@2UQMetaObject@2@B
?staticMetaObject@QSocketNotifier@kso_qt@@2UQMetaObject@2@B
?staticMetaObject@QSortFilterProxyModel@kso_qt@@2UQMetaObject@2@B
?staticMetaObject@QStandardPaths@kso_qt@@2UQMetaObject@2@B
?staticMetaObject@QState@kso_qt@@2UQMetaObject@2@B
?staticMetaObject@QStateMachine@kso_qt@@2UQMetaObject@2@B
?staticMetaObject@QStringListModel@kso_qt@@2UQMetaObject@2@B
?staticMetaObject@QTemporaryFile@kso_qt@@2UQMetaObject@2@B
?staticMetaObject@QThread@kso_qt@@2UQMetaObject@2@B
?staticMetaObject@QThreadPool@kso_qt@@2UQMetaObject@2@B
?staticMetaObject@QTimeLine@kso_qt@@2UQMetaObject@2@B
?staticMetaObject@QTimer@kso_qt@@2UQMetaObject@2@B
?staticMetaObject@QTranslator@kso_qt@@2UQMetaObject@2@B
?staticMetaObject@QUnifiedTimer@kso_qt@@2UQMetaObject@2@B
?staticMetaObject@QVariantAnimation@kso_qt@@2UQMetaObject@2@B
?staticMetaObject@QWinEventNotifier@kso_qt@@2UQMetaObject@2@B
?staticMetaObject@QWindowsPipeReader@kso_qt@@2UQMetaObject@2@B
?staticMetaObject@QWindowsPipeWriter@kso_qt@@2UQMetaObject@2@B
?staticMetacallFunction@QMetaObjectBuilder@kso_qt@@QBEP6AXPAVQObject@2@W4Call@QMetaObject@2@HPAPAX@ZXZ
?staticPlugins@QPluginLoader@kso_qt@@SA?AV?$QVector@UQStaticPlugin@kso_qt@@@2@XZ
?staticQtMetaObject@QObject@kso_qt@@1UQMetaObject@2@B
?static_metacall@QMetaObject@kso_qt@@QBEHW4Call@12@HPAPAX@Z
?status@QDataStream@kso_qt@@QBE?AW4Status@12@XZ
?status@QSettings@kso_qt@@QBE?AW4Status@12@XZ
?status@QTextStream@kso_qt@@QBE?AW4Status@12@XZ
?stdString@QSystemError@kso_qt@@SA?AVQString@2@H@Z
?stealAndRunRunnable@QThreadPoolPrivate@kso_qt@@QAEXPAVQRunnable@2@@Z
?stop@QAbstractAnimation@kso_qt@@QAEXXZ
?stop@QAnimationDriver@kso_qt@@MAEXXZ
?stop@QBasicTimer@kso_qt@@QAEXXZ
?stop@QStateMachine@kso_qt@@QAEXXZ
?stop@QTimeLine@kso_qt@@QAEXXZ
?stop@QTimer@kso_qt@@QAEXXZ
?stop@QWindowsPipeReader@kso_qt@@QAEXXZ
?stop@QWindowsPipeWriter@kso_qt@@QAEXXZ
?stopAnimationDriver@QUnifiedTimer@kso_qt@@QAEXXZ
?stopAnimationTimer@QUnifiedTimer@kso_qt@@SAXPAVQAbstractAnimationTimer@2@@Z
?stopTimer@QUnifiedTimer@kso_qt@@AAEXXZ
?stopped@QAnimationDriver@kso_qt@@QAEXXZ
?stopped@QStateMachine@kso_qt@@QAEXUQPrivateSignal@12@@Z
?string@QStringRef@kso_qt@@QBEPBVQString@2@XZ
?string@QSystemError@kso_qt@@SA?AVQString@2@W4ErrorScope@12@H@Z
?string@QTextBoundaryFinder@kso_qt@@QBE?AVQString@2@XZ
?string@QTextStream@kso_qt@@QBEPAVQString@2@XZ
?string@QXmlStreamStringRef@kso_qt@@QBEPBVQString@2@XZ
?stringDataFromQStringHelper@QJsonValue@kso_qt@@AAEXABVQString@2@@Z
?stringList@QStringListModel@kso_qt@@QBE?AVQStringList@2@XZ
?stringListToVariantList@QSettingsPrivate@kso_qt@@SA?AVQVariant@2@ABVQStringList@2@@Z
?stringToVariant@QSettingsPrivate@kso_qt@@SA?AVQVariant@2@ABVQString@2@@Z
?submit@QAbstractItemModel@kso_qt@@UAE_NXZ
?submit@QAbstractProxyModel@kso_qt@@UAE_NXZ
?subvolume@QStorageInfo@kso_qt@@QBE?AVQByteArray@2@XZ
?suffix@QFileInfo@kso_qt@@QBE?AVQString@2@XZ
?suffixForFileName@QMimeDatabase@kso_qt@@QBE?AVQString@2@ABV32@@Z
?suffixes@QMimeType@kso_qt@@QBE?AVQStringList@2@XZ
?superClass@QMetaObject@kso_qt@@QBEPBU12@XZ
?superClass@QMetaObjectBuilder@kso_qt@@QBEPBUQMetaObject@2@XZ
?supportDPIAware@QLibraryInfo@kso_qt@@SA?AVQString@2@XZ
?supportedDragActions@QAbstractItemModel@kso_qt@@UBE?AV?$QFlags@W4DropAction@Qt@kso_qt@@@2@XZ
?supportedDragActions@QAbstractProxyModel@kso_qt@@UBE?AV?$QFlags@W4DropAction@Qt@kso_qt@@@2@XZ
?supportedDropActions@QAbstractItemModel@kso_qt@@UBE?AV?$QFlags@W4DropAction@Qt@kso_qt@@@2@XZ
?supportedDropActions@QAbstractProxyModel@kso_qt@@UBE?AV?$QFlags@W4DropAction@Qt@kso_qt@@@2@XZ
?supportedDropActions@QSortFilterProxyModel@kso_qt@@UBE?AV?$QFlags@W4DropAction@Qt@kso_qt@@@2@XZ
?supportedDropActions@QStringListModel@kso_qt@@UBE?AV?$QFlags@W4DropAction@Qt@kso_qt@@@2@XZ
?supportsExtension@QAbstractFileEngine@kso_qt@@UBE_NW4Extension@12@@Z
?supportsExtension@QFSFileEngine@kso_qt@@UBE_NW4Extension@QAbstractFileEngine@2@@Z
?surrogateToUcs4@QChar@kso_qt@@SAIGG@Z
?surrogateToUcs4@QChar@kso_qt@@SAIV12@0@Z
?swap@?$QList@VQItemSelectionRange@kso_qt@@@kso_qt@@QAEXAAV12@@Z
?swap@?$QList@VQItemSelectionRange@kso_qt@@@kso_qt@@QAEXHH@Z
?swap@?$QVector@VQPoint@kso_qt@@@kso_qt@@QAEXAAV12@@Z
?swap@?$QVector@VQPointF@kso_qt@@@kso_qt@@QAEXAAV12@@Z
?swap@?$QVector@VQXmlStreamAttribute@kso_qt@@@kso_qt@@QAEXAAV12@@Z
?swap@QBitArray@kso_qt@@QAEXAAV12@@Z
?swap@QByteArray@kso_qt@@QAEXAAV12@@Z
?swap@QCborArray@kso_qt@@QAEXAAV12@@Z
?swap@QCborMap@kso_qt@@QAEXAAV12@@Z
?swap@QCborValue@kso_qt@@QAEXAAV12@@Z
?swap@QCollator@kso_qt@@QAEXAAV12@@Z
?swap@QCollatorSortKey@kso_qt@@QAEXAAV12@@Z
?swap@QCommandLineOption@kso_qt@@QAEXAAV12@@Z
?swap@QDateTime@kso_qt@@QAEXAAV12@@Z
?swap@QDeadlineTimer@kso_qt@@QAEXAAV12@@Z
?swap@QDebug@kso_qt@@QAEXAAV12@@Z
?swap@QDir@kso_qt@@QAEXAAV12@@Z
?swap@QEasingCurve@kso_qt@@QAEXAAV12@@Z
?swap@QFileInfo@kso_qt@@QAEXAAV12@@Z
?swap@QItemSelectionRange@kso_qt@@QAEXAAV12@@Z
?swap@QJsonArray@kso_qt@@QAEXAAV12@@Z
?swap@QJsonDocument@kso_qt@@QAEXAAV12@@Z
?swap@QJsonObject@kso_qt@@QAEXAAV12@@Z
?swap@QJsonValue@kso_qt@@QAEXAAV12@@Z
?swap@QLocale@kso_qt@@QAEXAAV12@@Z
?swap@QMimeType@kso_qt@@QAEXAAV12@@Z
?swap@QPersistentModelIndex@kso_qt@@QAEXAAV12@@Z
?swap@QProcessEnvironment@kso_qt@@QAEXAAV12@@Z
?swap@QRegExp@kso_qt@@QAEXAAV12@@Z
?swap@QRegularExpression@kso_qt@@QAEXAAV12@@Z
?swap@QRegularExpressionMatch@kso_qt@@QAEXAAV12@@Z
?swap@QRegularExpressionMatchIterator@kso_qt@@QAEXAAV12@@Z
?swap@QStorageInfo@kso_qt@@QAEXAAV12@@Z
?swap@QString@kso_qt@@QAEXAAV12@@Z
?swap@QTimeZone@kso_qt@@QAEXAAV12@@Z
?swap@QUrl@kso_qt@@QAEXAAV12@@Z
?swap@QUrlQuery@kso_qt@@QAEXAAV12@@Z
?swap@QVariant@kso_qt@@QAEXAAV12@@Z
?swap@QXmlStreamStringRef@kso_qt@@QAEXAAV12@@Z
?symLinkTarget@QFile@kso_qt@@QBE?AVQString@2@XZ
?symLinkTarget@QFile@kso_qt@@SA?AVQString@2@ABV32@@Z
?symLinkTarget@QFileInfo@kso_qt@@QBE?AVQString@2@XZ
?sync@QSettings@kso_qt@@QAEXXZ
?syncPendingResults@ResultStoreBase@QtPrivate@kso_qt@@IAEXXZ
?syncResultCount@ResultStoreBase@QtPrivate@kso_qt@@IAEXXZ
?syncToDisk@QAbstractFileEngine@kso_qt@@UAE_NXZ
?syncToDisk@QFSFileEngine@kso_qt@@UAE_NXZ
?system@QLocale@kso_qt@@SA?AV12@XZ
?system@QRandomGenerator64@kso_qt@@SAPAV12@XZ
?systemEnvironment@QProcess@kso_qt@@SA?AVQStringList@2@XZ
?systemEnvironment@QProcessEnvironment@kso_qt@@SA?AV12@XZ
?systemId@QXmlStreamEntityDeclaration@kso_qt@@QBE?AVQStringRef@2@XZ
?systemId@QXmlStreamNotationDeclaration@kso_qt@@QBE?AVQStringRef@2@XZ
?systemTimeZone@QTimeZone@kso_qt@@SA?AV12@XZ
?systemTimeZoneId@QTimeZone@kso_qt@@SA?AVQByteArray@2@XZ
?systemTimeZoneId@QTimeZonePrivate@kso_qt@@UBE?AVQByteArray@2@XZ
?systemTimeZoneId@QUtcTimeZonePrivate@kso_qt@@UBE?AVQByteArray@2@XZ
?systemTimeZoneId@QWinTimeZonePrivate@kso_qt@@UBE?AVQByteArray@2@XZ
?tag@QCborValue@kso_qt@@QBE?AW4QCborTag@2@W432@@Z
?tag@QCborValueRef@kso_qt@@QBE?AW4QCborTag@2@W432@@Z
?tag@QMetaMethod@kso_qt@@QBEPBDXZ
?tag@QMetaMethodBuilder@kso_qt@@QBE?AVQByteArray@2@XZ
?taggedValue@QCborValue@kso_qt@@QBE?AV12@ABV12@@Z
?taggedValue@QCborValueRef@kso_qt@@QBE?AVQCborValue@2@ABV32@@Z
?take@QCborMap@kso_qt@@QAE?AVQCborValue@2@ABV32@@Z
?take@QCborMap@kso_qt@@QAE?AVQCborValue@2@ABVQString@2@@Z
?take@QCborMap@kso_qt@@QAE?AVQCborValue@2@VQLatin1String@2@@Z
?take@QCborMap@kso_qt@@QAE?AVQCborValue@2@_J@Z
?take@QJsonObject@kso_qt@@QAE?AVQJsonValue@2@ABVQString@2@@Z
?takeAnimation@QAnimationGroup@kso_qt@@QAEPAVQAbstractAnimation@2@H@Z
?takeAt@?$QList@VQItemSelectionRange@kso_qt@@@kso_qt@@QAE?AVQItemSelectionRange@2@H@Z
?takeAt@?$QVector@VQPoint@kso_qt@@@kso_qt@@QAE?AVQPoint@2@H@Z
?takeAt@?$QVector@VQPointF@kso_qt@@@kso_qt@@QAE?AVQPointF@2@H@Z
?takeAt@?$QVector@VQXmlStreamAttribute@kso_qt@@@kso_qt@@QAE?AVQXmlStreamAttribute@2@H@Z
?takeAt@QCborArray@kso_qt@@QAE?AVQCborValue@2@H@Z
?takeAt@QJsonArray@kso_qt@@QAE?AVQJsonValue@2@H@Z
?takeFirst@?$QList@VQItemSelectionRange@kso_qt@@@kso_qt@@QAE?AVQItemSelectionRange@2@XZ
?takeFirst@?$QVector@VQPoint@kso_qt@@@kso_qt@@QAE?AVQPoint@2@XZ
?takeFirst@?$QVector@VQPointF@kso_qt@@@kso_qt@@QAE?AVQPointF@2@XZ
?takeFirst@?$QVector@VQXmlStreamAttribute@kso_qt@@@kso_qt@@QAE?AVQXmlStreamAttribute@2@XZ
?takeFirst@QCborArray@kso_qt@@QAE?AVQCborValue@2@XZ
?takeLast@?$QList@VQItemSelectionRange@kso_qt@@@kso_qt@@QAE?AVQItemSelectionRange@2@XZ
?takeLast@?$QVector@VQPoint@kso_qt@@@kso_qt@@QAE?AVQPoint@2@XZ
?takeLast@?$QVector@VQPointF@kso_qt@@@kso_qt@@QAE?AVQPointF@2@XZ
?takeLast@?$QVector@VQXmlStreamAttribute@kso_qt@@@kso_qt@@QAE?AVQXmlStreamAttribute@2@XZ
?takeLast@QCborArray@kso_qt@@QAE?AVQCborValue@2@XZ
?targetObject@QPropertyAnimation@kso_qt@@QBEPAVQObject@2@XZ
?targetState@QAbstractTransition@kso_qt@@QBEPAVQAbstractState@2@XZ
?targetStateChanged@QAbstractTransition@kso_qt@@QAEXUQPrivateSignal@12@@Z
?targetStates@QAbstractTransition@kso_qt@@QBE?AV?$QList@PAVQAbstractState@kso_qt@@@2@XZ
?targetStatesChanged@QAbstractTransition@kso_qt@@QAEXUQPrivateSignal@12@@Z
?temp@QDir@kso_qt@@SA?AV12@XZ
?tempPath@QDir@kso_qt@@SA?AVQString@2@XZ
?tempPath@QFSFileEngine@kso_qt@@SA?AVQString@2@XZ
?terminate@QProcess@kso_qt@@QAEXXZ
?terminate@QThread@kso_qt@@QAEXXZ
?terminateActiveAnimations@QStateMachinePrivate@kso_qt@@QAEXPAVQAbstractState@2@ABV?$QHash@PAVQAbstractState@kso_qt@@V?$QVector@UQPropertyAssignment@kso_qt@@@2@@2@@Z
?testAttribute@QCoreApplication@kso_qt@@SA_NW4ApplicationAttribute@Qt@2@@Z
?testAttribute@QCoreApplicationPrivate@kso_qt@@SA_NI@Z
?testBit@QBitArray@kso_qt@@QBE_NH@Z
?text@QMimeData@kso_qt@@QBE?AVQString@2@XZ
?text@QXmlStreamReader@kso_qt@@QBE?AVQStringRef@2@XZ
?textDirection@QLocale@kso_qt@@QBE?AW4LayoutDirection@Qt@2@XZ
?theMainThread@QCoreApplicationPrivate@kso_qt@@2V?$QBasicAtomicPointer@VQThread@kso_qt@@@2@A
?thread@QObject@kso_qt@@QBEPAVQThread@2@XZ
?threadRequiresCoreApplication@QCoreApplicationPrivate@kso_qt@@SA_NXZ
?throwPossibleException@ExceptionStore@QtPrivate@kso_qt@@QAEXXZ
?time@QDateTime@kso_qt@@QBE?AVQTime@2@XZ
?timeFormat@QLocale@kso_qt@@QBE?AVQString@2@W4FormatType@12@@Z
?timeSpec@QDateTime@kso_qt@@QBE?AW4TimeSpec@Qt@2@XZ
?timeZone@QDateTime@kso_qt@@QBE?AVQTimeZone@2@XZ
?timeZoneAbbreviation@QDateTime@kso_qt@@QBE?AVQString@2@XZ
?timeout@QTimer@kso_qt@@QAEXUQPrivateSignal@12@@Z
?timerEvent@QObject@kso_qt@@MAEXPAVQTimerEvent@2@@Z
?timerEvent@QTimeLine@kso_qt@@MAEXPAVQTimerEvent@2@@Z
?timerEvent@QTimer@kso_qt@@MAEXPAVQTimerEvent@2@@Z
?timerEvent@QUnifiedTimer@kso_qt@@MAEXPAVQTimerEvent@2@@Z
?timerId@QBasicTimer@kso_qt@@QBEHXZ
?timerId@QTimer@kso_qt@@QBEHXZ
?timerId@QTimerEvent@kso_qt@@QBEHXZ
?timerType@QDeadlineTimer@kso_qt@@QBE?AW4TimerType@Qt@2@XZ
?timerType@QTimer@kso_qt@@QBE?AW4TimerType@Qt@2@XZ
?toAce@QUrl@kso_qt@@SA?AVQByteArray@2@ABVQString@2@@Z
?toAlignedRect@QRectF@kso_qt@@QBE?AVQRect@2@XZ
?toArray@QCborValue@kso_qt@@QBE?AVQCborArray@2@ABV32@@Z
?toArray@QCborValue@kso_qt@@QBE?AVQCborArray@2@XZ
?toArray@QCborValueRef@kso_qt@@QBE?AVQCborArray@2@ABV32@@Z
?toArray@QCborValueRef@kso_qt@@QBE?AVQCborArray@2@XZ
?toArray@QJsonValue@kso_qt@@QBE?AVQJsonArray@2@ABV32@@Z
?toArray@QJsonValue@kso_qt@@QBE?AVQJsonArray@2@XZ
?toArray@QJsonValueRef@kso_qt@@QBE?AVQJsonArray@2@XZ
?toAscii@QChar@kso_qt@@QBEDXZ
?toAscii@QCharRef@kso_qt@@QBEDXZ
?toAscii@QString@kso_qt@@QBE?AVQByteArray@2@XZ
?toAscii@QStringRef@kso_qt@@QBE?AVQByteArray@2@XZ
?toBase64@QByteArray@kso_qt@@QBE?AV12@V?$QFlags@W4Base64Option@QByteArray@kso_qt@@@2@@Z
?toBase64@QByteArray@kso_qt@@QBE?AV12@XZ
?toBinaryData@QJsonDocument@kso_qt@@QBE?AVQByteArray@2@XZ
?toBitArray@QVariant@kso_qt@@QBE?AVQBitArray@2@XZ
?toBool@QCborStreamReader@kso_qt@@QBE_NXZ
?toBool@QCborValue@kso_qt@@QBE_N_N@Z
?toBool@QCborValueRef@kso_qt@@QBE_N_N@Z
?toBool@QJsonValue@kso_qt@@QBE_N_N@Z
?toBool@QJsonValueRef@kso_qt@@QBE_NXZ
?toBool@QJsonValueRef@kso_qt@@QBE_N_N@Z
?toBool@QVariant@kso_qt@@QBE_NXZ
?toByteArray@QCborValue@kso_qt@@QBE?AVQByteArray@2@ABV32@@Z
?toByteArray@QCborValueRef@kso_qt@@QBE?AVQByteArray@2@ABV32@@Z
?toByteArray@QUuid@kso_qt@@QBE?AVQByteArray@2@W4StringFormat@12@@Z
?toByteArray@QUuid@kso_qt@@QBE?AVQByteArray@2@XZ
?toByteArray@QVariant@kso_qt@@QBE?AVQByteArray@2@XZ
?toCaseFolded@QChar@kso_qt@@QBE?AV12@XZ
?toCaseFolded@QChar@kso_qt@@SIII@Z
?toCaseFolded@QString@kso_qt@@QBE?AV12@XZ
?toCaseFolded@QString@kso_qt@@QGBE?AV12@XZ
?toCaseFolded@QString@kso_qt@@QHAE?AV12@XZ
?toCaseFolded_helper@QString@kso_qt@@CA?AV12@AAV12@@Z
?toCaseFolded_helper@QString@kso_qt@@CA?AV12@ABV12@@Z
?toCbor@QCborValue@kso_qt@@QAE?AVQByteArray@2@V?$QFlags@W4EncodingOption@QCborValue@kso_qt@@@2@@Z
?toCbor@QCborValue@kso_qt@@QAEXAAVQCborStreamWriter@2@V?$QFlags@W4EncodingOption@QCborValue@kso_qt@@@2@@Z
?toCbor@QCborValueRef@kso_qt@@QAE?AVQByteArray@2@V?$QFlags@W4EncodingOption@QCborValue@kso_qt@@@2@@Z
?toCbor@QCborValueRef@kso_qt@@QAEXAAVQCborStreamWriter@2@V?$QFlags@W4EncodingOption@QCborValue@kso_qt@@@2@@Z
?toCborValue@QCborArray@kso_qt@@QBE?AVQCborValue@2@XZ
?toCborValue@QCborMap@kso_qt@@QBE?AVQCborValue@2@XZ
?toChar@QVariant@kso_qt@@QBE?AVQChar@2@XZ
?toCubicSpline@QEasingCurve@kso_qt@@QBE?AV?$QVector@VQPointF@kso_qt@@@2@XZ
?toCurrencyString@QLocale@kso_qt@@QBE?AVQString@2@FABV32@@Z
?toCurrencyString@QLocale@kso_qt@@QBE?AVQString@2@GABV32@@Z
?toCurrencyString@QLocale@kso_qt@@QBE?AVQString@2@HABV32@@Z
?toCurrencyString@QLocale@kso_qt@@QBE?AVQString@2@IABV32@@Z
?toCurrencyString@QLocale@kso_qt@@QBE?AVQString@2@MABV32@@Z
?toCurrencyString@QLocale@kso_qt@@QBE?AVQString@2@MABV32@H@Z
?toCurrencyString@QLocale@kso_qt@@QBE?AVQString@2@NABV32@@Z
?toCurrencyString@QLocale@kso_qt@@QBE?AVQString@2@NABV32@H@Z
?toCurrencyString@QLocale@kso_qt@@QBE?AVQString@2@_JABV32@@Z
?toCurrencyString@QLocale@kso_qt@@QBE?AVQString@2@_KABV32@@Z
?toDate@QLocale@kso_qt@@QBE?AVQDate@2@ABVQString@2@0@Z
?toDate@QLocale@kso_qt@@QBE?AVQDate@2@ABVQString@2@W4FormatType@12@@Z
?toDate@QVariant@kso_qt@@QBE?AVQDate@2@XZ
?toDateTime@QCborValue@kso_qt@@QBE?AVQDateTime@2@ABV32@@Z
?toDateTime@QCborValueRef@kso_qt@@QBE?AVQDateTime@2@ABV32@@Z
?toDateTime@QLocale@kso_qt@@QBE?AVQDateTime@2@ABVQString@2@0@Z
?toDateTime@QLocale@kso_qt@@QBE?AVQDateTime@2@ABVQString@2@W4FormatType@12@@Z
?toDateTime@QVariant@kso_qt@@QBE?AVQDateTime@2@XZ
?toDiagnosticNotation@QCborValue@kso_qt@@QBE?AVQString@2@V?$QFlags@W4DiagnosticNotationOption@QCborValue@kso_qt@@@2@@Z
?toDiagnosticNotation@QCborValueRef@kso_qt@@QAE?AVQString@2@V?$QFlags@W4DiagnosticNotationOption@QCborValue@kso_qt@@@2@@Z
?toDisplayString@QUrl@kso_qt@@QBE?AVQString@2@V?$QUrlTwoFlags@W4UrlFormattingOption@QUrl@kso_qt@@W4ComponentFormattingOption@23@@2@@Z
?toDouble@QByteArray@kso_qt@@QBENPA_N@Z
?toDouble@QCborStreamReader@kso_qt@@QBENXZ
?toDouble@QCborValue@kso_qt@@QBENN@Z
?toDouble@QCborValueRef@kso_qt@@QBENN@Z
?toDouble@QJsonValue@kso_qt@@QBENN@Z
?toDouble@QJsonValueRef@kso_qt@@QBENN@Z
?toDouble@QJsonValueRef@kso_qt@@QBENXZ
?toDouble@QLocale@kso_qt@@QBENABVQString@2@PA_N@Z
?toDouble@QLocale@kso_qt@@QBENABVQStringRef@2@PA_N@Z
?toDouble@QLocale@kso_qt@@QBENVQStringView@2@PA_N@Z
?toDouble@QString@kso_qt@@QBENPA_N@Z
?toDouble@QStringRef@kso_qt@@QBENPA_N@Z
?toDouble@QVariant@kso_qt@@QBENPA_N@Z
?toDynamicMetaObject@QAbstractDynamicMetaObject@kso_qt@@UAEPAU12@PAVQObject@2@@Z
?toEasingCurve@QVariant@kso_qt@@QBE?AVQEasingCurve@2@XZ
?toEncoded@QUrl@kso_qt@@QBE?AVQByteArray@2@V?$QUrlTwoFlags@W4UrlFormattingOption@QUrl@kso_qt@@W4ComponentFormattingOption@23@@2@@Z
?toEnd@QTextBoundaryFinder@kso_qt@@QAEXXZ
?toFinalState@QStateMachinePrivate@kso_qt@@SAPAVQFinalState@2@PAVQAbstractState@2@@Z
?toFloat16@QCborStreamReader@kso_qt@@QBE?AVqfloat16@2@XZ
?toFloat@QByteArray@kso_qt@@QBEMPA_N@Z
?toFloat@QCborStreamReader@kso_qt@@QBEMXZ
?toFloat@QLocale@kso_qt@@QBEMABVQString@2@PA_N@Z
?toFloat@QLocale@kso_qt@@QBEMABVQStringRef@2@PA_N@Z
?toFloat@QLocale@kso_qt@@QBEMVQStringView@2@PA_N@Z
?toFloat@QString@kso_qt@@QBEMPA_N@Z
?toFloat@QStringRef@kso_qt@@QBEMPA_N@Z
?toFloat@QVariant@kso_qt@@QBEMPA_N@Z
?toHash@QVariant@kso_qt@@QBE?AV?$QHash@VQString@kso_qt@@VQVariant@2@@2@XZ
?toHex@QByteArray@kso_qt@@QBE?AV12@D@Z
?toHex@QByteArray@kso_qt@@QBE?AV12@XZ
?toHistoryState@QStateMachinePrivate@kso_qt@@SAPAVQHistoryState@2@PAVQAbstractState@2@@Z
?toHtmlEscaped@QString@kso_qt@@QBE?AV12@XZ
?toInt@QByteArray@kso_qt@@QBEHPA_NH@Z
?toInt@QJsonValue@kso_qt@@QBEHH@Z
?toInt@QJsonValueRef@kso_qt@@QBEHH@Z
?toInt@QJsonValueRef@kso_qt@@QBEHXZ
?toInt@QLocale@kso_qt@@QBEHABVQString@2@PA_N@Z
?toInt@QLocale@kso_qt@@QBEHABVQStringRef@2@PA_N@Z
?toInt@QLocale@kso_qt@@QBEHVQStringView@2@PA_N@Z
?toInt@QString@kso_qt@@QBEHPA_NH@Z
?toInt@QStringRef@kso_qt@@QBEHPA_NH@Z
?toInt@QVariant@kso_qt@@QBEHPA_N@Z
?toInteger@QCborStreamReader@kso_qt@@QBE_JXZ
?toInteger@QCborValue@kso_qt@@QBE_J_J@Z
?toInteger@QCborValueRef@kso_qt@@QBE_J_J@Z
?toIntegral_helper@QString@kso_qt@@CA_JPBVQChar@2@HPA_NH@Z
?toIntegral_helper@QString@kso_qt@@CA_KPBVQChar@2@IPA_NH@Z
?toJson@QJsonDocument@kso_qt@@QBE?AVQByteArray@2@W4JsonFormat@12@@Z
?toJson@QJsonDocument@kso_qt@@QBE?AVQByteArray@2@XZ
?toJsonArray@QCborArray@kso_qt@@QBE?AVQJsonArray@2@XZ
?toJsonArray@QVariant@kso_qt@@QBE?AVQJsonArray@2@XZ
?toJsonDocument@QVariant@kso_qt@@QBE?AVQJsonDocument@2@XZ
?toJsonObject@QCborMap@kso_qt@@QBE?AVQJsonObject@2@XZ
?toJsonObject@QVariant@kso_qt@@QBE?AVQJsonObject@2@XZ
?toJsonValue@QCborValue@kso_qt@@QBE?AVQJsonValue@2@XZ
?toJsonValue@QCborValueRef@kso_qt@@QBE?AVQJsonValue@2@XZ
?toJsonValue@QVariant@kso_qt@@QBE?AVQJsonValue@2@XZ
?toJulianDay@QDate@kso_qt@@QBE_JXZ
?toLatin1@QChar@kso_qt@@QBEDXZ
?toLatin1@QCharRef@kso_qt@@QBEDXZ
?toLatin1@QString@kso_qt@@QBE?AVQByteArray@2@XZ
?toLatin1@QString@kso_qt@@QGBE?AVQByteArray@2@XZ
?toLatin1@QString@kso_qt@@QHAE?AVQByteArray@2@XZ
?toLatin1@QStringRef@kso_qt@@QBE?AVQByteArray@2@XZ
?toLatin1_helper@QString@kso_qt@@CA?AVQByteArray@2@ABV12@@Z
?toLatin1_helper@QUrl@kso_qt@@CA?AVQByteArray@2@ABVQString@2@@Z
?toLatin1_helper_inplace@QString@kso_qt@@CA?AVQByteArray@2@AAV12@@Z
?toLine@QLineF@kso_qt@@QBE?AVQLine@2@XZ
?toLine@QVariant@kso_qt@@QBE?AVQLine@2@XZ
?toLineF@QVariant@kso_qt@@QBE?AVQLineF@2@XZ
?toList@?$QVector@VQPoint@kso_qt@@@kso_qt@@QBE?AV?$QList@VQPoint@kso_qt@@@2@XZ
?toList@?$QVector@VQPointF@kso_qt@@@kso_qt@@QBE?AV?$QList@VQPointF@kso_qt@@@2@XZ
?toList@?$QVector@VQXmlStreamAttribute@kso_qt@@@kso_qt@@QBE?AV?$QList@VQXmlStreamAttribute@kso_qt@@@2@XZ
?toList@QVariant@kso_qt@@QBE?AV?$QList@VQVariant@kso_qt@@@2@XZ
?toLocal8Bit@QString@kso_qt@@QBE?AVQByteArray@2@XZ
?toLocal8Bit@QString@kso_qt@@QGBE?AVQByteArray@2@XZ
?toLocal8Bit@QString@kso_qt@@QHAE?AVQByteArray@2@XZ
?toLocal8Bit@QStringRef@kso_qt@@QBE?AVQByteArray@2@XZ
?toLocal8Bit_helper@QString@kso_qt@@CA?AVQByteArray@2@PBVQChar@2@H@Z
?toLocalFile@QUrl@kso_qt@@QBE?AVQString@2@XZ
?toLocalTime@QDateTime@kso_qt@@QBE?AV12@XZ
?toLocale@QVariant@kso_qt@@QBE?AVQLocale@2@XZ
?toLong@QByteArray@kso_qt@@QBEJPA_NH@Z
?toLong@QString@kso_qt@@QBEJPA_NH@Z
?toLong@QStringRef@kso_qt@@QBEJPA_NH@Z
?toLongLong@QByteArray@kso_qt@@QBE_JPA_NH@Z
?toLongLong@QLocale@kso_qt@@QBE_JABVQString@2@PA_N@Z
?toLongLong@QLocale@kso_qt@@QBE_JABVQStringRef@2@PA_N@Z
?toLongLong@QLocale@kso_qt@@QBE_JVQStringView@2@PA_N@Z
?toLongLong@QString@kso_qt@@QBE_JPA_NH@Z
?toLongLong@QStringRef@kso_qt@@QBE_JPA_NH@Z
?toLongLong@QVariant@kso_qt@@QBE_JPA_N@Z
?toLower@QByteArray@kso_qt@@QBE?AV12@XZ
?toLower@QByteArray@kso_qt@@QGBE?AV12@XZ
?toLower@QByteArray@kso_qt@@QHAE?AV12@XZ
?toLower@QChar@kso_qt@@QBE?AV12@XZ
?toLower@QChar@kso_qt@@SIII@Z
?toLower@QCharRef@kso_qt@@QBE?AVQChar@2@XZ
?toLower@QLocale@kso_qt@@QBE?AVQString@2@ABV32@@Z
?toLower@QString@kso_qt@@QBE?AV12@XZ
?toLower@QString@kso_qt@@QGBE?AV12@XZ
?toLower@QString@kso_qt@@QHAE?AV12@XZ
?toLower_helper@QByteArray@kso_qt@@CA?AV12@AAV12@@Z
?toLower_helper@QByteArray@kso_qt@@CA?AV12@ABV12@@Z
?toLower_helper@QString@kso_qt@@CA?AV12@AAV12@@Z
?toLower_helper@QString@kso_qt@@CA?AV12@ABV12@@Z
?toMSecsSinceEpoch@QDateTime@kso_qt@@QBE_JXZ
?toMap@QCborValue@kso_qt@@QBE?AVQCborMap@2@ABV32@@Z
?toMap@QCborValue@kso_qt@@QBE?AVQCborMap@2@XZ
?toMap@QCborValueRef@kso_qt@@QBE?AVQCborMap@2@ABV32@@Z
?toMap@QCborValueRef@kso_qt@@QBE?AVQCborMap@2@XZ
?toMap@QVariant@kso_qt@@QBE?AV?$QMap@VQString@kso_qt@@VQVariant@2@@2@XZ
?toMetaObject@QMetaObjectBuilder@kso_qt@@QBEPAUQMetaObject@2@XZ
?toModelIndex@QVariant@kso_qt@@QBE?AVQModelIndex@2@XZ
?toNativeSeparators@QDir@kso_qt@@SA?AVQString@2@ABV32@@Z
?toNegativeInteger@QCborStreamReader@kso_qt@@QBE?AW4QCborNegativeInteger@2@XZ
?toNextBoundary@QTextBoundaryFinder@kso_qt@@QAEHXZ
?toObject@QJsonValue@kso_qt@@QBE?AVQJsonObject@2@ABV32@@Z
?toObject@QJsonValue@kso_qt@@QBE?AVQJsonObject@2@XZ
?toObject@QJsonValueRef@kso_qt@@QBE?AVQJsonObject@2@XZ
?toOffsetData@QTimeZonePrivate@kso_qt@@SA?AUOffsetData@QTimeZone@2@ABUData@12@@Z
?toOffsetFromUtc@QDateTime@kso_qt@@QBE?AV12@H@Z
?toPercentEncoding@QByteArray@kso_qt@@QBE?AV12@ABV12@0D@Z
?toPercentEncoding@QUrl@kso_qt@@SA?AVQByteArray@2@ABVQString@2@ABV32@1@Z
?toPersistentModelIndex@QVariant@kso_qt@@QBE?AVQPersistentModelIndex@2@XZ
?toPoint@QPointF@kso_qt@@QBE?AVQPoint@2@XZ
?toPoint@QVariant@kso_qt@@QBE?AVQPoint@2@XZ
?toPointF@QVariant@kso_qt@@QBE?AVQPointF@2@XZ
?toPreviousBoundary@QTextBoundaryFinder@kso_qt@@QAEHXZ
?toPunycode@QUrl@kso_qt@@SA?AVQByteArray@2@ABVQString@2@@Z
?toReal@QVariant@kso_qt@@QBENPA_N@Z
?toRect@QRectF@kso_qt@@QBE?AVQRect@2@XZ
?toRect@QVariant@kso_qt@@QBE?AVQRect@2@XZ
?toRectF@QVariant@kso_qt@@QBE?AVQRectF@2@XZ
?toRegExp@QVariant@kso_qt@@QBE?AVQRegExp@2@XZ
?toRegularExpression@QCborValue@kso_qt@@QBE?AVQRegularExpression@2@ABV32@@Z
?toRegularExpression@QCborValueRef@kso_qt@@QBE?AVQRegularExpression@2@ABV32@@Z
?toRegularExpression@QVariant@kso_qt@@QBE?AVQRegularExpression@2@XZ
?toRelocatableData@QMetaObjectBuilder@kso_qt@@QBE?AVQByteArray@2@PA_N@Z
?toRfc4122@QUuid@kso_qt@@QBE?AVQByteArray@2@XZ
?toSecsSinceEpoch@QDateTime@kso_qt@@QBE_JXZ
?toSet@?$QList@VQItemSelectionRange@kso_qt@@@kso_qt@@QBE?AV?$QSet@VQItemSelectionRange@kso_qt@@@2@XZ
?toShort@QByteArray@kso_qt@@QBEFPA_NH@Z
?toShort@QLocale@kso_qt@@QBEFABVQString@2@PA_N@Z
?toShort@QLocale@kso_qt@@QBEFABVQStringRef@2@PA_N@Z
?toShort@QLocale@kso_qt@@QBEFVQStringView@2@PA_N@Z
?toShort@QString@kso_qt@@QBEFPA_NH@Z
?toShort@QStringRef@kso_qt@@QBEFPA_NH@Z
?toSimpleType@QCborStreamReader@kso_qt@@QBE?AW4QCborSimpleType@2@XZ
?toSimpleType@QCborValue@kso_qt@@QBE?AW4QCborSimpleType@2@W432@@Z
?toSize@QSizeF@kso_qt@@QBE?AVQSize@2@XZ
?toSize@QVariant@kso_qt@@QBE?AVQSize@2@XZ
?toSizeF@QVariant@kso_qt@@QBE?AVQSizeF@2@XZ
?toStandardState@QStateMachinePrivate@kso_qt@@SAPAVQState@2@PAVQAbstractState@2@@Z
?toStandardState@QStateMachinePrivate@kso_qt@@SAPBVQState@2@PBVQAbstractState@2@@Z
?toStart@QTextBoundaryFinder@kso_qt@@QAEXXZ
?toStdList@?$QList@VQItemSelectionRange@kso_qt@@@kso_qt@@QBE?AV?$list@VQItemSelectionRange@kso_qt@@V?$allocator@VQItemSelectionRange@kso_qt@@@std@@@std@@XZ
?toStdString@QByteArray@kso_qt@@QBE?AV?$basic_string@DU?$char_traits@D@std@@V?$allocator@D@2@@std@@XZ
?toStdString@QString@kso_qt@@QBE?AV?$basic_string@DU?$char_traits@D@std@@V?$allocator@D@2@@std@@XZ
?toStdU16String@QString@kso_qt@@QBE?AV?$basic_string@_SU?$char_traits@_S@std@@V?$allocator@_S@2@@std@@XZ
?toStdU32String@QString@kso_qt@@QBE?AV?$basic_string@_UU?$char_traits@_U@std@@V?$allocator@_U@2@@std@@XZ
?toStdVector@?$QVector@VQPoint@kso_qt@@@kso_qt@@QBE?AV?$vector@VQPoint@kso_qt@@V?$allocator@VQPoint@kso_qt@@@std@@@std@@XZ
?toStdVector@?$QVector@VQPointF@kso_qt@@@kso_qt@@QBE?AV?$vector@VQPointF@kso_qt@@V?$allocator@VQPointF@kso_qt@@@std@@@std@@XZ
?toStdVector@?$QVector@VQXmlStreamAttribute@kso_qt@@@kso_qt@@QBE?AV?$vector@VQXmlStreamAttribute@kso_qt@@V?$allocator@VQXmlStreamAttribute@kso_qt@@@std@@@std@@XZ
?toStdWString@QString@kso_qt@@QBE?AV?$basic_string@_WU?$char_traits@_W@std@@V?$allocator@_W@2@@std@@XZ
?toString@QCborError@kso_qt@@QBE?AVQString@2@XZ
?toString@QCborValue@kso_qt@@QBE?AVQString@2@ABV32@@Z
?toString@QCborValueRef@kso_qt@@QBE?AVQString@2@ABV32@@Z
?toString@QDate@kso_qt@@QBE?AVQString@2@ABV32@@Z
?toString@QDate@kso_qt@@QBE?AVQString@2@VQStringView@2@@Z
?toString@QDate@kso_qt@@QBE?AVQString@2@W4DateFormat@Qt@2@@Z
?toString@QDateTime@kso_qt@@QBE?AVQString@2@ABV32@@Z
?toString@QDateTime@kso_qt@@QBE?AVQString@2@VQStringView@2@@Z
?toString@QDateTime@kso_qt@@QBE?AVQString@2@W4DateFormat@Qt@2@@Z
?toString@QIPAddressUtils@kso_qt@@YAXAAVQString@2@I@Z
?toString@QIPAddressUtils@kso_qt@@YAXAAVQString@2@QAE@Z
?toString@QJsonValue@kso_qt@@QBE?AVQString@2@ABV32@@Z
?toString@QJsonValue@kso_qt@@QBE?AVQString@2@XZ
?toString@QJsonValueRef@kso_qt@@QBE?AVQString@2@ABV32@@Z
?toString@QJsonValueRef@kso_qt@@QBE?AVQString@2@XZ
?toString@QLocale@kso_qt@@QBE?AVQString@2@ABVQDate@2@ABV32@@Z
?toString@QLocale@kso_qt@@QBE?AVQString@2@ABVQDate@2@VQStringView@2@@Z
?toString@QLocale@kso_qt@@QBE?AVQString@2@ABVQDate@2@W4FormatType@12@@Z
?toString@QLocale@kso_qt@@QBE?AVQString@2@ABVQDateTime@2@ABV32@@Z
?toString@QLocale@kso_qt@@QBE?AVQString@2@ABVQDateTime@2@VQStringView@2@@Z
?toString@QLocale@kso_qt@@QBE?AVQString@2@ABVQDateTime@2@W4FormatType@12@@Z
?toString@QLocale@kso_qt@@QBE?AVQString@2@ABVQTime@2@ABV32@@Z
?toString@QLocale@kso_qt@@QBE?AVQString@2@ABVQTime@2@VQStringView@2@@Z
?toString@QLocale@kso_qt@@QBE?AVQString@2@ABVQTime@2@W4FormatType@12@@Z
?toString@QLocale@kso_qt@@QBE?AVQString@2@F@Z
?toString@QLocale@kso_qt@@QBE?AVQString@2@G@Z
?toString@QLocale@kso_qt@@QBE?AVQString@2@H@Z
?toString@QLocale@kso_qt@@QBE?AVQString@2@I@Z
?toString@QLocale@kso_qt@@QBE?AVQString@2@MDH@Z
?toString@QLocale@kso_qt@@QBE?AVQString@2@NDH@Z
?toString@QLocale@kso_qt@@QBE?AVQString@2@_J@Z
?toString@QLocale@kso_qt@@QBE?AVQString@2@_K@Z
?toString@QStringRef@kso_qt@@QBE?AVQString@2@XZ
?toString@QTime@kso_qt@@QBE?AVQString@2@ABV32@@Z
?toString@QTime@kso_qt@@QBE?AVQString@2@VQStringView@2@@Z
?toString@QTime@kso_qt@@QBE?AVQString@2@W4DateFormat@Qt@2@@Z
?toString@QUrl@kso_qt@@QBE?AVQString@2@V?$QUrlTwoFlags@W4UrlFormattingOption@QUrl@kso_qt@@W4ComponentFormattingOption@23@@2@@Z
?toString@QUrlQuery@kso_qt@@QBE?AVQString@2@V?$QFlags@W4ComponentFormattingOption@QUrl@kso_qt@@@2@@Z
?toString@QUuid@kso_qt@@QBE?AVQString@2@W4StringFormat@12@@Z
?toString@QUuid@kso_qt@@QBE?AVQString@2@XZ
?toString@QVariant@kso_qt@@QBE?AVQString@2@XZ
?toString@QVersionNumber@kso_qt@@QBE?AVQString@2@XZ
?toStringEx@QDate@kso_qt@@QBE?AVQString@2@ABV32@@Z
?toStringEx@QDate@kso_qt@@QBE?AVQString@2@VQStringView@2@@Z
?toStringEx@QDateTime@kso_qt@@QBE?AVQString@2@ABV32@@Z
?toStringEx@QDateTime@kso_qt@@QBE?AVQString@2@VQStringView@2@@Z
?toStringEx@QTime@kso_qt@@QBE?AVQString@2@ABV32@@Z
?toStringEx@QTime@kso_qt@@QBE?AVQString@2@VQStringView@2@@Z
?toStringList@QProcessEnvironment@kso_qt@@QBE?AVQStringList@2@XZ
?toStringList@QUrl@kso_qt@@SA?AVQStringList@2@ABV?$QList@VQUrl@kso_qt@@@2@V?$QUrlTwoFlags@W4UrlFormattingOption@QUrl@kso_qt@@W4ComponentFormattingOption@23@@2@@Z
?toStringList@QVariant@kso_qt@@QBE?AVQStringList@2@XZ
?toTag@QCborStreamReader@kso_qt@@QBE?AW4QCborTag@2@XZ
?toTime@QLocale@kso_qt@@QBE?AVQTime@2@ABVQString@2@0@Z
?toTime@QLocale@kso_qt@@QBE?AVQTime@2@ABVQString@2@W4FormatType@12@@Z
?toTime@QVariant@kso_qt@@QBE?AVQTime@2@XZ
?toTimeSpec@QDateTime@kso_qt@@QBE?AV12@W4TimeSpec@Qt@2@@Z
?toTimeZone@QDateTime@kso_qt@@QBE?AV12@ABVQTimeZone@2@@Z
?toTime_t@QDateTime@kso_qt@@QBEIXZ
?toTitleCase@QChar@kso_qt@@QBE?AV12@XZ
?toTitleCase@QChar@kso_qt@@SIII@Z
?toTitleCase@QCharRef@kso_qt@@QBE?AVQChar@2@XZ
?toUInt@QByteArray@kso_qt@@QBEIPA_NH@Z
?toUInt@QLocale@kso_qt@@QBEIABVQString@2@PA_N@Z
?toUInt@QLocale@kso_qt@@QBEIABVQStringRef@2@PA_N@Z
?toUInt@QLocale@kso_qt@@QBEIVQStringView@2@PA_N@Z
?toUInt@QString@kso_qt@@QBEIPA_NH@Z
?toUInt@QStringRef@kso_qt@@QBEIPA_NH@Z
?toUInt@QVariant@kso_qt@@QBEIPA_N@Z
?toULong@QByteArray@kso_qt@@QBEKPA_NH@Z
?toULong@QString@kso_qt@@QBEKPA_NH@Z
?toULong@QStringRef@kso_qt@@QBEKPA_NH@Z
?toULongLong@QByteArray@kso_qt@@QBE_KPA_NH@Z
?toULongLong@QLocale@kso_qt@@QBE_KABVQString@2@PA_N@Z
?toULongLong@QLocale@kso_qt@@QBE_KABVQStringRef@2@PA_N@Z
?toULongLong@QLocale@kso_qt@@QBE_KVQStringView@2@PA_N@Z
?toULongLong@QString@kso_qt@@QBE_KPA_NH@Z
?toULongLong@QStringRef@kso_qt@@QBE_KPA_NH@Z
?toULongLong@QVariant@kso_qt@@QBE_KPA_N@Z
?toUShort@QByteArray@kso_qt@@QBEGPA_NH@Z
?toUShort@QLocale@kso_qt@@QBEGABVQString@2@PA_N@Z
?toUShort@QLocale@kso_qt@@QBEGABVQStringRef@2@PA_N@Z
?toUShort@QLocale@kso_qt@@QBEGVQStringView@2@PA_N@Z
?toUShort@QString@kso_qt@@QBEGPA_NH@Z
?toUShort@QStringRef@kso_qt@@QBEGPA_NH@Z
?toUTC@QDateTime@kso_qt@@QBE?AV12@XZ
?toUcs4@QString@kso_qt@@QBE?AV?$QVector@I@2@XZ
?toUcs4@QStringRef@kso_qt@@QBE?AV?$QVector@I@2@XZ
?toUcs4_helper@QString@kso_qt@@CAHPBGHPAI@Z
?toUnicode@QTextCodec@kso_qt@@QBE?AVQString@2@ABVQByteArray@2@@Z
?toUnicode@QTextCodec@kso_qt@@QBE?AVQString@2@PBD@Z
?toUnicode@QTextCodec@kso_qt@@QBE?AVQString@2@PBDHPAUConverterState@12@@Z
?toUnicode@QTextDecoder@kso_qt@@QAE?AVQString@2@ABVQByteArray@2@@Z
?toUnicode@QTextDecoder@kso_qt@@QAE?AVQString@2@PBDH@Z
?toUnicode@QTextDecoder@kso_qt@@QAEXPAVQString@2@PBDH@Z
?toUnsignedInteger@QCborStreamReader@kso_qt@@QBE_KXZ
?toUpper@QByteArray@kso_qt@@QBE?AV12@XZ
?toUpper@QByteArray@kso_qt@@QGBE?AV12@XZ
?toUpper@QByteArray@kso_qt@@QHAE?AV12@XZ
?toUpper@QChar@kso_qt@@QBE?AV12@XZ
?toUpper@QChar@kso_qt@@SIII@Z
?toUpper@QCharRef@kso_qt@@QBE?AVQChar@2@XZ
?toUpper@QLocale@kso_qt@@QBE?AVQString@2@ABV32@@Z
?toUpper@QString@kso_qt@@QBE?AV12@XZ
?toUpper@QString@kso_qt@@QGBE?AV12@XZ
?toUpper@QString@kso_qt@@QHAE?AV12@XZ
?toUpper_helper@QByteArray@kso_qt@@CA?AV12@AAV12@@Z
?toUpper_helper@QByteArray@kso_qt@@CA?AV12@ABV12@@Z
?toUpper_helper@QString@kso_qt@@CA?AV12@AAV12@@Z
?toUpper_helper@QString@kso_qt@@CA?AV12@ABV12@@Z
?toUrl@QCborValue@kso_qt@@QBE?AVQUrl@2@ABV32@@Z
?toUrl@QCborValueRef@kso_qt@@QBE?AVQUrl@2@ABV32@@Z
?toUrl@QVariant@kso_qt@@QBE?AVQUrl@2@XZ
?toUtf8@QString@kso_qt@@QBE?AVQByteArray@2@XZ
?toUtf8@QString@kso_qt@@QGBE?AVQByteArray@2@XZ
?toUtf8@QString@kso_qt@@QHAE?AVQByteArray@2@XZ
?toUtf8@QStringRef@kso_qt@@QBE?AVQByteArray@2@XZ
?toUtf8_helper@QString@kso_qt@@CA?AVQByteArray@2@ABV12@@Z
?toUuid@QCborValue@kso_qt@@QBE?AVQUuid@2@ABV32@@Z
?toUuid@QCborValueRef@kso_qt@@QBE?AVQUuid@2@ABV32@@Z
?toUuid@QVariant@kso_qt@@QBE?AVQUuid@2@XZ
?toValue@QJsonValueRef@kso_qt@@ABE?AVQJsonValue@2@XZ
?toVariant@QCborValue@kso_qt@@QBE?AVQVariant@2@XZ
?toVariant@QCborValueRef@kso_qt@@QBE?AVQVariant@2@XZ
?toVariant@QJsonDocument@kso_qt@@QBE?AVQVariant@2@XZ
?toVariant@QJsonValue@kso_qt@@QBE?AVQVariant@2@XZ
?toVariant@QJsonValueRef@kso_qt@@QBE?AVQVariant@2@XZ
?toVariantHash@QCborMap@kso_qt@@QBE?AV?$QHash@VQString@kso_qt@@VQVariant@2@@2@XZ
?toVariantHash@QJsonObject@kso_qt@@QBE?AV?$QHash@VQString@kso_qt@@VQVariant@2@@2@XZ
?toVariantList@QCborArray@kso_qt@@QBE?AV?$QList@VQVariant@kso_qt@@@2@XZ
?toVariantList@QJsonArray@kso_qt@@QBE?AV?$QList@VQVariant@kso_qt@@@2@XZ
?toVariantMap@QCborMap@kso_qt@@QBE?AV?$QMap@VQString@kso_qt@@VQVariant@2@@2@XZ
?toVariantMap@QJsonObject@kso_qt@@QBE?AV?$QMap@VQString@kso_qt@@VQVariant@2@@2@XZ
?toVector@?$QList@VQItemSelectionRange@kso_qt@@@kso_qt@@QBE?AV?$QVector@VQItemSelectionRange@kso_qt@@@2@XZ
?toWCharArray@QString@kso_qt@@QBEHPA_W@Z
?toggleBit@QBitArray@kso_qt@@QAE_NH@Z
?toggleDirection@QTimeLine@kso_qt@@QAEXXZ
?togglePaused@QFutureInterfaceBase@kso_qt@@QAEXXZ
?togglePaused@QFutureWatcherBase@kso_qt@@QAEXXZ
?tokenString@QXmlStreamReader@kso_qt@@QBE?AVQString@2@XZ
?tokenType@QXmlStreamReader@kso_qt@@QBE?AW4TokenType@12@XZ
?tooManyThreadsActive@QThreadPoolPrivate@kso_qt@@QBE_NXZ
?top@QItemSelectionRange@kso_qt@@QBEHXZ
?top@QRect@kso_qt@@QBEHXZ
?top@QRectF@kso_qt@@QBENXZ
?topLeft@QItemSelectionRange@kso_qt@@QBEABVQPersistentModelIndex@2@XZ
?topLeft@QRect@kso_qt@@QBE?AVQPoint@2@XZ
?topLeft@QRectF@kso_qt@@QBE?AVQPointF@2@XZ
?topLevelDomain@QUrl@kso_qt@@QBE?AVQString@2@V?$QFlags@W4ComponentFormattingOption@QUrl@kso_qt@@@2@@Z
?topRight@QRect@kso_qt@@QBE?AVQPoint@2@XZ
?topRight@QRectF@kso_qt@@QBE?AVQPointF@2@XZ
?totalDuration@QAbstractAnimation@kso_qt@@QBEHXZ
?tr@QAbstractAnimation@kso_qt@@SA?AVQString@2@PBD0H@Z
?tr@QAbstractAnimationTimer@kso_qt@@SA?AVQString@2@PBD0H@Z
?tr@QAbstractEventDispatcher@kso_qt@@SA?AVQString@2@PBD0H@Z
?tr@QAbstractItemModel@kso_qt@@SA?AVQString@2@PBD0H@Z
?tr@QAbstractListModel@kso_qt@@SA?AVQString@2@PBD0H@Z
?tr@QAbstractProxyModel@kso_qt@@SA?AVQString@2@PBD0H@Z
?tr@QAbstractState@kso_qt@@SA?AVQString@2@PBD0H@Z
?tr@QAbstractTableModel@kso_qt@@SA?AVQString@2@PBD0H@Z
?tr@QAbstractTransition@kso_qt@@SA?AVQString@2@PBD0H@Z
?tr@QAnimationDriver@kso_qt@@SA?AVQString@2@PBD0H@Z
?tr@QAnimationGroup@kso_qt@@SA?AVQString@2@PBD0H@Z
?tr@QBuffer@kso_qt@@SA?AVQString@2@PBD0H@Z
?tr@QCommandLineParser@kso_qt@@SA?AVQString@2@PBD0H@Z
?tr@QCoreApplication@kso_qt@@SA?AVQString@2@PBD0H@Z
?tr@QDateTimeParser@kso_qt@@SA?AVQString@2@PBD0H@Z
?tr@QEventDispatcherWin32@kso_qt@@SA?AVQString@2@PBD0H@Z
?tr@QEventLoop@kso_qt@@SA?AVQString@2@PBD0H@Z
?tr@QEventTransition@kso_qt@@SA?AVQString@2@PBD0H@Z
?tr@QFactoryLoader@kso_qt@@SA?AVQString@2@PBD0H@Z
?tr@QFile@kso_qt@@SA?AVQString@2@PBD0H@Z
?tr@QFileDevice@kso_qt@@SA?AVQString@2@PBD0H@Z
?tr@QFileSelector@kso_qt@@SA?AVQString@2@PBD0H@Z
?tr@QFileSystemWatcher@kso_qt@@SA?AVQString@2@PBD0H@Z
?tr@QFinalState@kso_qt@@SA?AVQString@2@PBD0H@Z
?tr@QFutureWatcherBase@kso_qt@@SA?AVQString@2@PBD0H@Z
?tr@QHistoryState@kso_qt@@SA?AVQString@2@PBD0H@Z
?tr@QIODevice@kso_qt@@SA?AVQString@2@PBD0H@Z
?tr@QIdentityProxyModel@kso_qt@@SA?AVQString@2@PBD0H@Z
?tr@QItemSelectionModel@kso_qt@@SA?AVQString@2@PBD0H@Z
?tr@QLibrary@kso_qt@@SA?AVQString@2@PBD0H@Z
?tr@QMetaObject@kso_qt@@QBE?AVQString@2@PBD0H@Z
?tr@QMimeData@kso_qt@@SA?AVQString@2@PBD0H@Z
?tr@QNonContiguousByteDevice@kso_qt@@SA?AVQString@2@PBD0H@Z
?tr@QObject@kso_qt@@SA?AVQString@2@PBD0H@Z
?tr@QObjectCleanupHandler@kso_qt@@SA?AVQString@2@PBD0H@Z
?tr@QParallelAnimationGroup@kso_qt@@SA?AVQString@2@PBD0H@Z
?tr@QPauseAnimation@kso_qt@@SA?AVQString@2@PBD0H@Z
?tr@QPluginLoader@kso_qt@@SA?AVQString@2@PBD0H@Z
?tr@QProcess@kso_qt@@SA?AVQString@2@PBD0H@Z
?tr@QPropertyAnimation@kso_qt@@SA?AVQString@2@PBD0H@Z
?tr@QSaveFile@kso_qt@@SA?AVQString@2@PBD0H@Z
?tr@QSequentialAnimationGroup@kso_qt@@SA?AVQString@2@PBD0H@Z
?tr@QSettings@kso_qt@@SA?AVQString@2@PBD0H@Z
?tr@QSharedMemory@kso_qt@@SA?AVQString@2@PBD0H@Z
?tr@QSignalMapper@kso_qt@@SA?AVQString@2@PBD0H@Z
?tr@QSignalTransition@kso_qt@@SA?AVQString@2@PBD0H@Z
?tr@QSocketNotifier@kso_qt@@SA?AVQString@2@PBD0H@Z
?tr@QSortFilterProxyModel@kso_qt@@SA?AVQString@2@PBD0H@Z
?tr@QState@kso_qt@@SA?AVQString@2@PBD0H@Z
?tr@QStateMachine@kso_qt@@SA?AVQString@2@PBD0H@Z
?tr@QStringListModel@kso_qt@@SA?AVQString@2@PBD0H@Z
?tr@QTemporaryFile@kso_qt@@SA?AVQString@2@PBD0H@Z
?tr@QThread@kso_qt@@SA?AVQString@2@PBD0H@Z
?tr@QThreadPool@kso_qt@@SA?AVQString@2@PBD0H@Z
?tr@QTimeLine@kso_qt@@SA?AVQString@2@PBD0H@Z
?tr@QTimer@kso_qt@@SA?AVQString@2@PBD0H@Z
?tr@QTranslator@kso_qt@@SA?AVQString@2@PBD0H@Z
?tr@QUnifiedTimer@kso_qt@@SA?AVQString@2@PBD0H@Z
?tr@QVariantAnimation@kso_qt@@SA?AVQString@2@PBD0H@Z
?tr@QWinEventNotifier@kso_qt@@SA?AVQString@2@PBD0H@Z
?tr@QWindowsPipeReader@kso_qt@@SA?AVQString@2@PBD0H@Z
?tr@QWindowsPipeWriter@kso_qt@@SA?AVQString@2@PBD0H@Z
?trUtf8@QAbstractAnimation@kso_qt@@SA?AVQString@2@PBD0H@Z
?trUtf8@QAbstractAnimationTimer@kso_qt@@SA?AVQString@2@PBD0H@Z
?trUtf8@QAbstractEventDispatcher@kso_qt@@SA?AVQString@2@PBD0H@Z
?trUtf8@QAbstractItemModel@kso_qt@@SA?AVQString@2@PBD0H@Z
?trUtf8@QAbstractListModel@kso_qt@@SA?AVQString@2@PBD0H@Z
?trUtf8@QAbstractProxyModel@kso_qt@@SA?AVQString@2@PBD0H@Z
?trUtf8@QAbstractState@kso_qt@@SA?AVQString@2@PBD0H@Z
?trUtf8@QAbstractTableModel@kso_qt@@SA?AVQString@2@PBD0H@Z
?trUtf8@QAbstractTransition@kso_qt@@SA?AVQString@2@PBD0H@Z
?trUtf8@QAnimationDriver@kso_qt@@SA?AVQString@2@PBD0H@Z
?trUtf8@QAnimationGroup@kso_qt@@SA?AVQString@2@PBD0H@Z
?trUtf8@QBuffer@kso_qt@@SA?AVQString@2@PBD0H@Z
?trUtf8@QCommandLineParser@kso_qt@@SA?AVQString@2@PBD0H@Z
?trUtf8@QCoreApplication@kso_qt@@SA?AVQString@2@PBD0H@Z
?trUtf8@QDateTimeParser@kso_qt@@SA?AVQString@2@PBD0H@Z
?trUtf8@QEventDispatcherWin32@kso_qt@@SA?AVQString@2@PBD0H@Z
?trUtf8@QEventLoop@kso_qt@@SA?AVQString@2@PBD0H@Z
?trUtf8@QEventTransition@kso_qt@@SA?AVQString@2@PBD0H@Z
?trUtf8@QFactoryLoader@kso_qt@@SA?AVQString@2@PBD0H@Z
?trUtf8@QFile@kso_qt@@SA?AVQString@2@PBD0H@Z
?trUtf8@QFileDevice@kso_qt@@SA?AVQString@2@PBD0H@Z
?trUtf8@QFileSelector@kso_qt@@SA?AVQString@2@PBD0H@Z
?trUtf8@QFileSystemWatcher@kso_qt@@SA?AVQString@2@PBD0H@Z
?trUtf8@QFinalState@kso_qt@@SA?AVQString@2@PBD0H@Z
?trUtf8@QFutureWatcherBase@kso_qt@@SA?AVQString@2@PBD0H@Z
?trUtf8@QHistoryState@kso_qt@@SA?AVQString@2@PBD0H@Z
?trUtf8@QIODevice@kso_qt@@SA?AVQString@2@PBD0H@Z
?trUtf8@QIdentityProxyModel@kso_qt@@SA?AVQString@2@PBD0H@Z
?trUtf8@QItemSelectionModel@kso_qt@@SA?AVQString@2@PBD0H@Z
?trUtf8@QLibrary@kso_qt@@SA?AVQString@2@PBD0H@Z
?trUtf8@QMimeData@kso_qt@@SA?AVQString@2@PBD0H@Z
?trUtf8@QNonContiguousByteDevice@kso_qt@@SA?AVQString@2@PBD0H@Z
?trUtf8@QObject@kso_qt@@SA?AVQString@2@PBD0H@Z
?trUtf8@QObjectCleanupHandler@kso_qt@@SA?AVQString@2@PBD0H@Z
?trUtf8@QParallelAnimationGroup@kso_qt@@SA?AVQString@2@PBD0H@Z
?trUtf8@QPauseAnimation@kso_qt@@SA?AVQString@2@PBD0H@Z
?trUtf8@QPluginLoader@kso_qt@@SA?AVQString@2@PBD0H@Z
?trUtf8@QProcess@kso_qt@@SA?AVQString@2@PBD0H@Z
?trUtf8@QPropertyAnimation@kso_qt@@SA?AVQString@2@PBD0H@Z
?trUtf8@QSaveFile@kso_qt@@SA?AVQString@2@PBD0H@Z
?trUtf8@QSequentialAnimationGroup@kso_qt@@SA?AVQString@2@PBD0H@Z
?trUtf8@QSettings@kso_qt@@SA?AVQString@2@PBD0H@Z
?trUtf8@QSharedMemory@kso_qt@@SA?AVQString@2@PBD0H@Z
?trUtf8@QSignalMapper@kso_qt@@SA?AVQString@2@PBD0H@Z
?trUtf8@QSignalTransition@kso_qt@@SA?AVQString@2@PBD0H@Z
?trUtf8@QSocketNotifier@kso_qt@@SA?AVQString@2@PBD0H@Z
?trUtf8@QSortFilterProxyModel@kso_qt@@SA?AVQString@2@PBD0H@Z
?trUtf8@QState@kso_qt@@SA?AVQString@2@PBD0H@Z
?trUtf8@QStateMachine@kso_qt@@SA?AVQString@2@PBD0H@Z
?trUtf8@QStringListModel@kso_qt@@SA?AVQString@2@PBD0H@Z
?trUtf8@QTemporaryFile@kso_qt@@SA?AVQString@2@PBD0H@Z
?trUtf8@QThread@kso_qt@@SA?AVQString@2@PBD0H@Z
?trUtf8@QThreadPool@kso_qt@@SA?AVQString@2@PBD0H@Z
?trUtf8@QTimeLine@kso_qt@@SA?AVQString@2@PBD0H@Z
?trUtf8@QTimer@kso_qt@@SA?AVQString@2@PBD0H@Z
?trUtf8@QTranslator@kso_qt@@SA?AVQString@2@PBD0H@Z
?trUtf8@QUnifiedTimer@kso_qt@@SA?AVQString@2@PBD0H@Z
?trUtf8@QVariantAnimation@kso_qt@@SA?AVQString@2@PBD0H@Z
?trUtf8@QWinEventNotifier@kso_qt@@SA?AVQString@2@PBD0H@Z
?trUtf8@QWindowsPipeReader@kso_qt@@SA?AVQString@2@PBD0H@Z
?trUtf8@QWindowsPipeWriter@kso_qt@@SA?AVQString@2@PBD0H@Z
?transitionStateEntryLessThan@QStateMachinePrivate@kso_qt@@SA_NPAVQAbstractTransition@2@0@Z
?transitionType@QAbstractTransition@kso_qt@@QBE?AW4TransitionType@12@XZ
?transitions@QState@kso_qt@@QBE?AV?$QList@PAVQAbstractTransition@kso_qt@@@2@XZ
?transitions@QStatePrivate@kso_qt@@QBE?AV?$QList@PAVQAbstractTransition@kso_qt@@@2@XZ
?transitions@QTimeZone@kso_qt@@QBE?AV?$QVector@UOffsetData@QTimeZone@kso_qt@@@2@ABVQDateTime@2@0@Z
?transitions@QTimeZonePrivate@kso_qt@@QBE?AV?$QVector@UData@QTimeZonePrivate@kso_qt@@@2@_J0@Z
?translate@QCoreApplication@kso_qt@@SA?AVQString@2@PBD00H@Z
?translate@QCoreApplication@kso_qt@@SA?AVQString@2@PBD00W4Encoding@12@H@Z
?translate@QLine@kso_qt@@QAEXABVQPoint@2@@Z
?translate@QLine@kso_qt@@QAEXHH@Z
?translate@QLineF@kso_qt@@QAEXABVQPointF@2@@Z
?translate@QLineF@kso_qt@@QAEXNN@Z
?translate@QRect@kso_qt@@QAEXABVQPoint@2@@Z
?translate@QRect@kso_qt@@QAEXHH@Z
?translate@QRectF@kso_qt@@QAEXABVQPointF@2@@Z
?translate@QRectF@kso_qt@@QAEXNN@Z
?translate@QTranslator@kso_qt@@UBE?AVQString@2@PBD00H@Z
?translated@QLine@kso_qt@@QBE?AV12@ABVQPoint@2@@Z
?translated@QLine@kso_qt@@QBE?AV12@HH@Z
?translated@QLineF@kso_qt@@QBE?AV12@ABVQPointF@2@@Z
?translated@QLineF@kso_qt@@QBE?AV12@NN@Z
?translated@QRect@kso_qt@@QBE?AV12@ABVQPoint@2@@Z
?translated@QRect@kso_qt@@QBE?AV12@HH@Z
?translated@QRectF@kso_qt@@QBE?AV12@ABVQPointF@2@@Z
?translated@QRectF@kso_qt@@QBE?AV12@NN@Z
?transpose@QSize@kso_qt@@QAEXXZ
?transpose@QSizeF@kso_qt@@QAEXXZ
?transposed@QRect@kso_qt@@QBE?AV12@XZ
?transposed@QRectF@kso_qt@@QBE?AV12@XZ
?transposed@QSize@kso_qt@@QBE?AV12@XZ
?transposed@QSizeF@kso_qt@@QBE?AV12@XZ
?triggered@QAbstractTransition@kso_qt@@QAEXUQPrivateSignal@12@@Z
?trimmed@QByteArray@kso_qt@@QBE?AV12@XZ
?trimmed@QByteArray@kso_qt@@QGBE?AV12@XZ
?trimmed@QByteArray@kso_qt@@QHAE?AV12@XZ
?trimmed@QString@kso_qt@@QBE?AV12@XZ
?trimmed@QString@kso_qt@@QGBE?AV12@XZ
?trimmed@QString@kso_qt@@QHAE?AV12@XZ
?trimmed@QStringRef@kso_qt@@QBE?AV12@XZ
?trimmed@QtPrivate@kso_qt@@YA?AVQLatin1String@2@V32@@Z
?trimmed@QtPrivate@kso_qt@@YA?AVQStringView@2@V32@@Z
?trimmed_helper@QByteArray@kso_qt@@CA?AV12@AAV12@@Z
?trimmed_helper@QByteArray@kso_qt@@CA?AV12@ABV12@@Z
?trimmed_helper@QString@kso_qt@@CA?AV12@AAV12@@Z
?trimmed_helper@QString@kso_qt@@CA?AV12@ABV12@@Z
?true_element@VectorBoolElements@QtMetaTypePrivate@kso_qt@@2_NB
?truncate@QBitArray@kso_qt@@QAEXH@Z
?truncate@QByteArray@kso_qt@@QAEXH@Z
?truncate@QString@kso_qt@@QAEXH@Z
?truncate@QStringRef@kso_qt@@QAEXH@Z
?tryAcquire@QSemaphore@kso_qt@@QAE_NH@Z
?tryAcquire@QSemaphore@kso_qt@@QAE_NHH@Z
?tryLock@QBasicMutex@kso_qt@@QAE_NXZ
?tryLock@QLockFile@kso_qt@@QAE_NH@Z
?tryLock@QMutex@kso_qt@@QAE_NH@Z
?tryLockForRead@QReadWriteLock@kso_qt@@QAE_NH@Z
?tryLockForRead@QReadWriteLock@kso_qt@@QAE_NXZ
?tryLockForWrite@QReadWriteLock@kso_qt@@QAE_NH@Z
?tryLockForWrite@QReadWriteLock@kso_qt@@QAE_NXZ
?tryLocker@QSharedMemoryPrivate@kso_qt@@QAE_NPAVQSharedMemoryLocker@2@ABVQString@2@@Z
?tryStart@QThreadPool@kso_qt@@QAE_NPAVQRunnable@2@@Z
?tryStart@QThreadPoolPrivate@kso_qt@@QAE_NPAVQRunnable@2@@Z
?tryTake@QThreadPool@kso_qt@@QAE_NPAVQRunnable@2@@Z
?tryToStartMoreThreads@QThreadPoolPrivate@kso_qt@@QAEXXZ
?try_lock@QBasicMutex@kso_qt@@QAE_NXZ
?try_lock@QMutex@kso_qt@@QAE_NXZ
?type@QCborStreamReader@kso_qt@@QBE?AW4Type@12@XZ
?type@QCborValue@kso_qt@@QBE?AW4Type@12@XZ
?type@QCborValueRef@kso_qt@@QBE?AW4Type@QCborValue@2@XZ
?type@QEasingCurve@kso_qt@@QBE?AW4Type@12@XZ
?type@QEvent@kso_qt@@QBE?AW4Type@12@XZ
?type@QJsonValue@kso_qt@@QBE?AW4Type@12@XZ
?type@QJsonValueRef@kso_qt@@QBE?AW4Type@QJsonValue@2@XZ
?type@QMetaProperty@kso_qt@@QBE?AW4Type@QVariant@2@XZ
?type@QMetaPropertyBuilder@kso_qt@@QBE?AVQByteArray@2@XZ
?type@QMetaType@kso_qt@@SAHABVQByteArray@2@@Z
?type@QMetaType@kso_qt@@SAHPBD@Z
?type@QOperatingSystemVersion@kso_qt@@QBE?AW4OSType@12@XZ
?type@QSocketNotifier@kso_qt@@QBE?AW4Type@12@XZ
?type@QTextBoundaryFinder@kso_qt@@QBE?AW4BoundaryType@12@XZ
?type@QVariant@kso_qt@@QBE?AW4Type@12@XZ
?typeFlags@QMetaType@kso_qt@@SA?AV?$QFlags@W4TypeFlag@QMetaType@kso_qt@@@2@H@Z
?typeInfo@QMetaType@kso_qt@@CA?AV12@H@Z
?typeName@QMetaMethod@kso_qt@@QBEPBDXZ
?typeName@QMetaProperty@kso_qt@@QBEPBDXZ
?typeName@QMetaType@kso_qt@@SAPBDH@Z
?typeName@QVariant@kso_qt@@QBEPBDXZ
?typeToName@QVariant@kso_qt@@SAPBDH@Z
?type_helper@QCborValue@kso_qt@@CA?AW4Type@12@W4QCborSimpleType@2@@Z
?uiLanguages@QLocale@kso_qt@@QBE?AVQStringList@2@XZ
?ungetChar@QIODevice@kso_qt@@QAEXD@Z
?unicode@QChar@kso_qt@@QAEAAGXZ
?unicode@QChar@kso_qt@@QBEGXZ
?unicode@QCharRef@kso_qt@@QAEAAGXZ
?unicode@QCharRef@kso_qt@@QBEGXZ
?unicode@QString@kso_qt@@QBEPBVQChar@2@XZ
?unicode@QStringRef@kso_qt@@QBEPBVQChar@2@XZ
?unicodeVersion@QChar@kso_qt@@QBE?AW4UnicodeVersion@12@XZ
?unicodeVersion@QChar@kso_qt@@SI?AW4UnicodeVersion@12@I@Z
?unicodeVersion@QCharRef@kso_qt@@QBE?AW4UnicodeVersion@QChar@2@XZ
?uninstall@QAnimationDriver@kso_qt@@QAEXXZ
?uninstallAnimationDriver@QUnifiedTimer@kso_qt@@QAEXPAVQAnimationDriver@2@@Z
?uninstallMessageHook@QEventDispatcherWin32@kso_qt@@IAEXXZ
?unitVector@QLineF@kso_qt@@QBE?AV12@XZ
?unite@QRect@kso_qt@@QBE?AV12@ABV12@@Z
?unite@QRectF@kso_qt@@QBE?AV12@ABV12@@Z
?united@QRect@kso_qt@@QBE?AV12@ABV12@@Z
?united@QRectF@kso_qt@@QBE?AV12@ABV12@@Z
?unknownOptionNames@QCommandLineParser@kso_qt@@QBE?AVQStringList@2@XZ
?unload@QLibrary@kso_qt@@QAE_NXZ
?unload@QPluginLoader@kso_qt@@QAE_NXZ
?unlock@QBasicMutex@kso_qt@@QAEXXZ
?unlock@QLockFile@kso_qt@@QAEXXZ
?unlock@QMutex@kso_qt@@QAEXXZ
?unlock@QMutexLocker@kso_qt@@QAEXXZ
?unlock@QReadLocker@kso_qt@@QAEXXZ
?unlock@QReadWriteLock@kso_qt@@QAEXXZ
?unlock@QSharedMemory@kso_qt@@QAE_NXZ
?unlock@QWriteLocker@kso_qt@@QAEXXZ
?unlockInternal@QBasicMutex@kso_qt@@AAEXXZ
?unmap@QAbstractFileEngine@kso_qt@@QAE_NPAE@Z
?unmap@QFSFileEnginePrivate@kso_qt@@QAE_NPAE@Z
?unmap@QFileDevice@kso_qt@@QAE_NPAE@Z
?unmapAll@QFSFileEnginePrivate@kso_qt@@QAEXXZ
?unregister@QEventTransitionPrivate@kso_qt@@QAEXXZ
?unregisterAllTransitions@QStateMachinePrivate@kso_qt@@QAEXXZ
?unregisterCallback@QInternal@kso_qt@@SA_NW4Callback@12@P6A_NPAPAX@Z@Z
?unregisterCategory@QLoggingRegistry@kso_qt@@QAEXPAVQLoggingCategory@2@@Z
?unregisterConverterFunction@QMetaType@kso_qt@@SAXHH@Z
?unregisterEventNotifier@QEventDispatcherWin32@kso_qt@@UAEXPAVQWinEventNotifier@2@@Z
?unregisterEventTransition@QStateMachinePrivate@kso_qt@@QAEXPAVQEventTransition@2@@Z
?unregisterResource@QResource@kso_qt@@SA_NABVQString@2@0@Z
?unregisterResource@QResource@kso_qt@@SA_NPBEABVQString@2@@Z
?unregisterRestorables@QStateMachinePrivate@kso_qt@@QAEXABV?$QList@PAVQAbstractState@kso_qt@@@2@PAVQObject@2@ABVQByteArray@2@@Z
?unregisterSignalTransition@QStateMachinePrivate@kso_qt@@QAEXPAVQSignalTransition@2@@Z
?unregisterSocketNotifier@QEventDispatcherWin32@kso_qt@@UAEXPAVQSocketNotifier@2@@Z
?unregisterTimer@QEventDispatcherWin32@kso_qt@@UAE_NH@Z
?unregisterTimer@QEventDispatcherWin32Private@kso_qt@@QAEXPAUWinTimerInfo@2@@Z
?unregisterTimers@QEventDispatcherWin32@kso_qt@@UAE_NPAVQObject@2@@Z
?unregisterTransition@QStateMachinePrivate@kso_qt@@QAEXPAVQAbstractTransition@2@@Z
?unregisterType@QMetaType@kso_qt@@SA_NH@Z
?unsetDevice@QDataStream@kso_qt@@QAEXXZ
?unsetError@QFileDevice@kso_qt@@QAEXXZ
?update@QFactoryLoader@kso_qt@@QAEXXZ
?update@QSettingsPrivate@kso_qt@@QAEXXZ
?updateAnimationTimers@QUnifiedTimer@kso_qt@@QAEX_J@Z
?updateCurrentTime@QParallelAnimationGroup@kso_qt@@MAEXH@Z
?updateCurrentTime@QPauseAnimation@kso_qt@@MAEXH@Z
?updateCurrentTime@QSequentialAnimationGroup@kso_qt@@MAEXH@Z
?updateCurrentTime@QVariantAnimation@kso_qt@@MAEXH@Z
?updateCurrentValue@QPropertyAnimation@kso_qt@@MAEXABVQVariant@2@@Z
?updateCurrentValue@QVariantAnimation@kso_qt@@MAEXABVQVariant@2@@Z
?updateDirection@QAbstractAnimation@kso_qt@@MAEXW4Direction@12@@Z
?updateDirection@QParallelAnimationGroup@kso_qt@@MAEXW4Direction@QAbstractAnimation@2@@Z
?updateDirection@QSequentialAnimationGroup@kso_qt@@MAEXW4Direction@QAbstractAnimation@2@@Z
?updateInsertIndex@ResultStoreBase@QtPrivate@kso_qt@@IAEHHH@Z
?updateInterval@QTimeLine@kso_qt@@QBEHXZ
?updateRules@QLoggingRegistry@kso_qt@@AAEXXZ
?updateSelectors@QFileSelectorPrivate@kso_qt@@SAXXZ
?updateState@QAbstractAnimation@kso_qt@@MAEXW4State@12@0@Z
?updateState@QParallelAnimationGroup@kso_qt@@MAEXW4State@QAbstractAnimation@2@0@Z
?updateState@QPropertyAnimation@kso_qt@@MAEXW4State@QAbstractAnimation@2@0@Z
?updateState@QSequentialAnimationGroup@kso_qt@@MAEXW4State@QAbstractAnimation@2@0@Z
?updateState@QVariantAnimation@kso_qt@@MAEXW4State@QAbstractAnimation@2@0@Z
?updateSystemPrivate@QLocalePrivate@kso_qt@@SAXXZ
?uppercasebase@kso_qt@@YAAAVQTextStream@1@AAV21@@Z
?uppercasedigits@kso_qt@@YAAAVQTextStream@1@AAV21@@Z
?url@QUrl@kso_qt@@QBE?AVQString@2@V?$QUrlTwoFlags@W4UrlFormattingOption@QUrl@kso_qt@@W4ComponentFormattingOption@23@@2@@Z
?urls@QMimeData@kso_qt@@QBE?AV?$QList@VQUrl@kso_qt@@@2@XZ
?userData@QObject@kso_qt@@QBEPAVQObjectUserData@2@I@Z
?userId@QFileSystemMetaData@kso_qt@@QBEIXZ
?userInfo@QUrl@kso_qt@@QBE?AVQString@2@V?$QFlags@W4ComponentFormattingOption@QUrl@kso_qt@@@2@@Z
?userName@QUrl@kso_qt@@QBE?AVQString@2@V?$QFlags@W4ComponentFormattingOption@QUrl@kso_qt@@@2@@Z
?userProperty@QMetaObject@kso_qt@@QBE?AVQMetaProperty@2@XZ
?userType@QMetaProperty@kso_qt@@QBEHXZ
?userType@QVariant@kso_qt@@QBEHXZ
?usleep@QThread@kso_qt@@SAXK@Z
?utc@QTimeZone@kso_qt@@SA?AV12@XZ
?utcOffset@QDateTime@kso_qt@@QBEHXZ
?utcQByteArray@QTimeZonePrivate@kso_qt@@SA?AVQByteArray@2@XZ
?utcQString@QTimeZonePrivate@kso_qt@@SA?AVQString@2@XZ
?utf16@QString@kso_qt@@QBEPBGXZ
?validateChars@QLocaleData@kso_qt@@QBE_NVQStringView@2@W4NumberMode@12@PAVQByteArray@2@HV?$QFlags@W4NumberOption@QLocale@kso_qt@@@2@@Z
?value@?$QList@VQItemSelectionRange@kso_qt@@@kso_qt@@QBE?AVQItemSelectionRange@2@H@Z
?value@?$QList@VQItemSelectionRange@kso_qt@@@kso_qt@@QBE?AVQItemSelectionRange@2@HABV32@@Z
?value@?$QVector@VQPoint@kso_qt@@@kso_qt@@QBE?AVQPoint@2@H@Z
?value@?$QVector@VQPoint@kso_qt@@@kso_qt@@QBE?AVQPoint@2@HABV32@@Z
?value@?$QVector@VQPointF@kso_qt@@@kso_qt@@QBE?AVQPointF@2@H@Z
?value@?$QVector@VQPointF@kso_qt@@@kso_qt@@QBE?AVQPointF@2@HABV32@@Z
?value@?$QVector@VQXmlStreamAttribute@kso_qt@@@kso_qt@@QBE?AVQXmlStreamAttribute@2@H@Z
?value@?$QVector@VQXmlStreamAttribute@kso_qt@@@kso_qt@@QBE?AVQXmlStreamAttribute@2@HABV32@@Z
?value@QAssociativeIterable@kso_qt@@QBE?AVQVariant@2@ABV32@@Z
?value@QCborMap@kso_qt@@QBE?AVQCborValue@2@ABV32@@Z
?value@QCborMap@kso_qt@@QBE?AVQCborValue@2@ABVQString@2@@Z
?value@QCborMap@kso_qt@@QBE?AVQCborValue@2@VQLatin1String@2@@Z
?value@QCborMap@kso_qt@@QBE?AVQCborValue@2@_J@Z
?value@QCommandLineParser@kso_qt@@QBE?AVQString@2@ABV32@@Z
?value@QCommandLineParser@kso_qt@@QBE?AVQString@2@ABVQCommandLineOption@2@@Z
?value@QJsonObject@kso_qt@@QBE?AVQJsonValue@2@ABVQString@2@@Z
?value@QJsonObject@kso_qt@@QBE?AVQJsonValue@2@VQLatin1String@2@@Z
?value@QMetaClassInfo@kso_qt@@QBEPBDXZ
?value@QMetaEnum@kso_qt@@QBEHH@Z
?value@QMetaEnumBuilder@kso_qt@@QBEHH@Z
?value@QProcessEnvironment@kso_qt@@QBE?AVQString@2@ABV32@0@Z
?value@QSettings@kso_qt@@QBE?AVQVariant@2@ABVQString@2@ABV32@@Z
?value@QXmlStreamAttribute@kso_qt@@QBE?AVQStringRef@2@XZ
?value@QXmlStreamAttributes@kso_qt@@QBE?AVQStringRef@2@ABVQString@2@0@Z
?value@QXmlStreamAttributes@kso_qt@@QBE?AVQStringRef@2@ABVQString@2@@Z
?value@QXmlStreamAttributes@kso_qt@@QBE?AVQStringRef@2@ABVQString@2@VQLatin1String@2@@Z
?value@QXmlStreamAttributes@kso_qt@@QBE?AVQStringRef@2@VQLatin1String@2@0@Z
?value@QXmlStreamAttributes@kso_qt@@QBE?AVQStringRef@2@VQLatin1String@2@@Z
?value@QXmlStreamEntityDeclaration@kso_qt@@QBE?AVQStringRef@2@XZ
?value@const_iterator@QAssociativeIterable@kso_qt@@QBE?BVQVariant@3@XZ
?valueAt@QJsonObject@kso_qt@@ABE?AVQJsonValue@2@H@Z
?valueChanged@QTimeLine@kso_qt@@QAEXNUQPrivateSignal@12@@Z
?valueChanged@QVariantAnimation@kso_qt@@QAEXABVQVariant@2@@Z
?valueForProgress@QEasingCurve@kso_qt@@QBENN@Z
?valueForTime@QTimeLine@kso_qt@@UBENH@Z
?valueName@QCommandLineOption@kso_qt@@QBE?AVQString@2@XZ
?valueToKey@QMetaEnum@kso_qt@@QBEPBDH@Z
?valueToKeys@QMetaEnum@kso_qt@@QBE?AVQByteArray@2@H@Z
?value_helper@QCborValue@kso_qt@@ABE_JXZ
?values@QCommandLineParser@kso_qt@@QBE?AVQStringList@2@ABVQCommandLineOption@2@@Z
?values@QCommandLineParser@kso_qt@@QBE?AVQStringList@2@ABVQString@2@@Z
?variant@QUuid@kso_qt@@QBE?AW4Variant@12@XZ
?variantLessThan@QAbstractItemModelPrivate@kso_qt@@SA_NABVQVariant@2@0@Z
?variantListToStringList@QSettingsPrivate@kso_qt@@SA?AVQStringList@2@ABV?$QList@VQVariant@kso_qt@@@2@@Z
?variantToString@QSettingsPrivate@kso_qt@@SA?AVQString@2@ABVQVariant@2@@Z
?vasprintf@QString@kso_qt@@SA?AV12@PBDPAD@Z
?vectorIndex@ResultIteratorBase@QtPrivate@kso_qt@@QBEHXZ
?verbosity@QDebug@kso_qt@@QBEHXZ
?version@QDataStream@kso_qt@@QBEHXZ
?version@QLibraryInfo@kso_qt@@SA?AVQVersionNumber@2@XZ
?version@QUuid@kso_qt@@QBE?AW4Version@12@XZ
?vsprintf@QString@kso_qt@@QAEAAV12@PBDPAD@Z
?wait@QThread@kso_qt@@QAE_NK@Z
?wait@QWaitCondition@kso_qt@@QAE_NPAVQMutex@2@K@Z
?wait@QWaitCondition@kso_qt@@QAE_NPAVQMutex@2@VQDeadlineTimer@2@@Z
?wait@QWaitCondition@kso_qt@@QAE_NPAVQReadWriteLock@2@K@Z
?wait@QWaitCondition@kso_qt@@QAE_NPAVQReadWriteLock@2@VQDeadlineTimer@2@@Z
?waitForBytesWritten@QIODevice@kso_qt@@UAE_NH@Z
?waitForBytesWritten@QProcess@kso_qt@@UAE_NH@Z
?waitForDone@QThreadPool@kso_qt@@QAE_NH@Z
?waitForDone@QThreadPoolPrivate@kso_qt@@QAE_NABVQDeadlineTimer@2@@Z
?waitForDone@QThreadPoolPrivate@kso_qt@@QAE_NH@Z
?waitForFinished@QFutureInterfaceBase@kso_qt@@QAEXXZ
?waitForFinished@QFutureWatcherBase@kso_qt@@QAEXXZ
?waitForFinished@QProcess@kso_qt@@QAE_NH@Z
?waitForNextResult@QFutureInterfaceBase@kso_qt@@QAE_NXZ
?waitForNotification@QWindowsPipeReader@kso_qt@@AAE_NH@Z
?waitForNotification@QWindowsPipeWriter@kso_qt@@AAE_NH@Z
?waitForPipeClosed@QWindowsPipeReader@kso_qt@@QAE_NH@Z
?waitForReadyRead@QIODevice@kso_qt@@UAE_NH@Z
?waitForReadyRead@QProcess@kso_qt@@UAE_NH@Z
?waitForReadyRead@QWindowsPipeReader@kso_qt@@QAE_NH@Z
?waitForResult@QFutureInterfaceBase@kso_qt@@QAEXH@Z
?waitForResume@QFutureInterfaceBase@kso_qt@@QAEXXZ
?waitForStarted@QProcess@kso_qt@@QAE_NH@Z
?waitForWrite@QWindowsPipeWriter@kso_qt@@QAE_NH@Z
?wakeAll@QWaitCondition@kso_qt@@QAEXXZ
?wakeOne@QWaitCondition@kso_qt@@QAEXXZ
?wakeUp@QEventDispatcherWin32@kso_qt@@UAEXXZ
?wakeUp@QEventLoop@kso_qt@@QAEXXZ
?warning@QMessageLogger@kso_qt@@QBAXABVQLoggingCategory@2@PBDZZ
?warning@QMessageLogger@kso_qt@@QBAXP6AABVQLoggingCategory@2@XZPBDZZ
?warning@QMessageLogger@kso_qt@@QBAXPBDZZ
?warning@QMessageLogger@kso_qt@@QBE?AVQDebug@2@ABVQLoggingCategory@2@@Z
?warning@QMessageLogger@kso_qt@@QBE?AVQDebug@2@P6AABVQLoggingCategory@2@XZ@Z
?warning@QMessageLogger@kso_qt@@QBE?AVQDebug@2@XZ
?wasDeleted@QFileSystemMetaData@kso_qt@@QBE_NXZ
?weakPointerFromVariant_internal@QtSharedPointer@kso_qt@@YA?AV?$QWeakPointer@VQObject@kso_qt@@@2@ABVQVariant@2@@Z
?weekNumber@QDate@kso_qt@@QBEHPAH@Z
?weekdays@QLocale@kso_qt@@QBE?AV?$QList@W4DayOfWeek@Qt@kso_qt@@@2@XZ
?width@QItemSelectionRange@kso_qt@@QBEHXZ
?width@QRect@kso_qt@@QBEHXZ
?width@QRectF@kso_qt@@QBENXZ
?width@QSize@kso_qt@@QBEHXZ
?width@QSizeF@kso_qt@@QBENXZ
?wildcardToRegularExpression@QRegularExpression@kso_qt@@SA?AVQString@2@ABV32@@Z
?willGrow@QHashData@kso_qt@@QAE_NXZ
?winError@QWindowsPipeReader@kso_qt@@QAEXKABVQString@2@@Z
?windowsIdToDefaultIanaId@QTimeZone@kso_qt@@SA?AVQByteArray@2@ABV32@@Z
?windowsIdToDefaultIanaId@QTimeZone@kso_qt@@SA?AVQByteArray@2@ABV32@W4Country@QLocale@2@@Z
?windowsIdToDefaultIanaId@QTimeZonePrivate@kso_qt@@SA?AVQByteArray@2@ABV32@@Z
?windowsIdToDefaultIanaId@QTimeZonePrivate@kso_qt@@SA?AVQByteArray@2@ABV32@W4Country@QLocale@2@@Z
?windowsIdToIanaIds@QTimeZone@kso_qt@@SA?AV?$QList@VQByteArray@kso_qt@@@2@ABVQByteArray@2@@Z
?windowsIdToIanaIds@QTimeZone@kso_qt@@SA?AV?$QList@VQByteArray@kso_qt@@@2@ABVQByteArray@2@W4Country@QLocale@2@@Z
?windowsIdToIanaIds@QTimeZonePrivate@kso_qt@@SA?AV?$QList@VQByteArray@kso_qt@@@2@ABVQByteArray@2@@Z
?windowsIdToIanaIds@QTimeZonePrivate@kso_qt@@SA?AV?$QList@VQByteArray@kso_qt@@@2@ABVQByteArray@2@W4Country@QLocale@2@@Z
?windowsString@QSystemError@kso_qt@@SA?AVQString@2@H@Z
?windowsVersion@QSysInfo@kso_qt@@SA?AW4WinVersion@12@XZ
?wordBreakClass@QUnicodeTables@kso_qt@@YI?AW4WordBreakClass@12@I@Z
?workingDirectory@QProcess@kso_qt@@QBE?AVQString@2@XZ
?wrap@QNonContiguousByteDeviceFactory@kso_qt@@SAPAVQIODevice@2@PAVQNonContiguousByteDevice@2@@Z
?writableLocation@QStandardPaths@kso_qt@@SA?AVQString@2@W4StandardLocation@12@@Z
?write@QAbstractFileEngine@kso_qt@@UAE_JPBD_J@Z
?write@QFSFileEngine@kso_qt@@UAE_JPBD_J@Z
?write@QIODevice@kso_qt@@QAE_JABVQByteArray@2@@Z
?write@QIODevice@kso_qt@@QAE_JPBD@Z
?write@QIODevice@kso_qt@@QAE_JPBD_J@Z
?write@QMetaProperty@kso_qt@@QBE_NPAVQObject@2@ABVQVariant@2@@Z
?write@QWindowsPipeWriter@kso_qt@@QAE_NABVQByteArray@2@@Z
?writeAttribute@QXmlStreamWriter@kso_qt@@QAEXABVQString@2@00@Z
?writeAttribute@QXmlStreamWriter@kso_qt@@QAEXABVQString@2@0@Z
?writeAttribute@QXmlStreamWriter@kso_qt@@QAEXABVQXmlStreamAttribute@2@@Z
?writeAttributes@QXmlStreamWriter@kso_qt@@QAEXABVQXmlStreamAttributes@2@@Z
?writeBlob@QMetaStringTable@kso_qt@@QBEXPAD@Z
?writeBytes@QDataStream@kso_qt@@QAEAAV12@PBDI@Z
?writeCDATA@QXmlStreamWriter@kso_qt@@QAEXABVQString@2@@Z
?writeChannelCount@QIODevice@kso_qt@@QBEHXZ
?writeCharacters@QXmlStreamWriter@kso_qt@@QAEXABVQString@2@@Z
?writeComment@QXmlStreamWriter@kso_qt@@QAEXABVQString@2@@Z
?writeCurrentToken@QXmlStreamWriter@kso_qt@@QAEXABVQXmlStreamReader@2@@Z
?writeDTD@QXmlStreamWriter@kso_qt@@QAEXABVQString@2@@Z
?writeData@QBuffer@kso_qt@@MAE_JPBD_J@Z
?writeData@QFileDevice@kso_qt@@MAE_JPBD_J@Z
?writeData@QProcess@kso_qt@@MAE_JPBD_J@Z
?writeData@QSaveFile@kso_qt@@MAE_JPBD_J@Z
?writeDefaultNamespace@QXmlStreamWriter@kso_qt@@QAEXABVQString@2@@Z
?writeEmptyElement@QXmlStreamWriter@kso_qt@@QAEXABVQString@2@0@Z
?writeEmptyElement@QXmlStreamWriter@kso_qt@@QAEXABVQString@2@@Z
?writeEndDocument@QXmlStreamWriter@kso_qt@@QAEXXZ
?writeEndElement@QXmlStreamWriter@kso_qt@@QAEXXZ
?writeEntityReference@QXmlStreamWriter@kso_qt@@QAEXABVQString@2@@Z
?writeFdFh@QFSFileEnginePrivate@kso_qt@@QAE_JPBD_J@Z
?writeFileCompleted@QWindowsPipeWriter@kso_qt@@CGXKKPAU_OVERLAPPED@@@Z
?writeNamespace@QXmlStreamWriter@kso_qt@@QAEXABVQString@2@0@Z
?writeOnGadget@QMetaProperty@kso_qt@@QBE_NPAXABVQVariant@2@@Z
?writeProcessingInstruction@QXmlStreamWriter@kso_qt@@QAEXABVQString@2@0@Z
?writeRawData@QDataStream@kso_qt@@QAEHPBDH@Z
?writeStartDocument@QXmlStreamWriter@kso_qt@@QAEXABVQString@2@@Z
?writeStartDocument@QXmlStreamWriter@kso_qt@@QAEXABVQString@2@_N@Z
?writeStartDocument@QXmlStreamWriter@kso_qt@@QAEXXZ
?writeStartElement@QXmlStreamWriter@kso_qt@@QAEXABVQString@2@0@Z
?writeStartElement@QXmlStreamWriter@kso_qt@@QAEXABVQString@2@@Z
?writeTextElement@QXmlStreamWriter@kso_qt@@QAEXABVQString@2@00@Z
?writeTextElement@QXmlStreamWriter@kso_qt@@QAEXABVQString@2@0@Z
?ws@kso_qt@@YAAAVQTextStream@1@AAV21@@Z
?x1@QLine@kso_qt@@QBEHXZ
?x1@QLineF@kso_qt@@QBENXZ
?x2@QLine@kso_qt@@QBEHXZ
?x2@QLineF@kso_qt@@QBENXZ
?x@QPoint@kso_qt@@QBEHXZ
?x@QPointF@kso_qt@@QBENXZ
?x@QRect@kso_qt@@QBEHXZ
?x@QRectF@kso_qt@@QBENXZ
?y1@QLine@kso_qt@@QBEHXZ
?y1@QLineF@kso_qt@@QBENXZ
?y2@QLine@kso_qt@@QBEHXZ
?y2@QLineF@kso_qt@@QBENXZ
?y@QPoint@kso_qt@@QBEHXZ
?y@QPointF@kso_qt@@QBENXZ
?y@QRect@kso_qt@@QBEHXZ
?y@QRectF@kso_qt@@QBENXZ
?year@QDate@kso_qt@@QBEHXZ
?yieldCurrentThread@QThread@kso_qt@@SAXXZ
?zero@QLocalePrivate@kso_qt@@QBE?AVQChar@2@XZ
?zeroDigit@QLocale@kso_qt@@QBE?AVQChar@2@XZ
